
Nucleo_FreeRTOS_LWIP_COM_PORT.elf:     file format elf32-littlearm

Sections:
Idx Name          Size      VMA       LMA       File off  Algn
  0 .isr_vector   000001c8  08000000  08000000  00010000  2**0
                  CONTENTS, ALLOC, LOAD, READONLY, DATA
  1 .text         0000c400  080001d0  080001d0  000101d0  2**4
                  CONTENTS, ALLOC, LOAD, READONLY, CODE
  2 .rodata       000016b4  0800c5d0  0800c5d0  0001c5d0  2**2
                  CONTENTS, ALLOC, LOAD, READONLY, DATA
  3 .ARM          00000008  0800dc84  0800dc84  0001dc84  2**2
                  CONTENTS, ALLOC, LOAD, READONLY, DATA
  4 .init_array   00000004  0800dc8c  0800dc8c  0001dc8c  2**2
                  CONTENTS, ALLOC, LOAD, DATA
  5 .fini_array   00000004  0800dc90  0800dc90  0001dc90  2**2
                  CONTENTS, ALLOC, LOAD, DATA
  6 .data         000001d8  20000000  0800dc94  00020000  2**2
                  CONTENTS, ALLOC, LOAD, DATA
  7 .bss          0000c0c0  200001d8  0800de6c  000201d8  2**2
                  ALLOC
  8 ._user_heap_stack 00010000  2000c298  0800de6c  0002c298  2**0
                  ALLOC
  9 .ARM.attributes 00000030  00000000  00000000  000201d8  2**0
                  CONTENTS, READONLY
 10 .comment      0000007c  00000000  00000000  00020208  2**0
                  CONTENTS, READONLY
 11 .debug_frame  00000798  00000000  00000000  00020284  2**2
                  CONTENTS, READONLY, DEBUGGING

Disassembly of section .text:

080001d0 <__do_global_dtors_aux>:
 80001d0:	b510      	push	{r4, lr}
 80001d2:	4c05      	ldr	r4, [pc, #20]	; (80001e8 <__do_global_dtors_aux+0x18>)
 80001d4:	7823      	ldrb	r3, [r4, #0]
 80001d6:	b933      	cbnz	r3, 80001e6 <__do_global_dtors_aux+0x16>
 80001d8:	4b04      	ldr	r3, [pc, #16]	; (80001ec <__do_global_dtors_aux+0x1c>)
 80001da:	b113      	cbz	r3, 80001e2 <__do_global_dtors_aux+0x12>
 80001dc:	4804      	ldr	r0, [pc, #16]	; (80001f0 <__do_global_dtors_aux+0x20>)
 80001de:	f3af 8000 	nop.w
 80001e2:	2301      	movs	r3, #1
 80001e4:	7023      	strb	r3, [r4, #0]
 80001e6:	bd10      	pop	{r4, pc}
 80001e8:	200001d8 	.word	0x200001d8
 80001ec:	00000000 	.word	0x00000000
 80001f0:	0800c5b8 	.word	0x0800c5b8

080001f4 <frame_dummy>:
 80001f4:	b508      	push	{r3, lr}
 80001f6:	4b03      	ldr	r3, [pc, #12]	; (8000204 <frame_dummy+0x10>)
 80001f8:	b11b      	cbz	r3, 8000202 <frame_dummy+0xe>
 80001fa:	4903      	ldr	r1, [pc, #12]	; (8000208 <frame_dummy+0x14>)
 80001fc:	4803      	ldr	r0, [pc, #12]	; (800020c <frame_dummy+0x18>)
 80001fe:	f3af 8000 	nop.w
 8000202:	bd08      	pop	{r3, pc}
 8000204:	00000000 	.word	0x00000000
 8000208:	200001dc 	.word	0x200001dc
 800020c:	0800c5b8 	.word	0x0800c5b8

08000210 <memchr>:
 8000210:	f001 01ff 	and.w	r1, r1, #255	; 0xff
 8000214:	2a10      	cmp	r2, #16
 8000216:	db2b      	blt.n	8000270 <memchr+0x60>
 8000218:	f010 0f07 	tst.w	r0, #7
 800021c:	d008      	beq.n	8000230 <memchr+0x20>
 800021e:	f810 3b01 	ldrb.w	r3, [r0], #1
 8000222:	3a01      	subs	r2, #1
 8000224:	428b      	cmp	r3, r1
 8000226:	d02d      	beq.n	8000284 <memchr+0x74>
 8000228:	f010 0f07 	tst.w	r0, #7
 800022c:	b342      	cbz	r2, 8000280 <memchr+0x70>
 800022e:	d1f6      	bne.n	800021e <memchr+0xe>
 8000230:	b4f0      	push	{r4, r5, r6, r7}
 8000232:	ea41 2101 	orr.w	r1, r1, r1, lsl #8
 8000236:	ea41 4101 	orr.w	r1, r1, r1, lsl #16
 800023a:	f022 0407 	bic.w	r4, r2, #7
 800023e:	f07f 0700 	mvns.w	r7, #0
 8000242:	2300      	movs	r3, #0
 8000244:	e8f0 5602 	ldrd	r5, r6, [r0], #8
 8000248:	3c08      	subs	r4, #8
 800024a:	ea85 0501 	eor.w	r5, r5, r1
 800024e:	ea86 0601 	eor.w	r6, r6, r1
 8000252:	fa85 f547 	uadd8	r5, r5, r7
 8000256:	faa3 f587 	sel	r5, r3, r7
 800025a:	fa86 f647 	uadd8	r6, r6, r7
 800025e:	faa5 f687 	sel	r6, r5, r7
 8000262:	b98e      	cbnz	r6, 8000288 <memchr+0x78>
 8000264:	d1ee      	bne.n	8000244 <memchr+0x34>
 8000266:	bcf0      	pop	{r4, r5, r6, r7}
 8000268:	f001 01ff 	and.w	r1, r1, #255	; 0xff
 800026c:	f002 0207 	and.w	r2, r2, #7
 8000270:	b132      	cbz	r2, 8000280 <memchr+0x70>
 8000272:	f810 3b01 	ldrb.w	r3, [r0], #1
 8000276:	3a01      	subs	r2, #1
 8000278:	ea83 0301 	eor.w	r3, r3, r1
 800027c:	b113      	cbz	r3, 8000284 <memchr+0x74>
 800027e:	d1f8      	bne.n	8000272 <memchr+0x62>
 8000280:	2000      	movs	r0, #0
 8000282:	4770      	bx	lr
 8000284:	3801      	subs	r0, #1
 8000286:	4770      	bx	lr
 8000288:	2d00      	cmp	r5, #0
 800028a:	bf06      	itte	eq
 800028c:	4635      	moveq	r5, r6
 800028e:	3803      	subeq	r0, #3
 8000290:	3807      	subne	r0, #7
 8000292:	f015 0f01 	tst.w	r5, #1
 8000296:	d107      	bne.n	80002a8 <memchr+0x98>
 8000298:	3001      	adds	r0, #1
 800029a:	f415 7f80 	tst.w	r5, #256	; 0x100
 800029e:	bf02      	ittt	eq
 80002a0:	3001      	addeq	r0, #1
 80002a2:	f415 3fc0 	tsteq.w	r5, #98304	; 0x18000
 80002a6:	3001      	addeq	r0, #1
 80002a8:	bcf0      	pop	{r4, r5, r6, r7}
 80002aa:	3801      	subs	r0, #1
 80002ac:	4770      	bx	lr
 80002ae:	bf00      	nop

080002b0 <__aeabi_uldivmod>:
 80002b0:	b953      	cbnz	r3, 80002c8 <__aeabi_uldivmod+0x18>
 80002b2:	b94a      	cbnz	r2, 80002c8 <__aeabi_uldivmod+0x18>
 80002b4:	2900      	cmp	r1, #0
 80002b6:	bf08      	it	eq
 80002b8:	2800      	cmpeq	r0, #0
 80002ba:	bf1c      	itt	ne
 80002bc:	f04f 31ff 	movne.w	r1, #4294967295
 80002c0:	f04f 30ff 	movne.w	r0, #4294967295
 80002c4:	f000 b97a 	b.w	80005bc <__aeabi_idiv0>
 80002c8:	f1ad 0c08 	sub.w	ip, sp, #8
 80002cc:	e96d ce04 	strd	ip, lr, [sp, #-16]!
 80002d0:	f000 f806 	bl	80002e0 <__udivmoddi4>
 80002d4:	f8dd e004 	ldr.w	lr, [sp, #4]
 80002d8:	e9dd 2302 	ldrd	r2, r3, [sp, #8]
 80002dc:	b004      	add	sp, #16
 80002de:	4770      	bx	lr

080002e0 <__udivmoddi4>:
 80002e0:	e92d 47f0 	stmdb	sp!, {r4, r5, r6, r7, r8, r9, sl, lr}
 80002e4:	468c      	mov	ip, r1
 80002e6:	460d      	mov	r5, r1
 80002e8:	4604      	mov	r4, r0
 80002ea:	9e08      	ldr	r6, [sp, #32]
 80002ec:	2b00      	cmp	r3, #0
 80002ee:	d151      	bne.n	8000394 <__udivmoddi4+0xb4>
 80002f0:	428a      	cmp	r2, r1
 80002f2:	4617      	mov	r7, r2
 80002f4:	d96d      	bls.n	80003d2 <__udivmoddi4+0xf2>
 80002f6:	fab2 fe82 	clz	lr, r2
 80002fa:	f1be 0f00 	cmp.w	lr, #0
 80002fe:	d00b      	beq.n	8000318 <__udivmoddi4+0x38>
 8000300:	f1ce 0c20 	rsb	ip, lr, #32
 8000304:	fa01 f50e 	lsl.w	r5, r1, lr
 8000308:	fa20 fc0c 	lsr.w	ip, r0, ip
 800030c:	fa02 f70e 	lsl.w	r7, r2, lr
 8000310:	ea4c 0c05 	orr.w	ip, ip, r5
 8000314:	fa00 f40e 	lsl.w	r4, r0, lr
 8000318:	ea4f 4a17 	mov.w	sl, r7, lsr #16
 800031c:	0c25      	lsrs	r5, r4, #16
 800031e:	fbbc f8fa 	udiv	r8, ip, sl
 8000322:	fa1f f987 	uxth.w	r9, r7
 8000326:	fb0a cc18 	mls	ip, sl, r8, ip
 800032a:	ea45 450c 	orr.w	r5, r5, ip, lsl #16
 800032e:	fb08 f309 	mul.w	r3, r8, r9
 8000332:	42ab      	cmp	r3, r5
 8000334:	d90a      	bls.n	800034c <__udivmoddi4+0x6c>
 8000336:	19ed      	adds	r5, r5, r7
 8000338:	f108 32ff 	add.w	r2, r8, #4294967295
 800033c:	f080 8123 	bcs.w	8000586 <__udivmoddi4+0x2a6>
 8000340:	42ab      	cmp	r3, r5
 8000342:	f240 8120 	bls.w	8000586 <__udivmoddi4+0x2a6>
 8000346:	f1a8 0802 	sub.w	r8, r8, #2
 800034a:	443d      	add	r5, r7
 800034c:	1aed      	subs	r5, r5, r3
 800034e:	b2a4      	uxth	r4, r4
 8000350:	fbb5 f0fa 	udiv	r0, r5, sl
 8000354:	fb0a 5510 	mls	r5, sl, r0, r5
 8000358:	ea44 4405 	orr.w	r4, r4, r5, lsl #16
 800035c:	fb00 f909 	mul.w	r9, r0, r9
 8000360:	45a1      	cmp	r9, r4
 8000362:	d909      	bls.n	8000378 <__udivmoddi4+0x98>
 8000364:	19e4      	adds	r4, r4, r7
 8000366:	f100 33ff 	add.w	r3, r0, #4294967295
 800036a:	f080 810a 	bcs.w	8000582 <__udivmoddi4+0x2a2>
 800036e:	45a1      	cmp	r9, r4
 8000370:	f240 8107 	bls.w	8000582 <__udivmoddi4+0x2a2>
 8000374:	3802      	subs	r0, #2
 8000376:	443c      	add	r4, r7
 8000378:	eba4 0409 	sub.w	r4, r4, r9
 800037c:	ea40 4008 	orr.w	r0, r0, r8, lsl #16
 8000380:	2100      	movs	r1, #0
 8000382:	2e00      	cmp	r6, #0
 8000384:	d061      	beq.n	800044a <__udivmoddi4+0x16a>
 8000386:	fa24 f40e 	lsr.w	r4, r4, lr
 800038a:	2300      	movs	r3, #0
 800038c:	6034      	str	r4, [r6, #0]
 800038e:	6073      	str	r3, [r6, #4]
 8000390:	e8bd 87f0 	ldmia.w	sp!, {r4, r5, r6, r7, r8, r9, sl, pc}
 8000394:	428b      	cmp	r3, r1
 8000396:	d907      	bls.n	80003a8 <__udivmoddi4+0xc8>
 8000398:	2e00      	cmp	r6, #0
 800039a:	d054      	beq.n	8000446 <__udivmoddi4+0x166>
 800039c:	2100      	movs	r1, #0
 800039e:	e886 0021 	stmia.w	r6, {r0, r5}
 80003a2:	4608      	mov	r0, r1
 80003a4:	e8bd 87f0 	ldmia.w	sp!, {r4, r5, r6, r7, r8, r9, sl, pc}
 80003a8:	fab3 f183 	clz	r1, r3
 80003ac:	2900      	cmp	r1, #0
 80003ae:	f040 808e 	bne.w	80004ce <__udivmoddi4+0x1ee>
 80003b2:	42ab      	cmp	r3, r5
 80003b4:	d302      	bcc.n	80003bc <__udivmoddi4+0xdc>
 80003b6:	4282      	cmp	r2, r0
 80003b8:	f200 80fa 	bhi.w	80005b0 <__udivmoddi4+0x2d0>
 80003bc:	1a84      	subs	r4, r0, r2
 80003be:	eb65 0503 	sbc.w	r5, r5, r3
 80003c2:	2001      	movs	r0, #1
 80003c4:	46ac      	mov	ip, r5
 80003c6:	2e00      	cmp	r6, #0
 80003c8:	d03f      	beq.n	800044a <__udivmoddi4+0x16a>
 80003ca:	e886 1010 	stmia.w	r6, {r4, ip}
 80003ce:	e8bd 87f0 	ldmia.w	sp!, {r4, r5, r6, r7, r8, r9, sl, pc}
 80003d2:	b912      	cbnz	r2, 80003da <__udivmoddi4+0xfa>
 80003d4:	2701      	movs	r7, #1
 80003d6:	fbb7 f7f2 	udiv	r7, r7, r2
 80003da:	fab7 fe87 	clz	lr, r7
 80003de:	f1be 0f00 	cmp.w	lr, #0
 80003e2:	d134      	bne.n	800044e <__udivmoddi4+0x16e>
 80003e4:	1beb      	subs	r3, r5, r7
 80003e6:	0c3a      	lsrs	r2, r7, #16
 80003e8:	fa1f fc87 	uxth.w	ip, r7
 80003ec:	2101      	movs	r1, #1
 80003ee:	fbb3 f8f2 	udiv	r8, r3, r2
 80003f2:	0c25      	lsrs	r5, r4, #16
 80003f4:	fb02 3318 	mls	r3, r2, r8, r3
 80003f8:	ea45 4503 	orr.w	r5, r5, r3, lsl #16
 80003fc:	fb0c f308 	mul.w	r3, ip, r8
 8000400:	42ab      	cmp	r3, r5
 8000402:	d907      	bls.n	8000414 <__udivmoddi4+0x134>
 8000404:	19ed      	adds	r5, r5, r7
 8000406:	f108 30ff 	add.w	r0, r8, #4294967295
 800040a:	d202      	bcs.n	8000412 <__udivmoddi4+0x132>
 800040c:	42ab      	cmp	r3, r5
 800040e:	f200 80d1 	bhi.w	80005b4 <__udivmoddi4+0x2d4>
 8000412:	4680      	mov	r8, r0
 8000414:	1aed      	subs	r5, r5, r3
 8000416:	b2a3      	uxth	r3, r4
 8000418:	fbb5 f0f2 	udiv	r0, r5, r2
 800041c:	fb02 5510 	mls	r5, r2, r0, r5
 8000420:	ea43 4405 	orr.w	r4, r3, r5, lsl #16
 8000424:	fb0c fc00 	mul.w	ip, ip, r0
 8000428:	45a4      	cmp	ip, r4
 800042a:	d907      	bls.n	800043c <__udivmoddi4+0x15c>
 800042c:	19e4      	adds	r4, r4, r7
 800042e:	f100 33ff 	add.w	r3, r0, #4294967295
 8000432:	d202      	bcs.n	800043a <__udivmoddi4+0x15a>
 8000434:	45a4      	cmp	ip, r4
 8000436:	f200 80b8 	bhi.w	80005aa <__udivmoddi4+0x2ca>
 800043a:	4618      	mov	r0, r3
 800043c:	eba4 040c 	sub.w	r4, r4, ip
 8000440:	ea40 4008 	orr.w	r0, r0, r8, lsl #16
 8000444:	e79d      	b.n	8000382 <__udivmoddi4+0xa2>
 8000446:	4631      	mov	r1, r6
 8000448:	4630      	mov	r0, r6
 800044a:	e8bd 87f0 	ldmia.w	sp!, {r4, r5, r6, r7, r8, r9, sl, pc}
 800044e:	f1ce 0420 	rsb	r4, lr, #32
 8000452:	fa05 f30e 	lsl.w	r3, r5, lr
 8000456:	fa07 f70e 	lsl.w	r7, r7, lr
 800045a:	fa20 f804 	lsr.w	r8, r0, r4
 800045e:	0c3a      	lsrs	r2, r7, #16
 8000460:	fa25 f404 	lsr.w	r4, r5, r4
 8000464:	ea48 0803 	orr.w	r8, r8, r3
 8000468:	fbb4 f1f2 	udiv	r1, r4, r2
 800046c:	ea4f 4518 	mov.w	r5, r8, lsr #16
 8000470:	fb02 4411 	mls	r4, r2, r1, r4
 8000474:	fa1f fc87 	uxth.w	ip, r7
 8000478:	ea45 4504 	orr.w	r5, r5, r4, lsl #16
 800047c:	fb01 f30c 	mul.w	r3, r1, ip
 8000480:	42ab      	cmp	r3, r5
 8000482:	fa00 f40e 	lsl.w	r4, r0, lr
 8000486:	d909      	bls.n	800049c <__udivmoddi4+0x1bc>
 8000488:	19ed      	adds	r5, r5, r7
 800048a:	f101 30ff 	add.w	r0, r1, #4294967295
 800048e:	f080 808a 	bcs.w	80005a6 <__udivmoddi4+0x2c6>
 8000492:	42ab      	cmp	r3, r5
 8000494:	f240 8087 	bls.w	80005a6 <__udivmoddi4+0x2c6>
 8000498:	3902      	subs	r1, #2
 800049a:	443d      	add	r5, r7
 800049c:	1aeb      	subs	r3, r5, r3
 800049e:	fa1f f588 	uxth.w	r5, r8
 80004a2:	fbb3 f0f2 	udiv	r0, r3, r2
 80004a6:	fb02 3310 	mls	r3, r2, r0, r3
 80004aa:	ea45 4503 	orr.w	r5, r5, r3, lsl #16
 80004ae:	fb00 f30c 	mul.w	r3, r0, ip
 80004b2:	42ab      	cmp	r3, r5
 80004b4:	d907      	bls.n	80004c6 <__udivmoddi4+0x1e6>
 80004b6:	19ed      	adds	r5, r5, r7
 80004b8:	f100 38ff 	add.w	r8, r0, #4294967295
 80004bc:	d26f      	bcs.n	800059e <__udivmoddi4+0x2be>
 80004be:	42ab      	cmp	r3, r5
 80004c0:	d96d      	bls.n	800059e <__udivmoddi4+0x2be>
 80004c2:	3802      	subs	r0, #2
 80004c4:	443d      	add	r5, r7
 80004c6:	1aeb      	subs	r3, r5, r3
 80004c8:	ea40 4101 	orr.w	r1, r0, r1, lsl #16
 80004cc:	e78f      	b.n	80003ee <__udivmoddi4+0x10e>
 80004ce:	f1c1 0720 	rsb	r7, r1, #32
 80004d2:	fa22 f807 	lsr.w	r8, r2, r7
 80004d6:	408b      	lsls	r3, r1
 80004d8:	fa05 f401 	lsl.w	r4, r5, r1
 80004dc:	ea48 0303 	orr.w	r3, r8, r3
 80004e0:	fa20 fe07 	lsr.w	lr, r0, r7
 80004e4:	ea4f 4c13 	mov.w	ip, r3, lsr #16
 80004e8:	40fd      	lsrs	r5, r7
 80004ea:	ea4e 0e04 	orr.w	lr, lr, r4
 80004ee:	fbb5 f9fc 	udiv	r9, r5, ip
 80004f2:	ea4f 441e 	mov.w	r4, lr, lsr #16
 80004f6:	fb0c 5519 	mls	r5, ip, r9, r5
 80004fa:	fa1f f883 	uxth.w	r8, r3
 80004fe:	ea44 4505 	orr.w	r5, r4, r5, lsl #16
 8000502:	fb09 f408 	mul.w	r4, r9, r8
 8000506:	42ac      	cmp	r4, r5
 8000508:	fa02 f201 	lsl.w	r2, r2, r1
 800050c:	fa00 fa01 	lsl.w	sl, r0, r1
 8000510:	d908      	bls.n	8000524 <__udivmoddi4+0x244>
 8000512:	18ed      	adds	r5, r5, r3
 8000514:	f109 30ff 	add.w	r0, r9, #4294967295
 8000518:	d243      	bcs.n	80005a2 <__udivmoddi4+0x2c2>
 800051a:	42ac      	cmp	r4, r5
 800051c:	d941      	bls.n	80005a2 <__udivmoddi4+0x2c2>
 800051e:	f1a9 0902 	sub.w	r9, r9, #2
 8000522:	441d      	add	r5, r3
 8000524:	1b2d      	subs	r5, r5, r4
 8000526:	fa1f fe8e 	uxth.w	lr, lr
 800052a:	fbb5 f0fc 	udiv	r0, r5, ip
 800052e:	fb0c 5510 	mls	r5, ip, r0, r5
 8000532:	ea4e 4405 	orr.w	r4, lr, r5, lsl #16
 8000536:	fb00 f808 	mul.w	r8, r0, r8
 800053a:	45a0      	cmp	r8, r4
 800053c:	d907      	bls.n	800054e <__udivmoddi4+0x26e>
 800053e:	18e4      	adds	r4, r4, r3
 8000540:	f100 35ff 	add.w	r5, r0, #4294967295
 8000544:	d229      	bcs.n	800059a <__udivmoddi4+0x2ba>
 8000546:	45a0      	cmp	r8, r4
 8000548:	d927      	bls.n	800059a <__udivmoddi4+0x2ba>
 800054a:	3802      	subs	r0, #2
 800054c:	441c      	add	r4, r3
 800054e:	ea40 4009 	orr.w	r0, r0, r9, lsl #16
 8000552:	eba4 0408 	sub.w	r4, r4, r8
 8000556:	fba0 8902 	umull	r8, r9, r0, r2
 800055a:	454c      	cmp	r4, r9
 800055c:	46c6      	mov	lr, r8
 800055e:	464d      	mov	r5, r9
 8000560:	d315      	bcc.n	800058e <__udivmoddi4+0x2ae>
 8000562:	d012      	beq.n	800058a <__udivmoddi4+0x2aa>
 8000564:	b156      	cbz	r6, 800057c <__udivmoddi4+0x29c>
 8000566:	ebba 030e 	subs.w	r3, sl, lr
 800056a:	eb64 0405 	sbc.w	r4, r4, r5
 800056e:	fa04 f707 	lsl.w	r7, r4, r7
 8000572:	40cb      	lsrs	r3, r1
 8000574:	431f      	orrs	r7, r3
 8000576:	40cc      	lsrs	r4, r1
 8000578:	6037      	str	r7, [r6, #0]
 800057a:	6074      	str	r4, [r6, #4]
 800057c:	2100      	movs	r1, #0
 800057e:	e8bd 87f0 	ldmia.w	sp!, {r4, r5, r6, r7, r8, r9, sl, pc}
 8000582:	4618      	mov	r0, r3
 8000584:	e6f8      	b.n	8000378 <__udivmoddi4+0x98>
 8000586:	4690      	mov	r8, r2
 8000588:	e6e0      	b.n	800034c <__udivmoddi4+0x6c>
 800058a:	45c2      	cmp	sl, r8
 800058c:	d2ea      	bcs.n	8000564 <__udivmoddi4+0x284>
 800058e:	ebb8 0e02 	subs.w	lr, r8, r2
 8000592:	eb69 0503 	sbc.w	r5, r9, r3
 8000596:	3801      	subs	r0, #1
 8000598:	e7e4      	b.n	8000564 <__udivmoddi4+0x284>
 800059a:	4628      	mov	r0, r5
 800059c:	e7d7      	b.n	800054e <__udivmoddi4+0x26e>
 800059e:	4640      	mov	r0, r8
 80005a0:	e791      	b.n	80004c6 <__udivmoddi4+0x1e6>
 80005a2:	4681      	mov	r9, r0
 80005a4:	e7be      	b.n	8000524 <__udivmoddi4+0x244>
 80005a6:	4601      	mov	r1, r0
 80005a8:	e778      	b.n	800049c <__udivmoddi4+0x1bc>
 80005aa:	3802      	subs	r0, #2
 80005ac:	443c      	add	r4, r7
 80005ae:	e745      	b.n	800043c <__udivmoddi4+0x15c>
 80005b0:	4608      	mov	r0, r1
 80005b2:	e708      	b.n	80003c6 <__udivmoddi4+0xe6>
 80005b4:	f1a8 0802 	sub.w	r8, r8, #2
 80005b8:	443d      	add	r5, r7
 80005ba:	e72b      	b.n	8000414 <__udivmoddi4+0x134>

080005bc <__aeabi_idiv0>:
 80005bc:	4770      	bx	lr
 80005be:	bf00      	nop

080005c0 <HAL_Init>:
 80005c0:	b508      	push	{r3, lr}
 80005c2:	2003      	movs	r0, #3
 80005c4:	f000 f82c 	bl	8000620 <HAL_NVIC_SetPriorityGrouping>
 80005c8:	2000      	movs	r0, #0
 80005ca:	f00a fd7f 	bl	800b0cc <HAL_InitTick>
 80005ce:	f00a fd11 	bl	800aff4 <HAL_MspInit>
 80005d2:	2000      	movs	r0, #0
 80005d4:	bd08      	pop	{r3, pc}
	...

080005d8 <HAL_IncTick>:
 80005d8:	4a03      	ldr	r2, [pc, #12]	; (80005e8 <HAL_IncTick+0x10>)
 80005da:	4b04      	ldr	r3, [pc, #16]	; (80005ec <HAL_IncTick+0x14>)
 80005dc:	6811      	ldr	r1, [r2, #0]
 80005de:	781b      	ldrb	r3, [r3, #0]
 80005e0:	440b      	add	r3, r1
 80005e2:	6013      	str	r3, [r2, #0]
 80005e4:	4770      	bx	lr
 80005e6:	bf00      	nop
 80005e8:	200040e8 	.word	0x200040e8
 80005ec:	20000000 	.word	0x20000000

080005f0 <HAL_GetTick>:
 80005f0:	4b01      	ldr	r3, [pc, #4]	; (80005f8 <HAL_GetTick+0x8>)
 80005f2:	6818      	ldr	r0, [r3, #0]
 80005f4:	4770      	bx	lr
 80005f6:	bf00      	nop
 80005f8:	200040e8 	.word	0x200040e8

080005fc <HAL_Delay>:
 80005fc:	b538      	push	{r3, r4, r5, lr}
 80005fe:	4604      	mov	r4, r0
 8000600:	f7ff fff6 	bl	80005f0 <HAL_GetTick>
 8000604:	4605      	mov	r5, r0
 8000606:	1c63      	adds	r3, r4, #1
 8000608:	bf1e      	ittt	ne
 800060a:	4b04      	ldrne	r3, [pc, #16]	; (800061c <HAL_Delay+0x20>)
 800060c:	781b      	ldrbne	r3, [r3, #0]
 800060e:	18e4      	addne	r4, r4, r3
 8000610:	f7ff ffee 	bl	80005f0 <HAL_GetTick>
 8000614:	1b40      	subs	r0, r0, r5
 8000616:	4284      	cmp	r4, r0
 8000618:	d8fa      	bhi.n	8000610 <HAL_Delay+0x14>
 800061a:	bd38      	pop	{r3, r4, r5, pc}
 800061c:	20000000 	.word	0x20000000

08000620 <HAL_NVIC_SetPriorityGrouping>:
 8000620:	4a07      	ldr	r2, [pc, #28]	; (8000640 <HAL_NVIC_SetPriorityGrouping+0x20>)
 8000622:	0200      	lsls	r0, r0, #8
 8000624:	68d3      	ldr	r3, [r2, #12]
 8000626:	f400 60e0 	and.w	r0, r0, #1792	; 0x700
 800062a:	f423 63e0 	bic.w	r3, r3, #1792	; 0x700
 800062e:	041b      	lsls	r3, r3, #16
 8000630:	0c1b      	lsrs	r3, r3, #16
 8000632:	f043 63bf 	orr.w	r3, r3, #100139008	; 0x5f80000
 8000636:	f443 3300 	orr.w	r3, r3, #131072	; 0x20000
 800063a:	4303      	orrs	r3, r0
 800063c:	60d3      	str	r3, [r2, #12]
 800063e:	4770      	bx	lr
 8000640:	e000ed00 	.word	0xe000ed00

08000644 <HAL_NVIC_SetPriority>:
 8000644:	4b19      	ldr	r3, [pc, #100]	; (80006ac <HAL_NVIC_SetPriority+0x68>)
 8000646:	b530      	push	{r4, r5, lr}
 8000648:	68dc      	ldr	r4, [r3, #12]
 800064a:	f3c4 2402 	ubfx	r4, r4, #8, #3
 800064e:	f1c4 0307 	rsb	r3, r4, #7
 8000652:	1d25      	adds	r5, r4, #4
 8000654:	2b04      	cmp	r3, #4
 8000656:	bf28      	it	cs
 8000658:	2304      	movcs	r3, #4
 800065a:	2d06      	cmp	r5, #6
 800065c:	f04f 0501 	mov.w	r5, #1
 8000660:	bf8c      	ite	hi
 8000662:	3c03      	subhi	r4, #3
 8000664:	2400      	movls	r4, #0
 8000666:	fa05 f303 	lsl.w	r3, r5, r3
 800066a:	2800      	cmp	r0, #0
 800066c:	f103 33ff 	add.w	r3, r3, #4294967295
 8000670:	ea01 0103 	and.w	r1, r1, r3
 8000674:	fa01 f104 	lsl.w	r1, r1, r4
 8000678:	fa05 f404 	lsl.w	r4, r5, r4
 800067c:	f104 34ff 	add.w	r4, r4, #4294967295
 8000680:	ea02 0204 	and.w	r2, r2, r4
 8000684:	ea42 0201 	orr.w	r2, r2, r1
 8000688:	ea4f 1202 	mov.w	r2, r2, lsl #4
 800068c:	da05      	bge.n	800069a <HAL_NVIC_SetPriority+0x56>
 800068e:	f000 000f 	and.w	r0, r0, #15
 8000692:	b2d2      	uxtb	r2, r2
 8000694:	4b06      	ldr	r3, [pc, #24]	; (80006b0 <HAL_NVIC_SetPriority+0x6c>)
 8000696:	541a      	strb	r2, [r3, r0]
 8000698:	bd30      	pop	{r4, r5, pc}
 800069a:	f100 4060 	add.w	r0, r0, #3758096384	; 0xe0000000
 800069e:	b2d2      	uxtb	r2, r2
 80006a0:	f500 4061 	add.w	r0, r0, #57600	; 0xe100
 80006a4:	f880 2300 	strb.w	r2, [r0, #768]	; 0x300
 80006a8:	bd30      	pop	{r4, r5, pc}
 80006aa:	bf00      	nop
 80006ac:	e000ed00 	.word	0xe000ed00
 80006b0:	e000ed14 	.word	0xe000ed14

080006b4 <HAL_NVIC_EnableIRQ>:
 80006b4:	0942      	lsrs	r2, r0, #5
 80006b6:	2301      	movs	r3, #1
 80006b8:	f000 001f 	and.w	r0, r0, #31
 80006bc:	fa03 f000 	lsl.w	r0, r3, r0
 80006c0:	4b01      	ldr	r3, [pc, #4]	; (80006c8 <HAL_NVIC_EnableIRQ+0x14>)
 80006c2:	f843 0022 	str.w	r0, [r3, r2, lsl #2]
 80006c6:	4770      	bx	lr
 80006c8:	e000e100 	.word	0xe000e100

080006cc <HAL_SYSTICK_Config>:
 80006cc:	3801      	subs	r0, #1
 80006ce:	f1b0 7f80 	cmp.w	r0, #16777216	; 0x1000000
 80006d2:	d20a      	bcs.n	80006ea <HAL_SYSTICK_Config+0x1e>
 80006d4:	4b06      	ldr	r3, [pc, #24]	; (80006f0 <HAL_SYSTICK_Config+0x24>)
 80006d6:	21f0      	movs	r1, #240	; 0xf0
 80006d8:	4a06      	ldr	r2, [pc, #24]	; (80006f4 <HAL_SYSTICK_Config+0x28>)
 80006da:	6058      	str	r0, [r3, #4]
 80006dc:	2000      	movs	r0, #0
 80006de:	f882 1023 	strb.w	r1, [r2, #35]	; 0x23
 80006e2:	2207      	movs	r2, #7
 80006e4:	6098      	str	r0, [r3, #8]
 80006e6:	601a      	str	r2, [r3, #0]
 80006e8:	4770      	bx	lr
 80006ea:	2001      	movs	r0, #1
 80006ec:	4770      	bx	lr
 80006ee:	bf00      	nop
 80006f0:	e000e010 	.word	0xe000e010
 80006f4:	e000ed00 	.word	0xe000ed00

080006f8 <HAL_SYSTICK_CLKSourceConfig>:
 80006f8:	4b04      	ldr	r3, [pc, #16]	; (800070c <HAL_SYSTICK_CLKSourceConfig+0x14>)
 80006fa:	2804      	cmp	r0, #4
 80006fc:	681a      	ldr	r2, [r3, #0]
 80006fe:	bf0c      	ite	eq
 8000700:	f042 0204 	orreq.w	r2, r2, #4
 8000704:	f022 0204 	bicne.w	r2, r2, #4
 8000708:	601a      	str	r2, [r3, #0]
 800070a:	4770      	bx	lr
 800070c:	e000e010 	.word	0xe000e010

08000710 <ETH_FlushTransmitFIFO>:
 8000710:	2300      	movs	r3, #0
 8000712:	b537      	push	{r0, r1, r2, r4, r5, lr}
 8000714:	f241 0418 	movw	r4, #4120	; 0x1018
 8000718:	9301      	str	r3, [sp, #4]
 800071a:	6803      	ldr	r3, [r0, #0]
 800071c:	4605      	mov	r5, r0
 800071e:	2001      	movs	r0, #1
 8000720:	591a      	ldr	r2, [r3, r4]
 8000722:	f442 1280 	orr.w	r2, r2, #1048576	; 0x100000
 8000726:	511a      	str	r2, [r3, r4]
 8000728:	591b      	ldr	r3, [r3, r4]
 800072a:	9301      	str	r3, [sp, #4]
 800072c:	f7ff ff66 	bl	80005fc <HAL_Delay>
 8000730:	682b      	ldr	r3, [r5, #0]
 8000732:	9a01      	ldr	r2, [sp, #4]
 8000734:	511a      	str	r2, [r3, r4]
 8000736:	b003      	add	sp, #12
 8000738:	bd30      	pop	{r4, r5, pc}
	...

0800073c <ETH_MACDMAConfig>:
 800073c:	b570      	push	{r4, r5, r6, lr}
 800073e:	4604      	mov	r4, r0
 8000740:	b129      	cbz	r1, 800074e <ETH_MACDMAConfig+0x12>
 8000742:	f44f 6300 	mov.w	r3, #2048	; 0x800
 8000746:	60c3      	str	r3, [r0, #12]
 8000748:	f44f 4380 	mov.w	r3, #16384	; 0x4000
 800074c:	6083      	str	r3, [r0, #8]
 800074e:	69e3      	ldr	r3, [r4, #28]
 8000750:	6822      	ldr	r2, [r4, #0]
 8000752:	2b00      	cmp	r3, #0
 8000754:	68e0      	ldr	r0, [r4, #12]
 8000756:	68a3      	ldr	r3, [r4, #8]
 8000758:	6815      	ldr	r5, [r2, #0]
 800075a:	bf08      	it	eq
 800075c:	f44f 6180 	moveq.w	r1, #1024	; 0x400
 8000760:	ea43 0300 	orr.w	r3, r3, r0
 8000764:	482e      	ldr	r0, [pc, #184]	; (8000820 <ETH_MACDMAConfig+0xe4>)
 8000766:	bf18      	it	ne
 8000768:	2100      	movne	r1, #0
 800076a:	4028      	ands	r0, r5
 800076c:	f443 7300 	orr.w	r3, r3, #512	; 0x200
 8000770:	4303      	orrs	r3, r0
 8000772:	2001      	movs	r0, #1
 8000774:	430b      	orrs	r3, r1
 8000776:	6013      	str	r3, [r2, #0]
 8000778:	6815      	ldr	r5, [r2, #0]
 800077a:	f7ff ff3f 	bl	80005fc <HAL_Delay>
 800077e:	6823      	ldr	r3, [r4, #0]
 8000780:	2240      	movs	r2, #64	; 0x40
 8000782:	2001      	movs	r0, #1
 8000784:	601d      	str	r5, [r3, #0]
 8000786:	605a      	str	r2, [r3, #4]
 8000788:	685d      	ldr	r5, [r3, #4]
 800078a:	f7ff ff37 	bl	80005fc <HAL_Delay>
 800078e:	6823      	ldr	r3, [r4, #0]
 8000790:	2001      	movs	r0, #1
 8000792:	605d      	str	r5, [r3, #4]
 8000794:	2500      	movs	r5, #0
 8000796:	609d      	str	r5, [r3, #8]
 8000798:	60dd      	str	r5, [r3, #12]
 800079a:	699a      	ldr	r2, [r3, #24]
 800079c:	f022 02be 	bic.w	r2, r2, #190	; 0xbe
 80007a0:	0412      	lsls	r2, r2, #16
 80007a2:	0c12      	lsrs	r2, r2, #16
 80007a4:	f042 0280 	orr.w	r2, r2, #128	; 0x80
 80007a8:	619a      	str	r2, [r3, #24]
 80007aa:	699e      	ldr	r6, [r3, #24]
 80007ac:	f7ff ff26 	bl	80005fc <HAL_Delay>
 80007b0:	6823      	ldr	r3, [r4, #0]
 80007b2:	2001      	movs	r0, #1
 80007b4:	619e      	str	r6, [r3, #24]
 80007b6:	61dd      	str	r5, [r3, #28]
 80007b8:	69dd      	ldr	r5, [r3, #28]
 80007ba:	f7ff ff1f 	bl	80005fc <HAL_Delay>
 80007be:	6822      	ldr	r2, [r4, #0]
 80007c0:	2001      	movs	r0, #1
 80007c2:	4b18      	ldr	r3, [pc, #96]	; (8000824 <ETH_MACDMAConfig+0xe8>)
 80007c4:	61d5      	str	r5, [r2, #28]
 80007c6:	f241 0518 	movw	r5, #4120	; 0x1018
 80007ca:	5951      	ldr	r1, [r2, r5]
 80007cc:	400b      	ands	r3, r1
 80007ce:	f043 7308 	orr.w	r3, r3, #35651584	; 0x2200000
 80007d2:	f043 0304 	orr.w	r3, r3, #4
 80007d6:	5153      	str	r3, [r2, r5]
 80007d8:	5956      	ldr	r6, [r2, r5]
 80007da:	f7ff ff0f 	bl	80005fc <HAL_Delay>
 80007de:	6823      	ldr	r3, [r4, #0]
 80007e0:	2001      	movs	r0, #1
 80007e2:	4a11      	ldr	r2, [pc, #68]	; (8000828 <ETH_MACDMAConfig+0xec>)
 80007e4:	515e      	str	r6, [r3, r5]
 80007e6:	f503 5380 	add.w	r3, r3, #4096	; 0x1000
 80007ea:	601a      	str	r2, [r3, #0]
 80007ec:	681d      	ldr	r5, [r3, #0]
 80007ee:	f7ff ff05 	bl	80005fc <HAL_Delay>
 80007f2:	6822      	ldr	r2, [r4, #0]
 80007f4:	f502 5380 	add.w	r3, r2, #4096	; 0x1000
 80007f8:	601d      	str	r5, [r3, #0]
 80007fa:	69a3      	ldr	r3, [r4, #24]
 80007fc:	2b01      	cmp	r3, #1
 80007fe:	d107      	bne.n	8000810 <ETH_MACDMAConfig+0xd4>
 8000800:	f241 011c 	movw	r1, #4124	; 0x101c
 8000804:	5853      	ldr	r3, [r2, r1]
 8000806:	f443 3380 	orr.w	r3, r3, #65536	; 0x10000
 800080a:	f043 0340 	orr.w	r3, r3, #64	; 0x40
 800080e:	5053      	str	r3, [r2, r1]
 8000810:	6963      	ldr	r3, [r4, #20]
 8000812:	4a06      	ldr	r2, [pc, #24]	; (800082c <ETH_MACDMAConfig+0xf0>)
 8000814:	8899      	ldrh	r1, [r3, #4]
 8000816:	6011      	str	r1, [r2, #0]
 8000818:	681a      	ldr	r2, [r3, #0]
 800081a:	4b05      	ldr	r3, [pc, #20]	; (8000830 <ETH_MACDMAConfig+0xf4>)
 800081c:	601a      	str	r2, [r3, #0]
 800081e:	bd70      	pop	{r4, r5, r6, pc}
 8000820:	ff20810f 	.word	0xff20810f
 8000824:	f8de3f23 	.word	0xf8de3f23
 8000828:	02c12080 	.word	0x02c12080
 800082c:	40028040 	.word	0x40028040
 8000830:	40028044 	.word	0x40028044

08000834 <HAL_ETH_DMATxDescListInit>:
 8000834:	b5f0      	push	{r4, r5, r6, r7, lr}
 8000836:	f890 4045 	ldrb.w	r4, [r0, #69]	; 0x45
 800083a:	2c01      	cmp	r4, #1
 800083c:	f04f 0402 	mov.w	r4, #2
 8000840:	d033      	beq.n	80008aa <HAL_ETH_DMATxDescListInit+0x76>
 8000842:	2501      	movs	r5, #1
 8000844:	f880 4044 	strb.w	r4, [r0, #68]	; 0x44
 8000848:	f44f 1780 	mov.w	r7, #1048576	; 0x100000
 800084c:	f101 0420 	add.w	r4, r1, #32
 8000850:	f880 5045 	strb.w	r5, [r0, #69]	; 0x45
 8000854:	f240 5ef4 	movw	lr, #1524	; 0x5f4
 8000858:	2500      	movs	r5, #0
 800085a:	f103 3cff 	add.w	ip, r3, #4294967295
 800085e:	62c1      	str	r1, [r0, #44]	; 0x2c
 8000860:	429d      	cmp	r5, r3
 8000862:	d10b      	bne.n	800087c <HAL_ETH_DMATxDescListInit+0x48>
 8000864:	6802      	ldr	r2, [r0, #0]
 8000866:	f241 0310 	movw	r3, #4112	; 0x1010
 800086a:	50d1      	str	r1, [r2, r3]
 800086c:	2301      	movs	r3, #1
 800086e:	f880 3044 	strb.w	r3, [r0, #68]	; 0x44
 8000872:	2300      	movs	r3, #0
 8000874:	f880 3045 	strb.w	r3, [r0, #69]	; 0x45
 8000878:	4618      	mov	r0, r3
 800087a:	bdf0      	pop	{r4, r5, r6, r7, pc}
 800087c:	fb0e 2605 	mla	r6, lr, r5, r2
 8000880:	f844 7c20 	str.w	r7, [r4, #-32]
 8000884:	f844 6c18 	str.w	r6, [r4, #-24]
 8000888:	69c6      	ldr	r6, [r0, #28]
 800088a:	b92e      	cbnz	r6, 8000898 <HAL_ETH_DMATxDescListInit+0x64>
 800088c:	f854 6c20 	ldr.w	r6, [r4, #-32]
 8000890:	f446 0640 	orr.w	r6, r6, #12582912	; 0xc00000
 8000894:	f844 6c20 	str.w	r6, [r4, #-32]
 8000898:	4565      	cmp	r5, ip
 800089a:	bf2c      	ite	cs
 800089c:	460e      	movcs	r6, r1
 800089e:	4626      	movcc	r6, r4
 80008a0:	3501      	adds	r5, #1
 80008a2:	3420      	adds	r4, #32
 80008a4:	f844 6c34 	str.w	r6, [r4, #-52]
 80008a8:	e7da      	b.n	8000860 <HAL_ETH_DMATxDescListInit+0x2c>
 80008aa:	4620      	mov	r0, r4
 80008ac:	bdf0      	pop	{r4, r5, r6, r7, pc}

080008ae <HAL_ETH_DMARxDescListInit>:
 80008ae:	e92d 41f0 	stmdb	sp!, {r4, r5, r6, r7, r8, lr}
 80008b2:	f890 4045 	ldrb.w	r4, [r0, #69]	; 0x45
 80008b6:	2c01      	cmp	r4, #1
 80008b8:	f04f 0402 	mov.w	r4, #2
 80008bc:	d030      	beq.n	8000920 <HAL_ETH_DMARxDescListInit+0x72>
 80008be:	2501      	movs	r5, #1
 80008c0:	f880 4044 	strb.w	r4, [r0, #68]	; 0x44
 80008c4:	f04f 4600 	mov.w	r6, #2147483648	; 0x80000000
 80008c8:	f101 0420 	add.w	r4, r1, #32
 80008cc:	f880 5045 	strb.w	r5, [r0, #69]	; 0x45
 80008d0:	f244 57f4 	movw	r7, #17908	; 0x45f4
 80008d4:	2500      	movs	r5, #0
 80008d6:	f240 5ef4 	movw	lr, #1524	; 0x5f4
 80008da:	f103 3cff 	add.w	ip, r3, #4294967295
 80008de:	6281      	str	r1, [r0, #40]	; 0x28
 80008e0:	429d      	cmp	r5, r3
 80008e2:	d10c      	bne.n	80008fe <HAL_ETH_DMARxDescListInit+0x50>
 80008e4:	6802      	ldr	r2, [r0, #0]
 80008e6:	f241 030c 	movw	r3, #4108	; 0x100c
 80008ea:	50d1      	str	r1, [r2, r3]
 80008ec:	2301      	movs	r3, #1
 80008ee:	f880 3044 	strb.w	r3, [r0, #68]	; 0x44
 80008f2:	2300      	movs	r3, #0
 80008f4:	f880 3045 	strb.w	r3, [r0, #69]	; 0x45
 80008f8:	4618      	mov	r0, r3
 80008fa:	e8bd 81f0 	ldmia.w	sp!, {r4, r5, r6, r7, r8, pc}
 80008fe:	fb0e 2805 	mla	r8, lr, r5, r2
 8000902:	f844 6c20 	str.w	r6, [r4, #-32]
 8000906:	f844 8c18 	str.w	r8, [r4, #-24]
 800090a:	4565      	cmp	r5, ip
 800090c:	bf2c      	ite	cs
 800090e:	4688      	movcs	r8, r1
 8000910:	46a0      	movcc	r8, r4
 8000912:	f844 7c1c 	str.w	r7, [r4, #-28]
 8000916:	3501      	adds	r5, #1
 8000918:	f844 8c14 	str.w	r8, [r4, #-20]
 800091c:	3420      	adds	r4, #32
 800091e:	e7df      	b.n	80008e0 <HAL_ETH_DMARxDescListInit+0x32>
 8000920:	4620      	mov	r0, r4
 8000922:	e8bd 81f0 	ldmia.w	sp!, {r4, r5, r6, r7, r8, pc}
	...

08000928 <HAL_ETH_TransmitFrame>:
 8000928:	f890 3045 	ldrb.w	r3, [r0, #69]	; 0x45
 800092c:	2b01      	cmp	r3, #1
 800092e:	f04f 0302 	mov.w	r3, #2
 8000932:	b5f0      	push	{r4, r5, r6, r7, lr}
 8000934:	d066      	beq.n	8000a04 <HAL_ETH_TransmitFrame+0xdc>
 8000936:	2201      	movs	r2, #1
 8000938:	f880 3044 	strb.w	r3, [r0, #68]	; 0x44
 800093c:	f880 2045 	strb.w	r2, [r0, #69]	; 0x45
 8000940:	b929      	cbnz	r1, 800094e <HAL_ETH_TransmitFrame+0x26>
 8000942:	f880 2044 	strb.w	r2, [r0, #68]	; 0x44
 8000946:	f880 1045 	strb.w	r1, [r0, #69]	; 0x45
 800094a:	4610      	mov	r0, r2
 800094c:	bdf0      	pop	{r4, r5, r6, r7, pc}
 800094e:	6ac3      	ldr	r3, [r0, #44]	; 0x2c
 8000950:	681c      	ldr	r4, [r3, #0]
 8000952:	2c00      	cmp	r4, #0
 8000954:	da06      	bge.n	8000964 <HAL_ETH_TransmitFrame+0x3c>
 8000956:	2312      	movs	r3, #18
 8000958:	f880 3044 	strb.w	r3, [r0, #68]	; 0x44
 800095c:	2300      	movs	r3, #0
 800095e:	f880 3045 	strb.w	r3, [r0, #69]	; 0x45
 8000962:	e7f2      	b.n	800094a <HAL_ETH_TransmitFrame+0x22>
 8000964:	f240 54f4 	movw	r4, #1524	; 0x5f4
 8000968:	42a1      	cmp	r1, r4
 800096a:	d92c      	bls.n	80009c6 <HAL_ETH_TransmitFrame+0x9e>
 800096c:	fbb1 f2f4 	udiv	r2, r1, r4
 8000970:	fb04 1412 	mls	r4, r4, r2, r1
 8000974:	b32c      	cbz	r4, 80009c2 <HAL_ETH_TransmitFrame+0x9a>
 8000976:	3201      	adds	r2, #1
 8000978:	4c23      	ldr	r4, [pc, #140]	; (8000a08 <HAL_ETH_TransmitFrame+0xe0>)
 800097a:	f201 51f4 	addw	r1, r1, #1524	; 0x5f4
 800097e:	f240 56f4 	movw	r6, #1524	; 0x5f4
 8000982:	1e57      	subs	r7, r2, #1
 8000984:	fb04 1102 	mla	r1, r4, r2, r1
 8000988:	2400      	movs	r4, #0
 800098a:	f3c1 010c 	ubfx	r1, r1, #0, #13
 800098e:	681d      	ldr	r5, [r3, #0]
 8000990:	f025 5540 	bic.w	r5, r5, #805306368	; 0x30000000
 8000994:	601d      	str	r5, [r3, #0]
 8000996:	b91c      	cbnz	r4, 80009a0 <HAL_ETH_TransmitFrame+0x78>
 8000998:	681d      	ldr	r5, [r3, #0]
 800099a:	f045 5580 	orr.w	r5, r5, #268435456	; 0x10000000
 800099e:	601d      	str	r5, [r3, #0]
 80009a0:	42a7      	cmp	r7, r4
 80009a2:	605e      	str	r6, [r3, #4]
 80009a4:	d104      	bne.n	80009b0 <HAL_ETH_TransmitFrame+0x88>
 80009a6:	681d      	ldr	r5, [r3, #0]
 80009a8:	6059      	str	r1, [r3, #4]
 80009aa:	f045 5500 	orr.w	r5, r5, #536870912	; 0x20000000
 80009ae:	601d      	str	r5, [r3, #0]
 80009b0:	681d      	ldr	r5, [r3, #0]
 80009b2:	3401      	adds	r4, #1
 80009b4:	f045 4500 	orr.w	r5, r5, #2147483648	; 0x80000000
 80009b8:	4294      	cmp	r4, r2
 80009ba:	601d      	str	r5, [r3, #0]
 80009bc:	68db      	ldr	r3, [r3, #12]
 80009be:	d1e6      	bne.n	800098e <HAL_ETH_TransmitFrame+0x66>
 80009c0:	e00d      	b.n	80009de <HAL_ETH_TransmitFrame+0xb6>
 80009c2:	2a01      	cmp	r2, #1
 80009c4:	d1d8      	bne.n	8000978 <HAL_ETH_TransmitFrame+0x50>
 80009c6:	681a      	ldr	r2, [r3, #0]
 80009c8:	f3c1 010c 	ubfx	r1, r1, #0, #13
 80009cc:	f042 5240 	orr.w	r2, r2, #805306368	; 0x30000000
 80009d0:	6059      	str	r1, [r3, #4]
 80009d2:	601a      	str	r2, [r3, #0]
 80009d4:	681a      	ldr	r2, [r3, #0]
 80009d6:	f042 4200 	orr.w	r2, r2, #2147483648	; 0x80000000
 80009da:	601a      	str	r2, [r3, #0]
 80009dc:	68db      	ldr	r3, [r3, #12]
 80009de:	62c3      	str	r3, [r0, #44]	; 0x2c
 80009e0:	f241 0214 	movw	r2, #4116	; 0x1014
 80009e4:	6803      	ldr	r3, [r0, #0]
 80009e6:	5899      	ldr	r1, [r3, r2]
 80009e8:	0749      	lsls	r1, r1, #29
 80009ea:	d505      	bpl.n	80009f8 <HAL_ETH_TransmitFrame+0xd0>
 80009ec:	2104      	movs	r1, #4
 80009ee:	5099      	str	r1, [r3, r2]
 80009f0:	2100      	movs	r1, #0
 80009f2:	f241 0204 	movw	r2, #4100	; 0x1004
 80009f6:	5099      	str	r1, [r3, r2]
 80009f8:	2301      	movs	r3, #1
 80009fa:	f880 3044 	strb.w	r3, [r0, #68]	; 0x44
 80009fe:	2300      	movs	r3, #0
 8000a00:	f880 3045 	strb.w	r3, [r0, #69]	; 0x45
 8000a04:	4618      	mov	r0, r3
 8000a06:	bdf0      	pop	{r4, r5, r6, r7, pc}
 8000a08:	fffffa0c 	.word	0xfffffa0c

08000a0c <HAL_ETH_GetReceivedFrame_IT>:
 8000a0c:	f890 3045 	ldrb.w	r3, [r0, #69]	; 0x45
 8000a10:	2b01      	cmp	r3, #1
 8000a12:	f04f 0302 	mov.w	r3, #2
 8000a16:	b530      	push	{r4, r5, lr}
 8000a18:	d03b      	beq.n	8000a92 <HAL_ETH_GetReceivedFrame_IT+0x86>
 8000a1a:	2201      	movs	r2, #1
 8000a1c:	2405      	movs	r4, #5
 8000a1e:	f880 3044 	strb.w	r3, [r0, #68]	; 0x44
 8000a22:	4611      	mov	r1, r2
 8000a24:	f880 2045 	strb.w	r2, [r0, #69]	; 0x45
 8000a28:	6a83      	ldr	r3, [r0, #40]	; 0x28
 8000a2a:	681a      	ldr	r2, [r3, #0]
 8000a2c:	2a00      	cmp	r2, #0
 8000a2e:	db01      	blt.n	8000a34 <HAL_ETH_GetReceivedFrame_IT+0x28>
 8000a30:	3c01      	subs	r4, #1
 8000a32:	d106      	bne.n	8000a42 <HAL_ETH_GetReceivedFrame_IT+0x36>
 8000a34:	2301      	movs	r3, #1
 8000a36:	2200      	movs	r2, #0
 8000a38:	f880 3044 	strb.w	r3, [r0, #68]	; 0x44
 8000a3c:	f880 2045 	strb.w	r2, [r0, #69]	; 0x45
 8000a40:	e027      	b.n	8000a92 <HAL_ETH_GetReceivedFrame_IT+0x86>
 8000a42:	681a      	ldr	r2, [r3, #0]
 8000a44:	68dd      	ldr	r5, [r3, #12]
 8000a46:	f402 7240 	and.w	r2, r2, #768	; 0x300
 8000a4a:	f5b2 7f00 	cmp.w	r2, #512	; 0x200
 8000a4e:	d103      	bne.n	8000a58 <HAL_ETH_GetReceivedFrame_IT+0x4c>
 8000a50:	6303      	str	r3, [r0, #48]	; 0x30
 8000a52:	6381      	str	r1, [r0, #56]	; 0x38
 8000a54:	6285      	str	r5, [r0, #40]	; 0x28
 8000a56:	e7e7      	b.n	8000a28 <HAL_ETH_GetReceivedFrame_IT+0x1c>
 8000a58:	681a      	ldr	r2, [r3, #0]
 8000a5a:	f412 7f40 	tst.w	r2, #768	; 0x300
 8000a5e:	6b82      	ldr	r2, [r0, #56]	; 0x38
 8000a60:	d102      	bne.n	8000a68 <HAL_ETH_GetReceivedFrame_IT+0x5c>
 8000a62:	3201      	adds	r2, #1
 8000a64:	6382      	str	r2, [r0, #56]	; 0x38
 8000a66:	e7f5      	b.n	8000a54 <HAL_ETH_GetReceivedFrame_IT+0x48>
 8000a68:	3201      	adds	r2, #1
 8000a6a:	6343      	str	r3, [r0, #52]	; 0x34
 8000a6c:	2a01      	cmp	r2, #1
 8000a6e:	6382      	str	r2, [r0, #56]	; 0x38
 8000a70:	bf08      	it	eq
 8000a72:	6303      	streq	r3, [r0, #48]	; 0x30
 8000a74:	681b      	ldr	r3, [r3, #0]
 8000a76:	f3c3 430d 	ubfx	r3, r3, #16, #14
 8000a7a:	3b04      	subs	r3, #4
 8000a7c:	63c3      	str	r3, [r0, #60]	; 0x3c
 8000a7e:	6b03      	ldr	r3, [r0, #48]	; 0x30
 8000a80:	689b      	ldr	r3, [r3, #8]
 8000a82:	6285      	str	r5, [r0, #40]	; 0x28
 8000a84:	6403      	str	r3, [r0, #64]	; 0x40
 8000a86:	2301      	movs	r3, #1
 8000a88:	f880 3044 	strb.w	r3, [r0, #68]	; 0x44
 8000a8c:	2300      	movs	r3, #0
 8000a8e:	f880 3045 	strb.w	r3, [r0, #69]	; 0x45
 8000a92:	4618      	mov	r0, r3
 8000a94:	bd30      	pop	{r4, r5, pc}

08000a96 <HAL_ETH_TxCpltCallback>:
 8000a96:	4770      	bx	lr

08000a98 <HAL_ETH_ErrorCallback>:
 8000a98:	4770      	bx	lr

08000a9a <HAL_ETH_IRQHandler>:
 8000a9a:	b570      	push	{r4, r5, r6, lr}
 8000a9c:	6802      	ldr	r2, [r0, #0]
 8000a9e:	f241 0614 	movw	r6, #4116	; 0x1014
 8000aa2:	4604      	mov	r4, r0
 8000aa4:	5995      	ldr	r5, [r2, r6]
 8000aa6:	f015 0540 	ands.w	r5, r5, #64	; 0x40
 8000aaa:	d021      	beq.n	8000af0 <HAL_ETH_IRQHandler+0x56>
 8000aac:	f00a f864 	bl	800ab78 <HAL_ETH_RxCpltCallback>
 8000ab0:	6823      	ldr	r3, [r4, #0]
 8000ab2:	2240      	movs	r2, #64	; 0x40
 8000ab4:	519a      	str	r2, [r3, r6]
 8000ab6:	2301      	movs	r3, #1
 8000ab8:	f884 3044 	strb.w	r3, [r4, #68]	; 0x44
 8000abc:	2300      	movs	r3, #0
 8000abe:	f884 3045 	strb.w	r3, [r4, #69]	; 0x45
 8000ac2:	6823      	ldr	r3, [r4, #0]
 8000ac4:	f241 0514 	movw	r5, #4116	; 0x1014
 8000ac8:	f44f 3280 	mov.w	r2, #65536	; 0x10000
 8000acc:	515a      	str	r2, [r3, r5]
 8000ace:	595b      	ldr	r3, [r3, r5]
 8000ad0:	041b      	lsls	r3, r3, #16
 8000ad2:	d50c      	bpl.n	8000aee <HAL_ETH_IRQHandler+0x54>
 8000ad4:	4620      	mov	r0, r4
 8000ad6:	f7ff ffdf 	bl	8000a98 <HAL_ETH_ErrorCallback>
 8000ada:	6823      	ldr	r3, [r4, #0]
 8000adc:	f44f 4200 	mov.w	r2, #32768	; 0x8000
 8000ae0:	515a      	str	r2, [r3, r5]
 8000ae2:	2301      	movs	r3, #1
 8000ae4:	f884 3044 	strb.w	r3, [r4, #68]	; 0x44
 8000ae8:	2300      	movs	r3, #0
 8000aea:	f884 3045 	strb.w	r3, [r4, #69]	; 0x45
 8000aee:	bd70      	pop	{r4, r5, r6, pc}
 8000af0:	5993      	ldr	r3, [r2, r6]
 8000af2:	07da      	lsls	r2, r3, #31
 8000af4:	d5e5      	bpl.n	8000ac2 <HAL_ETH_IRQHandler+0x28>
 8000af6:	f7ff ffce 	bl	8000a96 <HAL_ETH_TxCpltCallback>
 8000afa:	2301      	movs	r3, #1
 8000afc:	6822      	ldr	r2, [r4, #0]
 8000afe:	5193      	str	r3, [r2, r6]
 8000b00:	f884 3044 	strb.w	r3, [r4, #68]	; 0x44
 8000b04:	f884 5045 	strb.w	r5, [r4, #69]	; 0x45
 8000b08:	e7db      	b.n	8000ac2 <HAL_ETH_IRQHandler+0x28>

08000b0a <HAL_ETH_ReadPHYRegister>:
 8000b0a:	b5f8      	push	{r3, r4, r5, r6, r7, lr}
 8000b0c:	f890 3044 	ldrb.w	r3, [r0, #68]	; 0x44
 8000b10:	4605      	mov	r5, r0
 8000b12:	4616      	mov	r6, r2
 8000b14:	2b82      	cmp	r3, #130	; 0x82
 8000b16:	d030      	beq.n	8000b7a <HAL_ETH_ReadPHYRegister+0x70>
 8000b18:	6802      	ldr	r2, [r0, #0]
 8000b1a:	2382      	movs	r3, #130	; 0x82
 8000b1c:	0189      	lsls	r1, r1, #6
 8000b1e:	f880 3044 	strb.w	r3, [r0, #68]	; 0x44
 8000b22:	6913      	ldr	r3, [r2, #16]
 8000b24:	f401 64f8 	and.w	r4, r1, #1984	; 0x7c0
 8000b28:	f003 011c 	and.w	r1, r3, #28
 8000b2c:	4321      	orrs	r1, r4
 8000b2e:	8a04      	ldrh	r4, [r0, #16]
 8000b30:	02e4      	lsls	r4, r4, #11
 8000b32:	b2a4      	uxth	r4, r4
 8000b34:	430c      	orrs	r4, r1
 8000b36:	f044 0401 	orr.w	r4, r4, #1
 8000b3a:	6114      	str	r4, [r2, #16]
 8000b3c:	f7ff fd58 	bl	80005f0 <HAL_GetTick>
 8000b40:	4607      	mov	r7, r0
 8000b42:	f014 0001 	ands.w	r0, r4, #1
 8000b46:	d107      	bne.n	8000b58 <HAL_ETH_ReadPHYRegister+0x4e>
 8000b48:	682b      	ldr	r3, [r5, #0]
 8000b4a:	695b      	ldr	r3, [r3, #20]
 8000b4c:	b29b      	uxth	r3, r3
 8000b4e:	6033      	str	r3, [r6, #0]
 8000b50:	2301      	movs	r3, #1
 8000b52:	f885 3044 	strb.w	r3, [r5, #68]	; 0x44
 8000b56:	bdf8      	pop	{r3, r4, r5, r6, r7, pc}
 8000b58:	f7ff fd4a 	bl	80005f0 <HAL_GetTick>
 8000b5c:	1bc0      	subs	r0, r0, r7
 8000b5e:	f5b0 3f80 	cmp.w	r0, #65536	; 0x10000
 8000b62:	d307      	bcc.n	8000b74 <HAL_ETH_ReadPHYRegister+0x6a>
 8000b64:	2301      	movs	r3, #1
 8000b66:	2003      	movs	r0, #3
 8000b68:	f885 3044 	strb.w	r3, [r5, #68]	; 0x44
 8000b6c:	2300      	movs	r3, #0
 8000b6e:	f885 3045 	strb.w	r3, [r5, #69]	; 0x45
 8000b72:	bdf8      	pop	{r3, r4, r5, r6, r7, pc}
 8000b74:	682b      	ldr	r3, [r5, #0]
 8000b76:	691c      	ldr	r4, [r3, #16]
 8000b78:	e7e3      	b.n	8000b42 <HAL_ETH_ReadPHYRegister+0x38>
 8000b7a:	2002      	movs	r0, #2
 8000b7c:	bdf8      	pop	{r3, r4, r5, r6, r7, pc}

08000b7e <HAL_ETH_WritePHYRegister>:
 8000b7e:	f890 3044 	ldrb.w	r3, [r0, #68]	; 0x44
 8000b82:	2b42      	cmp	r3, #66	; 0x42
 8000b84:	b570      	push	{r4, r5, r6, lr}
 8000b86:	4605      	mov	r5, r0
 8000b88:	d02e      	beq.n	8000be8 <HAL_ETH_WritePHYRegister+0x6a>
 8000b8a:	2342      	movs	r3, #66	; 0x42
 8000b8c:	018c      	lsls	r4, r1, #6
 8000b8e:	b292      	uxth	r2, r2
 8000b90:	f880 3044 	strb.w	r3, [r0, #68]	; 0x44
 8000b94:	f404 64f8 	and.w	r4, r4, #1984	; 0x7c0
 8000b98:	6803      	ldr	r3, [r0, #0]
 8000b9a:	f044 0403 	orr.w	r4, r4, #3
 8000b9e:	6918      	ldr	r0, [r3, #16]
 8000ba0:	f000 001c 	and.w	r0, r0, #28
 8000ba4:	4320      	orrs	r0, r4
 8000ba6:	8a2c      	ldrh	r4, [r5, #16]
 8000ba8:	615a      	str	r2, [r3, #20]
 8000baa:	02e4      	lsls	r4, r4, #11
 8000bac:	b2a4      	uxth	r4, r4
 8000bae:	4304      	orrs	r4, r0
 8000bb0:	611c      	str	r4, [r3, #16]
 8000bb2:	f7ff fd1d 	bl	80005f0 <HAL_GetTick>
 8000bb6:	4606      	mov	r6, r0
 8000bb8:	f014 0001 	ands.w	r0, r4, #1
 8000bbc:	d103      	bne.n	8000bc6 <HAL_ETH_WritePHYRegister+0x48>
 8000bbe:	2301      	movs	r3, #1
 8000bc0:	f885 3044 	strb.w	r3, [r5, #68]	; 0x44
 8000bc4:	bd70      	pop	{r4, r5, r6, pc}
 8000bc6:	f7ff fd13 	bl	80005f0 <HAL_GetTick>
 8000bca:	1b80      	subs	r0, r0, r6
 8000bcc:	f5b0 3f80 	cmp.w	r0, #65536	; 0x10000
 8000bd0:	d307      	bcc.n	8000be2 <HAL_ETH_WritePHYRegister+0x64>
 8000bd2:	2301      	movs	r3, #1
 8000bd4:	2003      	movs	r0, #3
 8000bd6:	f885 3044 	strb.w	r3, [r5, #68]	; 0x44
 8000bda:	2300      	movs	r3, #0
 8000bdc:	f885 3045 	strb.w	r3, [r5, #69]	; 0x45
 8000be0:	bd70      	pop	{r4, r5, r6, pc}
 8000be2:	682b      	ldr	r3, [r5, #0]
 8000be4:	691c      	ldr	r4, [r3, #16]
 8000be6:	e7e7      	b.n	8000bb8 <HAL_ETH_WritePHYRegister+0x3a>
 8000be8:	2002      	movs	r0, #2
 8000bea:	bd70      	pop	{r4, r5, r6, pc}

08000bec <HAL_ETH_Init>:
 8000bec:	2300      	movs	r3, #0
 8000bee:	b5f7      	push	{r0, r1, r2, r4, r5, r6, r7, lr}
 8000bf0:	4604      	mov	r4, r0
 8000bf2:	9300      	str	r3, [sp, #0]
 8000bf4:	2800      	cmp	r0, #0
 8000bf6:	f000 80dc 	beq.w	8000db2 <HAL_ETH_Init+0x1c6>
 8000bfa:	f890 3044 	ldrb.w	r3, [r0, #68]	; 0x44
 8000bfe:	f003 02ff 	and.w	r2, r3, #255	; 0xff
 8000c02:	b91b      	cbnz	r3, 8000c0c <HAL_ETH_Init+0x20>
 8000c04:	f880 2045 	strb.w	r2, [r0, #69]	; 0x45
 8000c08:	f009 ff50 	bl	800aaac <HAL_ETH_MspInit>
 8000c0c:	4b6a      	ldr	r3, [pc, #424]	; (8000db8 <HAL_ETH_Init+0x1cc>)
 8000c0e:	6c5a      	ldr	r2, [r3, #68]	; 0x44
 8000c10:	f442 4280 	orr.w	r2, r2, #16384	; 0x4000
 8000c14:	645a      	str	r2, [r3, #68]	; 0x44
 8000c16:	6c5b      	ldr	r3, [r3, #68]	; 0x44
 8000c18:	f403 4380 	and.w	r3, r3, #16384	; 0x4000
 8000c1c:	9301      	str	r3, [sp, #4]
 8000c1e:	9b01      	ldr	r3, [sp, #4]
 8000c20:	4b66      	ldr	r3, [pc, #408]	; (8000dbc <HAL_ETH_Init+0x1d0>)
 8000c22:	685a      	ldr	r2, [r3, #4]
 8000c24:	f422 0200 	bic.w	r2, r2, #8388608	; 0x800000
 8000c28:	605a      	str	r2, [r3, #4]
 8000c2a:	685a      	ldr	r2, [r3, #4]
 8000c2c:	6a21      	ldr	r1, [r4, #32]
 8000c2e:	430a      	orrs	r2, r1
 8000c30:	605a      	str	r2, [r3, #4]
 8000c32:	6823      	ldr	r3, [r4, #0]
 8000c34:	f503 5380 	add.w	r3, r3, #4096	; 0x1000
 8000c38:	681a      	ldr	r2, [r3, #0]
 8000c3a:	f042 0201 	orr.w	r2, r2, #1
 8000c3e:	601a      	str	r2, [r3, #0]
 8000c40:	f7ff fcd6 	bl	80005f0 <HAL_GetTick>
 8000c44:	4605      	mov	r5, r0
 8000c46:	6823      	ldr	r3, [r4, #0]
 8000c48:	f503 5280 	add.w	r2, r3, #4096	; 0x1000
 8000c4c:	6812      	ldr	r2, [r2, #0]
 8000c4e:	07d0      	lsls	r0, r2, #31
 8000c50:	d41d      	bmi.n	8000c8e <HAL_ETH_Init+0xa2>
 8000c52:	691d      	ldr	r5, [r3, #16]
 8000c54:	f001 f96e 	bl	8001f34 <HAL_RCC_GetHCLKFreq>
 8000c58:	4b59      	ldr	r3, [pc, #356]	; (8000dc0 <HAL_ETH_Init+0x1d4>)
 8000c5a:	4a5a      	ldr	r2, [pc, #360]	; (8000dc4 <HAL_ETH_Init+0x1d8>)
 8000c5c:	f025 051c 	bic.w	r5, r5, #28
 8000c60:	4403      	add	r3, r0
 8000c62:	4293      	cmp	r3, r2
 8000c64:	d822      	bhi.n	8000cac <HAL_ETH_Init+0xc0>
 8000c66:	f045 0508 	orr.w	r5, r5, #8
 8000c6a:	6823      	ldr	r3, [r4, #0]
 8000c6c:	f44f 4200 	mov.w	r2, #32768	; 0x8000
 8000c70:	2100      	movs	r1, #0
 8000c72:	4620      	mov	r0, r4
 8000c74:	611d      	str	r5, [r3, #16]
 8000c76:	f7ff ff82 	bl	8000b7e <HAL_ETH_WritePHYRegister>
 8000c7a:	4605      	mov	r5, r0
 8000c7c:	b368      	cbz	r0, 8000cda <HAL_ETH_Init+0xee>
 8000c7e:	2501      	movs	r5, #1
 8000c80:	2101      	movs	r1, #1
 8000c82:	4620      	mov	r0, r4
 8000c84:	f7ff fd5a 	bl	800073c <ETH_MACDMAConfig>
 8000c88:	f884 5044 	strb.w	r5, [r4, #68]	; 0x44
 8000c8c:	e00b      	b.n	8000ca6 <HAL_ETH_Init+0xba>
 8000c8e:	f7ff fcaf 	bl	80005f0 <HAL_GetTick>
 8000c92:	1b40      	subs	r0, r0, r5
 8000c94:	f5b0 7ffa 	cmp.w	r0, #500	; 0x1f4
 8000c98:	d9d5      	bls.n	8000c46 <HAL_ETH_Init+0x5a>
 8000c9a:	2503      	movs	r5, #3
 8000c9c:	2300      	movs	r3, #0
 8000c9e:	f884 5044 	strb.w	r5, [r4, #68]	; 0x44
 8000ca2:	f884 3045 	strb.w	r3, [r4, #69]	; 0x45
 8000ca6:	4628      	mov	r0, r5
 8000ca8:	b003      	add	sp, #12
 8000caa:	bdf0      	pop	{r4, r5, r6, r7, pc}
 8000cac:	4b46      	ldr	r3, [pc, #280]	; (8000dc8 <HAL_ETH_Init+0x1dc>)
 8000cae:	4a47      	ldr	r2, [pc, #284]	; (8000dcc <HAL_ETH_Init+0x1e0>)
 8000cb0:	4403      	add	r3, r0
 8000cb2:	4293      	cmp	r3, r2
 8000cb4:	d802      	bhi.n	8000cbc <HAL_ETH_Init+0xd0>
 8000cb6:	f045 050c 	orr.w	r5, r5, #12
 8000cba:	e7d6      	b.n	8000c6a <HAL_ETH_Init+0x7e>
 8000cbc:	4b44      	ldr	r3, [pc, #272]	; (8000dd0 <HAL_ETH_Init+0x1e4>)
 8000cbe:	4a45      	ldr	r2, [pc, #276]	; (8000dd4 <HAL_ETH_Init+0x1e8>)
 8000cc0:	4403      	add	r3, r0
 8000cc2:	4293      	cmp	r3, r2
 8000cc4:	d9d1      	bls.n	8000c6a <HAL_ETH_Init+0x7e>
 8000cc6:	4b44      	ldr	r3, [pc, #272]	; (8000dd8 <HAL_ETH_Init+0x1ec>)
 8000cc8:	4a44      	ldr	r2, [pc, #272]	; (8000ddc <HAL_ETH_Init+0x1f0>)
 8000cca:	4403      	add	r3, r0
 8000ccc:	4293      	cmp	r3, r2
 8000cce:	bf94      	ite	ls
 8000cd0:	f045 0504 	orrls.w	r5, r5, #4
 8000cd4:	f045 0510 	orrhi.w	r5, r5, #16
 8000cd8:	e7c7      	b.n	8000c6a <HAL_ETH_Init+0x7e>
 8000cda:	20ff      	movs	r0, #255	; 0xff
 8000cdc:	f7ff fc8e 	bl	80005fc <HAL_Delay>
 8000ce0:	6863      	ldr	r3, [r4, #4]
 8000ce2:	2b00      	cmp	r3, #0
 8000ce4:	d053      	beq.n	8000d8e <HAL_ETH_Init+0x1a2>
 8000ce6:	f7ff fc83 	bl	80005f0 <HAL_GetTick>
 8000cea:	f241 3788 	movw	r7, #5000	; 0x1388
 8000cee:	4606      	mov	r6, r0
 8000cf0:	466a      	mov	r2, sp
 8000cf2:	2101      	movs	r1, #1
 8000cf4:	4620      	mov	r0, r4
 8000cf6:	f7ff ff08 	bl	8000b0a <HAL_ETH_ReadPHYRegister>
 8000cfa:	f7ff fc79 	bl	80005f0 <HAL_GetTick>
 8000cfe:	1b80      	subs	r0, r0, r6
 8000d00:	42b8      	cmp	r0, r7
 8000d02:	d90b      	bls.n	8000d1c <HAL_ETH_Init+0x130>
 8000d04:	2101      	movs	r1, #1
 8000d06:	4620      	mov	r0, r4
 8000d08:	f7ff fd18 	bl	800073c <ETH_MACDMAConfig>
 8000d0c:	2301      	movs	r3, #1
 8000d0e:	2503      	movs	r5, #3
 8000d10:	f884 3044 	strb.w	r3, [r4, #68]	; 0x44
 8000d14:	2300      	movs	r3, #0
 8000d16:	f884 3045 	strb.w	r3, [r4, #69]	; 0x45
 8000d1a:	e7c4      	b.n	8000ca6 <HAL_ETH_Init+0xba>
 8000d1c:	9b00      	ldr	r3, [sp, #0]
 8000d1e:	0759      	lsls	r1, r3, #29
 8000d20:	d5e6      	bpl.n	8000cf0 <HAL_ETH_Init+0x104>
 8000d22:	f44f 5280 	mov.w	r2, #4096	; 0x1000
 8000d26:	2100      	movs	r1, #0
 8000d28:	4620      	mov	r0, r4
 8000d2a:	f7ff ff28 	bl	8000b7e <HAL_ETH_WritePHYRegister>
 8000d2e:	2800      	cmp	r0, #0
 8000d30:	d1a5      	bne.n	8000c7e <HAL_ETH_Init+0x92>
 8000d32:	f7ff fc5d 	bl	80005f0 <HAL_GetTick>
 8000d36:	f241 3788 	movw	r7, #5000	; 0x1388
 8000d3a:	4606      	mov	r6, r0
 8000d3c:	466a      	mov	r2, sp
 8000d3e:	2101      	movs	r1, #1
 8000d40:	4620      	mov	r0, r4
 8000d42:	f7ff fee2 	bl	8000b0a <HAL_ETH_ReadPHYRegister>
 8000d46:	f7ff fc53 	bl	80005f0 <HAL_GetTick>
 8000d4a:	1b80      	subs	r0, r0, r6
 8000d4c:	42b8      	cmp	r0, r7
 8000d4e:	d8d9      	bhi.n	8000d04 <HAL_ETH_Init+0x118>
 8000d50:	9b00      	ldr	r3, [sp, #0]
 8000d52:	069a      	lsls	r2, r3, #26
 8000d54:	d5f2      	bpl.n	8000d3c <HAL_ETH_Init+0x150>
 8000d56:	466a      	mov	r2, sp
 8000d58:	2110      	movs	r1, #16
 8000d5a:	4620      	mov	r0, r4
 8000d5c:	f7ff fed5 	bl	8000b0a <HAL_ETH_ReadPHYRegister>
 8000d60:	2800      	cmp	r0, #0
 8000d62:	d18c      	bne.n	8000c7e <HAL_ETH_Init+0x92>
 8000d64:	9b00      	ldr	r3, [sp, #0]
 8000d66:	f013 0204 	ands.w	r2, r3, #4
 8000d6a:	bf18      	it	ne
 8000d6c:	f44f 6200 	movne.w	r2, #2048	; 0x800
 8000d70:	079b      	lsls	r3, r3, #30
 8000d72:	bf4c      	ite	mi
 8000d74:	2300      	movmi	r3, #0
 8000d76:	f44f 4380 	movpl.w	r3, #16384	; 0x4000
 8000d7a:	60e2      	str	r2, [r4, #12]
 8000d7c:	60a3      	str	r3, [r4, #8]
 8000d7e:	2100      	movs	r1, #0
 8000d80:	4620      	mov	r0, r4
 8000d82:	f7ff fcdb 	bl	800073c <ETH_MACDMAConfig>
 8000d86:	2301      	movs	r3, #1
 8000d88:	f884 3044 	strb.w	r3, [r4, #68]	; 0x44
 8000d8c:	e78b      	b.n	8000ca6 <HAL_ETH_Init+0xba>
 8000d8e:	68a3      	ldr	r3, [r4, #8]
 8000d90:	4629      	mov	r1, r5
 8000d92:	68e2      	ldr	r2, [r4, #12]
 8000d94:	4620      	mov	r0, r4
 8000d96:	085b      	lsrs	r3, r3, #1
 8000d98:	ea43 02d2 	orr.w	r2, r3, r2, lsr #3
 8000d9c:	b292      	uxth	r2, r2
 8000d9e:	f7ff feee 	bl	8000b7e <HAL_ETH_WritePHYRegister>
 8000da2:	2800      	cmp	r0, #0
 8000da4:	f47f af6b 	bne.w	8000c7e <HAL_ETH_Init+0x92>
 8000da8:	f640 70ff 	movw	r0, #4095	; 0xfff
 8000dac:	f7ff fc26 	bl	80005fc <HAL_Delay>
 8000db0:	e7e5      	b.n	8000d7e <HAL_ETH_Init+0x192>
 8000db2:	2501      	movs	r5, #1
 8000db4:	e777      	b.n	8000ca6 <HAL_ETH_Init+0xba>
 8000db6:	bf00      	nop
 8000db8:	40023800 	.word	0x40023800
 8000dbc:	40013800 	.word	0x40013800
 8000dc0:	feced300 	.word	0xfeced300
 8000dc4:	00e4e1bf 	.word	0x00e4e1bf
 8000dc8:	fde9f140 	.word	0xfde9f140
 8000dcc:	017d783f 	.word	0x017d783f
 8000dd0:	fc6c7900 	.word	0xfc6c7900
 8000dd4:	026259ff 	.word	0x026259ff
 8000dd8:	fa0a1f00 	.word	0xfa0a1f00
 8000ddc:	02faf07f 	.word	0x02faf07f

08000de0 <HAL_ETH_Start>:
 8000de0:	f890 3045 	ldrb.w	r3, [r0, #69]	; 0x45
 8000de4:	2b01      	cmp	r3, #1
 8000de6:	b573      	push	{r0, r1, r4, r5, r6, lr}
 8000de8:	4605      	mov	r5, r0
 8000dea:	f04f 0002 	mov.w	r0, #2
 8000dee:	d033      	beq.n	8000e58 <HAL_ETH_Start+0x78>
 8000df0:	2400      	movs	r4, #0
 8000df2:	682b      	ldr	r3, [r5, #0]
 8000df4:	f885 0044 	strb.w	r0, [r5, #68]	; 0x44
 8000df8:	2601      	movs	r6, #1
 8000dfa:	9401      	str	r4, [sp, #4]
 8000dfc:	681a      	ldr	r2, [r3, #0]
 8000dfe:	4630      	mov	r0, r6
 8000e00:	f885 6045 	strb.w	r6, [r5, #69]	; 0x45
 8000e04:	f042 0208 	orr.w	r2, r2, #8
 8000e08:	601a      	str	r2, [r3, #0]
 8000e0a:	681b      	ldr	r3, [r3, #0]
 8000e0c:	9301      	str	r3, [sp, #4]
 8000e0e:	f7ff fbf5 	bl	80005fc <HAL_Delay>
 8000e12:	9a01      	ldr	r2, [sp, #4]
 8000e14:	4630      	mov	r0, r6
 8000e16:	682b      	ldr	r3, [r5, #0]
 8000e18:	601a      	str	r2, [r3, #0]
 8000e1a:	9400      	str	r4, [sp, #0]
 8000e1c:	681a      	ldr	r2, [r3, #0]
 8000e1e:	f042 0204 	orr.w	r2, r2, #4
 8000e22:	601a      	str	r2, [r3, #0]
 8000e24:	681b      	ldr	r3, [r3, #0]
 8000e26:	9300      	str	r3, [sp, #0]
 8000e28:	f7ff fbe8 	bl	80005fc <HAL_Delay>
 8000e2c:	682b      	ldr	r3, [r5, #0]
 8000e2e:	4628      	mov	r0, r5
 8000e30:	9a00      	ldr	r2, [sp, #0]
 8000e32:	601a      	str	r2, [r3, #0]
 8000e34:	f7ff fc6c 	bl	8000710 <ETH_FlushTransmitFIFO>
 8000e38:	682a      	ldr	r2, [r5, #0]
 8000e3a:	f241 0318 	movw	r3, #4120	; 0x1018
 8000e3e:	4620      	mov	r0, r4
 8000e40:	58d1      	ldr	r1, [r2, r3]
 8000e42:	f441 5100 	orr.w	r1, r1, #8192	; 0x2000
 8000e46:	50d1      	str	r1, [r2, r3]
 8000e48:	58d1      	ldr	r1, [r2, r3]
 8000e4a:	f041 0102 	orr.w	r1, r1, #2
 8000e4e:	50d1      	str	r1, [r2, r3]
 8000e50:	f885 6044 	strb.w	r6, [r5, #68]	; 0x44
 8000e54:	f885 4045 	strb.w	r4, [r5, #69]	; 0x45
 8000e58:	b002      	add	sp, #8
 8000e5a:	bd70      	pop	{r4, r5, r6, pc}

08000e5c <HAL_GPIO_Init>:
 8000e5c:	e92d 4ff0 	stmdb	sp!, {r4, r5, r6, r7, r8, r9, sl, fp, lr}
 8000e60:	680b      	ldr	r3, [r1, #0]
 8000e62:	b085      	sub	sp, #20
 8000e64:	f8df 81c0 	ldr.w	r8, [pc, #448]	; 8001028 <HAL_GPIO_Init+0x1cc>
 8000e68:	9301      	str	r3, [sp, #4]
 8000e6a:	2300      	movs	r3, #0
 8000e6c:	4a6c      	ldr	r2, [pc, #432]	; (8001020 <HAL_GPIO_Init+0x1c4>)
 8000e6e:	f8df 91bc 	ldr.w	r9, [pc, #444]	; 800102c <HAL_GPIO_Init+0x1d0>
 8000e72:	f04f 0e01 	mov.w	lr, #1
 8000e76:	9c01      	ldr	r4, [sp, #4]
 8000e78:	fa0e fe03 	lsl.w	lr, lr, r3
 8000e7c:	ea0e 0604 	and.w	r6, lr, r4
 8000e80:	45b6      	cmp	lr, r6
 8000e82:	f040 80b3 	bne.w	8000fec <HAL_GPIO_Init+0x190>
 8000e86:	684c      	ldr	r4, [r1, #4]
 8000e88:	f024 0710 	bic.w	r7, r4, #16
 8000e8c:	2f02      	cmp	r7, #2
 8000e8e:	d116      	bne.n	8000ebe <HAL_GPIO_Init+0x62>
 8000e90:	ea4f 0ad3 	mov.w	sl, r3, lsr #3
 8000e94:	f003 0b07 	and.w	fp, r3, #7
 8000e98:	f04f 0c0f 	mov.w	ip, #15
 8000e9c:	eb00 0a8a 	add.w	sl, r0, sl, lsl #2
 8000ea0:	ea4f 0b8b 	mov.w	fp, fp, lsl #2
 8000ea4:	f8da 5020 	ldr.w	r5, [sl, #32]
 8000ea8:	fa0c fc0b 	lsl.w	ip, ip, fp
 8000eac:	ea25 0c0c 	bic.w	ip, r5, ip
 8000eb0:	690d      	ldr	r5, [r1, #16]
 8000eb2:	fa05 f50b 	lsl.w	r5, r5, fp
 8000eb6:	ea45 050c 	orr.w	r5, r5, ip
 8000eba:	f8ca 5020 	str.w	r5, [sl, #32]
 8000ebe:	ea4f 0a43 	mov.w	sl, r3, lsl #1
 8000ec2:	2503      	movs	r5, #3
 8000ec4:	f8d0 b000 	ldr.w	fp, [r0]
 8000ec8:	f004 0c03 	and.w	ip, r4, #3
 8000ecc:	fa05 f50a 	lsl.w	r5, r5, sl
 8000ed0:	3f01      	subs	r7, #1
 8000ed2:	fa0c fc0a 	lsl.w	ip, ip, sl
 8000ed6:	43ed      	mvns	r5, r5
 8000ed8:	2f01      	cmp	r7, #1
 8000eda:	ea0b 0b05 	and.w	fp, fp, r5
 8000ede:	ea4c 0c0b 	orr.w	ip, ip, fp
 8000ee2:	f8c0 c000 	str.w	ip, [r0]
 8000ee6:	d811      	bhi.n	8000f0c <HAL_GPIO_Init+0xb0>
 8000ee8:	6887      	ldr	r7, [r0, #8]
 8000eea:	ea07 0b05 	and.w	fp, r7, r5
 8000eee:	68cf      	ldr	r7, [r1, #12]
 8000ef0:	fa07 fc0a 	lsl.w	ip, r7, sl
 8000ef4:	ea4c 070b 	orr.w	r7, ip, fp
 8000ef8:	6087      	str	r7, [r0, #8]
 8000efa:	6847      	ldr	r7, [r0, #4]
 8000efc:	ea27 0e0e 	bic.w	lr, r7, lr
 8000f00:	f3c4 1700 	ubfx	r7, r4, #4, #1
 8000f04:	409f      	lsls	r7, r3
 8000f06:	ea47 070e 	orr.w	r7, r7, lr
 8000f0a:	6047      	str	r7, [r0, #4]
 8000f0c:	68c7      	ldr	r7, [r0, #12]
 8000f0e:	403d      	ands	r5, r7
 8000f10:	688f      	ldr	r7, [r1, #8]
 8000f12:	fa07 f70a 	lsl.w	r7, r7, sl
 8000f16:	433d      	orrs	r5, r7
 8000f18:	60c5      	str	r5, [r0, #12]
 8000f1a:	00e5      	lsls	r5, r4, #3
 8000f1c:	d566      	bpl.n	8000fec <HAL_GPIO_Init+0x190>
 8000f1e:	f8d8 5044 	ldr.w	r5, [r8, #68]	; 0x44
 8000f22:	f023 0703 	bic.w	r7, r3, #3
 8000f26:	f003 0e03 	and.w	lr, r3, #3
 8000f2a:	f04f 0c0f 	mov.w	ip, #15
 8000f2e:	f445 4580 	orr.w	r5, r5, #16384	; 0x4000
 8000f32:	f107 4780 	add.w	r7, r7, #1073741824	; 0x40000000
 8000f36:	ea4f 0e8e 	mov.w	lr, lr, lsl #2
 8000f3a:	f8c8 5044 	str.w	r5, [r8, #68]	; 0x44
 8000f3e:	f507 379c 	add.w	r7, r7, #79872	; 0x13800
 8000f42:	f8d8 5044 	ldr.w	r5, [r8, #68]	; 0x44
 8000f46:	f405 4580 	and.w	r5, r5, #16384	; 0x4000
 8000f4a:	9503      	str	r5, [sp, #12]
 8000f4c:	9d03      	ldr	r5, [sp, #12]
 8000f4e:	fa0c f50e 	lsl.w	r5, ip, lr
 8000f52:	f8d7 a008 	ldr.w	sl, [r7, #8]
 8000f56:	ea2a 0c05 	bic.w	ip, sl, r5
 8000f5a:	4d32      	ldr	r5, [pc, #200]	; (8001024 <HAL_GPIO_Init+0x1c8>)
 8000f5c:	42a8      	cmp	r0, r5
 8000f5e:	d04c      	beq.n	8000ffa <HAL_GPIO_Init+0x19e>
 8000f60:	f505 6580 	add.w	r5, r5, #1024	; 0x400
 8000f64:	42a8      	cmp	r0, r5
 8000f66:	d04a      	beq.n	8000ffe <HAL_GPIO_Init+0x1a2>
 8000f68:	f505 6580 	add.w	r5, r5, #1024	; 0x400
 8000f6c:	42a8      	cmp	r0, r5
 8000f6e:	d048      	beq.n	8001002 <HAL_GPIO_Init+0x1a6>
 8000f70:	f505 6580 	add.w	r5, r5, #1024	; 0x400
 8000f74:	42a8      	cmp	r0, r5
 8000f76:	d046      	beq.n	8001006 <HAL_GPIO_Init+0x1aa>
 8000f78:	f505 6580 	add.w	r5, r5, #1024	; 0x400
 8000f7c:	42a8      	cmp	r0, r5
 8000f7e:	d044      	beq.n	800100a <HAL_GPIO_Init+0x1ae>
 8000f80:	4548      	cmp	r0, r9
 8000f82:	d044      	beq.n	800100e <HAL_GPIO_Init+0x1b2>
 8000f84:	f505 6500 	add.w	r5, r5, #2048	; 0x800
 8000f88:	42a8      	cmp	r0, r5
 8000f8a:	d042      	beq.n	8001012 <HAL_GPIO_Init+0x1b6>
 8000f8c:	f505 6580 	add.w	r5, r5, #1024	; 0x400
 8000f90:	42a8      	cmp	r0, r5
 8000f92:	d040      	beq.n	8001016 <HAL_GPIO_Init+0x1ba>
 8000f94:	f505 6580 	add.w	r5, r5, #1024	; 0x400
 8000f98:	42a8      	cmp	r0, r5
 8000f9a:	d03e      	beq.n	800101a <HAL_GPIO_Init+0x1be>
 8000f9c:	f505 6580 	add.w	r5, r5, #1024	; 0x400
 8000fa0:	42a8      	cmp	r0, r5
 8000fa2:	bf14      	ite	ne
 8000fa4:	250a      	movne	r5, #10
 8000fa6:	2509      	moveq	r5, #9
 8000fa8:	fa05 f50e 	lsl.w	r5, r5, lr
 8000fac:	f414 3f80 	tst.w	r4, #65536	; 0x10000
 8000fb0:	ea45 050c 	orr.w	r5, r5, ip
 8000fb4:	60bd      	str	r5, [r7, #8]
 8000fb6:	ea6f 0706 	mvn.w	r7, r6
 8000fba:	6815      	ldr	r5, [r2, #0]
 8000fbc:	bf0c      	ite	eq
 8000fbe:	403d      	andeq	r5, r7
 8000fc0:	4335      	orrne	r5, r6
 8000fc2:	f414 3f00 	tst.w	r4, #131072	; 0x20000
 8000fc6:	6015      	str	r5, [r2, #0]
 8000fc8:	6855      	ldr	r5, [r2, #4]
 8000fca:	bf0c      	ite	eq
 8000fcc:	403d      	andeq	r5, r7
 8000fce:	4335      	orrne	r5, r6
 8000fd0:	f414 1f80 	tst.w	r4, #1048576	; 0x100000
 8000fd4:	6055      	str	r5, [r2, #4]
 8000fd6:	6895      	ldr	r5, [r2, #8]
 8000fd8:	bf0c      	ite	eq
 8000fda:	403d      	andeq	r5, r7
 8000fdc:	4335      	orrne	r5, r6
 8000fde:	02a4      	lsls	r4, r4, #10
 8000fe0:	6095      	str	r5, [r2, #8]
 8000fe2:	68d5      	ldr	r5, [r2, #12]
 8000fe4:	bf54      	ite	pl
 8000fe6:	403d      	andpl	r5, r7
 8000fe8:	4335      	orrmi	r5, r6
 8000fea:	60d5      	str	r5, [r2, #12]
 8000fec:	3301      	adds	r3, #1
 8000fee:	2b10      	cmp	r3, #16
 8000ff0:	f47f af3f 	bne.w	8000e72 <HAL_GPIO_Init+0x16>
 8000ff4:	b005      	add	sp, #20
 8000ff6:	e8bd 8ff0 	ldmia.w	sp!, {r4, r5, r6, r7, r8, r9, sl, fp, pc}
 8000ffa:	2500      	movs	r5, #0
 8000ffc:	e7d4      	b.n	8000fa8 <HAL_GPIO_Init+0x14c>
 8000ffe:	2501      	movs	r5, #1
 8001000:	e7d2      	b.n	8000fa8 <HAL_GPIO_Init+0x14c>
 8001002:	2502      	movs	r5, #2
 8001004:	e7d0      	b.n	8000fa8 <HAL_GPIO_Init+0x14c>
 8001006:	2503      	movs	r5, #3
 8001008:	e7ce      	b.n	8000fa8 <HAL_GPIO_Init+0x14c>
 800100a:	2504      	movs	r5, #4
 800100c:	e7cc      	b.n	8000fa8 <HAL_GPIO_Init+0x14c>
 800100e:	2505      	movs	r5, #5
 8001010:	e7ca      	b.n	8000fa8 <HAL_GPIO_Init+0x14c>
 8001012:	2506      	movs	r5, #6
 8001014:	e7c8      	b.n	8000fa8 <HAL_GPIO_Init+0x14c>
 8001016:	2507      	movs	r5, #7
 8001018:	e7c6      	b.n	8000fa8 <HAL_GPIO_Init+0x14c>
 800101a:	2508      	movs	r5, #8
 800101c:	e7c4      	b.n	8000fa8 <HAL_GPIO_Init+0x14c>
 800101e:	bf00      	nop
 8001020:	40013c00 	.word	0x40013c00
 8001024:	40020000 	.word	0x40020000
 8001028:	40023800 	.word	0x40023800
 800102c:	40021400 	.word	0x40021400

08001030 <HAL_GPIO_WritePin>:
 8001030:	b10a      	cbz	r2, 8001036 <HAL_GPIO_WritePin+0x6>
 8001032:	6181      	str	r1, [r0, #24]
 8001034:	4770      	bx	lr
 8001036:	0409      	lsls	r1, r1, #16
 8001038:	e7fb      	b.n	8001032 <HAL_GPIO_WritePin+0x2>

0800103a <HAL_PCD_Init>:
 800103a:	e92d 41f0 	stmdb	sp!, {r4, r5, r6, r7, r8, lr}
 800103e:	4604      	mov	r4, r0
 8001040:	b08a      	sub	sp, #40	; 0x28
 8001042:	2800      	cmp	r0, #0
 8001044:	d06b      	beq.n	800111e <HAL_PCD_Init+0xe4>
 8001046:	f890 33bd 	ldrb.w	r3, [r0, #957]	; 0x3bd
 800104a:	f003 02ff 	and.w	r2, r3, #255	; 0xff
 800104e:	b91b      	cbnz	r3, 8001058 <HAL_PCD_Init+0x1e>
 8001050:	f880 23bc 	strb.w	r2, [r0, #956]	; 0x3bc
 8001054:	f00a f956 	bl	800b304 <HAL_PCD_MspInit>
 8001058:	4625      	mov	r5, r4
 800105a:	2303      	movs	r3, #3
 800105c:	466e      	mov	r6, sp
 800105e:	f104 0804 	add.w	r8, r4, #4
 8001062:	f855 0b10 	ldr.w	r0, [r5], #16
 8001066:	f884 33bd 	strb.w	r3, [r4, #957]	; 0x3bd
 800106a:	f001 fdf2 	bl	8002c52 <USB_DisableGlobalInt>
 800106e:	cd0f      	ldmia	r5!, {r0, r1, r2, r3}
 8001070:	c60f      	stmia	r6!, {r0, r1, r2, r3}
 8001072:	cd0f      	ldmia	r5!, {r0, r1, r2, r3}
 8001074:	c60f      	stmia	r6!, {r0, r1, r2, r3}
 8001076:	e895 0003 	ldmia.w	r5, {r0, r1}
 800107a:	f104 0510 	add.w	r5, r4, #16
 800107e:	e886 0003 	stmia.w	r6, {r0, r1}
 8001082:	e898 000e 	ldmia.w	r8, {r1, r2, r3}
 8001086:	6820      	ldr	r0, [r4, #0]
 8001088:	2601      	movs	r6, #1
 800108a:	f001 fda1 	bl	8002bd0 <USB_CoreInit>
 800108e:	2100      	movs	r1, #0
 8001090:	6820      	ldr	r0, [r4, #0]
 8001092:	f001 fde4 	bl	8002c5e <USB_SetCurrentMode>
 8001096:	2100      	movs	r1, #0
 8001098:	4622      	mov	r2, r4
 800109a:	4623      	mov	r3, r4
 800109c:	4608      	mov	r0, r1
 800109e:	f883 103c 	strb.w	r1, [r3, #60]	; 0x3c
 80010a2:	331c      	adds	r3, #28
 80010a4:	84d9      	strh	r1, [r3, #38]	; 0x26
 80010a6:	3101      	adds	r1, #1
 80010a8:	f883 6021 	strb.w	r6, [r3, #33]	; 0x21
 80010ac:	290f      	cmp	r1, #15
 80010ae:	f883 0023 	strb.w	r0, [r3, #35]	; 0x23
 80010b2:	6298      	str	r0, [r3, #40]	; 0x28
 80010b4:	62d8      	str	r0, [r3, #44]	; 0x2c
 80010b6:	6358      	str	r0, [r3, #52]	; 0x34
 80010b8:	d1f1      	bne.n	800109e <HAL_PCD_Init+0x64>
 80010ba:	2300      	movs	r3, #0
 80010bc:	461f      	mov	r7, r3
 80010be:	f882 31fc 	strb.w	r3, [r2, #508]	; 0x1fc
 80010c2:	3301      	adds	r3, #1
 80010c4:	f882 71fd 	strb.w	r7, [r2, #509]	; 0x1fd
 80010c8:	321c      	adds	r2, #28
 80010ca:	2b0f      	cmp	r3, #15
 80010cc:	f882 71e3 	strb.w	r7, [r2, #483]	; 0x1e3
 80010d0:	f8c2 71e8 	str.w	r7, [r2, #488]	; 0x1e8
 80010d4:	f8c2 71ec 	str.w	r7, [r2, #492]	; 0x1ec
 80010d8:	f8c2 71f4 	str.w	r7, [r2, #500]	; 0x1f4
 80010dc:	d1ef      	bne.n	80010be <HAL_PCD_Init+0x84>
 80010de:	cd0f      	ldmia	r5!, {r0, r1, r2, r3}
 80010e0:	466e      	mov	r6, sp
 80010e2:	c60f      	stmia	r6!, {r0, r1, r2, r3}
 80010e4:	cd0f      	ldmia	r5!, {r0, r1, r2, r3}
 80010e6:	c60f      	stmia	r6!, {r0, r1, r2, r3}
 80010e8:	e895 0003 	ldmia.w	r5, {r0, r1}
 80010ec:	e886 0003 	stmia.w	r6, {r0, r1}
 80010f0:	e898 000e 	ldmia.w	r8, {r1, r2, r3}
 80010f4:	6820      	ldr	r0, [r4, #0]
 80010f6:	f001 fdf3 	bl	8002ce0 <USB_DevInit>
 80010fa:	2301      	movs	r3, #1
 80010fc:	f884 7038 	strb.w	r7, [r4, #56]	; 0x38
 8001100:	f884 33bd 	strb.w	r3, [r4, #957]	; 0x3bd
 8001104:	6a63      	ldr	r3, [r4, #36]	; 0x24
 8001106:	2b01      	cmp	r3, #1
 8001108:	d102      	bne.n	8001110 <HAL_PCD_Init+0xd6>
 800110a:	4620      	mov	r0, r4
 800110c:	f000 fc9f 	bl	8001a4e <HAL_PCDEx_ActivateLPM>
 8001110:	6820      	ldr	r0, [r4, #0]
 8001112:	f002 f907 	bl	8003324 <USB_DevDisconnect>
 8001116:	2000      	movs	r0, #0
 8001118:	b00a      	add	sp, #40	; 0x28
 800111a:	e8bd 81f0 	ldmia.w	sp!, {r4, r5, r6, r7, r8, pc}
 800111e:	2001      	movs	r0, #1
 8001120:	e7fa      	b.n	8001118 <HAL_PCD_Init+0xde>

08001122 <HAL_PCD_Start>:
 8001122:	f890 33bc 	ldrb.w	r3, [r0, #956]	; 0x3bc
 8001126:	2b01      	cmp	r3, #1
 8001128:	b510      	push	{r4, lr}
 800112a:	4604      	mov	r4, r0
 800112c:	d00c      	beq.n	8001148 <HAL_PCD_Start+0x26>
 800112e:	2301      	movs	r3, #1
 8001130:	f880 33bc 	strb.w	r3, [r0, #956]	; 0x3bc
 8001134:	6800      	ldr	r0, [r0, #0]
 8001136:	f002 f8e9 	bl	800330c <USB_DevConnect>
 800113a:	6820      	ldr	r0, [r4, #0]
 800113c:	f001 fd83 	bl	8002c46 <USB_EnableGlobalInt>
 8001140:	2000      	movs	r0, #0
 8001142:	f884 03bc 	strb.w	r0, [r4, #956]	; 0x3bc
 8001146:	bd10      	pop	{r4, pc}
 8001148:	2002      	movs	r0, #2
 800114a:	bd10      	pop	{r4, pc}

0800114c <HAL_PCD_IRQHandler>:
 800114c:	e92d 4ff0 	stmdb	sp!, {r4, r5, r6, r7, r8, r9, sl, fp, lr}
 8001150:	6807      	ldr	r7, [r0, #0]
 8001152:	b087      	sub	sp, #28
 8001154:	4604      	mov	r4, r0
 8001156:	4638      	mov	r0, r7
 8001158:	f8d7 a040 	ldr.w	sl, [r7, #64]	; 0x40
 800115c:	f002 f91d 	bl	800339a <USB_GetMode>
 8001160:	9002      	str	r0, [sp, #8]
 8001162:	2800      	cmp	r0, #0
 8001164:	f040 814f 	bne.w	8001406 <HAL_PCD_IRQHandler+0x2ba>
 8001168:	6820      	ldr	r0, [r4, #0]
 800116a:	f002 f8e7 	bl	800333c <USB_ReadInterrupts>
 800116e:	2800      	cmp	r0, #0
 8001170:	f000 8149 	beq.w	8001406 <HAL_PCD_IRQHandler+0x2ba>
 8001174:	6820      	ldr	r0, [r4, #0]
 8001176:	f002 f8e1 	bl	800333c <USB_ReadInterrupts>
 800117a:	0785      	lsls	r5, r0, #30
 800117c:	d504      	bpl.n	8001188 <HAL_PCD_IRQHandler+0x3c>
 800117e:	6822      	ldr	r2, [r4, #0]
 8001180:	6953      	ldr	r3, [r2, #20]
 8001182:	f003 0302 	and.w	r3, r3, #2
 8001186:	6153      	str	r3, [r2, #20]
 8001188:	6820      	ldr	r0, [r4, #0]
 800118a:	f002 f8d7 	bl	800333c <USB_ReadInterrupts>
 800118e:	f410 2500 	ands.w	r5, r0, #524288	; 0x80000
 8001192:	d00c      	beq.n	80011ae <HAL_PCD_IRQHandler+0x62>
 8001194:	f507 6830 	add.w	r8, r7, #2816	; 0xb00
 8001198:	4626      	mov	r6, r4
 800119a:	2500      	movs	r5, #0
 800119c:	6820      	ldr	r0, [r4, #0]
 800119e:	46c1      	mov	r9, r8
 80011a0:	f002 f8d0 	bl	8003344 <USB_ReadDevAllOutEpInterrupt>
 80011a4:	9003      	str	r0, [sp, #12]
 80011a6:	9b03      	ldr	r3, [sp, #12]
 80011a8:	2b00      	cmp	r3, #0
 80011aa:	f040 812f 	bne.w	800140c <HAL_PCD_IRQHandler+0x2c0>
 80011ae:	6820      	ldr	r0, [r4, #0]
 80011b0:	f002 f8c4 	bl	800333c <USB_ReadInterrupts>
 80011b4:	0342      	lsls	r2, r0, #13
 80011b6:	d50b      	bpl.n	80011d0 <HAL_PCD_IRQHandler+0x84>
 80011b8:	6820      	ldr	r0, [r4, #0]
 80011ba:	4626      	mov	r6, r4
 80011bc:	f002 f8ca 	bl	8003354 <USB_ReadDevAllInEpInterrupt>
 80011c0:	f507 6910 	add.w	r9, r7, #2304	; 0x900
 80011c4:	4683      	mov	fp, r0
 80011c6:	2500      	movs	r5, #0
 80011c8:	f1bb 0f00 	cmp.w	fp, #0
 80011cc:	f040 81a1 	bne.w	8001512 <HAL_PCD_IRQHandler+0x3c6>
 80011d0:	6820      	ldr	r0, [r4, #0]
 80011d2:	f002 f8b3 	bl	800333c <USB_ReadInterrupts>
 80011d6:	2800      	cmp	r0, #0
 80011d8:	da15      	bge.n	8001206 <HAL_PCD_IRQHandler+0xba>
 80011da:	f8d7 3804 	ldr.w	r3, [r7, #2052]	; 0x804
 80011de:	f023 0301 	bic.w	r3, r3, #1
 80011e2:	f8c7 3804 	str.w	r3, [r7, #2052]	; 0x804
 80011e6:	f894 33f0 	ldrb.w	r3, [r4, #1008]	; 0x3f0
 80011ea:	2b01      	cmp	r3, #1
 80011ec:	f040 8227 	bne.w	800163e <HAL_PCD_IRQHandler+0x4f2>
 80011f0:	2100      	movs	r1, #0
 80011f2:	4620      	mov	r0, r4
 80011f4:	f884 13f0 	strb.w	r1, [r4, #1008]	; 0x3f0
 80011f8:	f00a f9dc 	bl	800b5b4 <HAL_PCDEx_LPM_Callback>
 80011fc:	6822      	ldr	r2, [r4, #0]
 80011fe:	6953      	ldr	r3, [r2, #20]
 8001200:	f003 4300 	and.w	r3, r3, #2147483648	; 0x80000000
 8001204:	6153      	str	r3, [r2, #20]
 8001206:	6820      	ldr	r0, [r4, #0]
 8001208:	f002 f898 	bl	800333c <USB_ReadInterrupts>
 800120c:	0503      	lsls	r3, r0, #20
 800120e:	d50b      	bpl.n	8001228 <HAL_PCD_IRQHandler+0xdc>
 8001210:	f8d7 3808 	ldr.w	r3, [r7, #2056]	; 0x808
 8001214:	07de      	lsls	r6, r3, #31
 8001216:	d502      	bpl.n	800121e <HAL_PCD_IRQHandler+0xd2>
 8001218:	4620      	mov	r0, r4
 800121a:	f00a f8df 	bl	800b3dc <HAL_PCD_SuspendCallback>
 800121e:	6822      	ldr	r2, [r4, #0]
 8001220:	6953      	ldr	r3, [r2, #20]
 8001222:	f403 6300 	and.w	r3, r3, #2048	; 0x800
 8001226:	6153      	str	r3, [r2, #20]
 8001228:	6820      	ldr	r0, [r4, #0]
 800122a:	f002 f887 	bl	800333c <USB_ReadInterrupts>
 800122e:	0100      	lsls	r0, r0, #4
 8001230:	d514      	bpl.n	800125c <HAL_PCD_IRQHandler+0x110>
 8001232:	6823      	ldr	r3, [r4, #0]
 8001234:	695a      	ldr	r2, [r3, #20]
 8001236:	f002 6200 	and.w	r2, r2, #134217728	; 0x8000000
 800123a:	615a      	str	r2, [r3, #20]
 800123c:	f894 23f0 	ldrb.w	r2, [r4, #1008]	; 0x3f0
 8001240:	2a00      	cmp	r2, #0
 8001242:	f040 8200 	bne.w	8001646 <HAL_PCD_IRQHandler+0x4fa>
 8001246:	6d5b      	ldr	r3, [r3, #84]	; 0x54
 8001248:	2101      	movs	r1, #1
 800124a:	4620      	mov	r0, r4
 800124c:	f3c3 0383 	ubfx	r3, r3, #2, #4
 8001250:	f884 13f0 	strb.w	r1, [r4, #1008]	; 0x3f0
 8001254:	f8c4 33f4 	str.w	r3, [r4, #1012]	; 0x3f4
 8001258:	f00a f9ac 	bl	800b5b4 <HAL_PCDEx_LPM_Callback>
 800125c:	6820      	ldr	r0, [r4, #0]
 800125e:	f002 f86d 	bl	800333c <USB_ReadInterrupts>
 8001262:	04c1      	lsls	r1, r0, #19
 8001264:	d535      	bpl.n	80012d2 <HAL_PCD_IRQHandler+0x186>
 8001266:	f507 6600 	add.w	r6, r7, #2048	; 0x800
 800126a:	6873      	ldr	r3, [r6, #4]
 800126c:	2110      	movs	r1, #16
 800126e:	6820      	ldr	r0, [r4, #0]
 8001270:	f023 0301 	bic.w	r3, r3, #1
 8001274:	6073      	str	r3, [r6, #4]
 8001276:	f001 fd09 	bl	8002c8c <USB_FlushTxFifo>
 800127a:	6860      	ldr	r0, [r4, #4]
 800127c:	f507 6310 	add.w	r3, r7, #2304	; 0x900
 8001280:	f64f 317f 	movw	r1, #64383	; 0xfb7f
 8001284:	9a02      	ldr	r2, [sp, #8]
 8001286:	4282      	cmp	r2, r0
 8001288:	f040 81e1 	bne.w	800164e <HAL_PCD_IRQHandler+0x502>
 800128c:	69f3      	ldr	r3, [r6, #28]
 800128e:	f043 1301 	orr.w	r3, r3, #65537	; 0x10001
 8001292:	61f3      	str	r3, [r6, #28]
 8001294:	6b23      	ldr	r3, [r4, #48]	; 0x30
 8001296:	2b00      	cmp	r3, #0
 8001298:	f000 81ed 	beq.w	8001676 <HAL_PCD_IRQHandler+0x52a>
 800129c:	f8d6 3084 	ldr.w	r3, [r6, #132]	; 0x84
 80012a0:	f043 030b 	orr.w	r3, r3, #11
 80012a4:	f8c6 3084 	str.w	r3, [r6, #132]	; 0x84
 80012a8:	6c73      	ldr	r3, [r6, #68]	; 0x44
 80012aa:	f043 030b 	orr.w	r3, r3, #11
 80012ae:	6473      	str	r3, [r6, #68]	; 0x44
 80012b0:	f8d7 3800 	ldr.w	r3, [r7, #2048]	; 0x800
 80012b4:	f504 7270 	add.w	r2, r4, #960	; 0x3c0
 80012b8:	7c21      	ldrb	r1, [r4, #16]
 80012ba:	f423 63fe 	bic.w	r3, r3, #2032	; 0x7f0
 80012be:	6820      	ldr	r0, [r4, #0]
 80012c0:	f8c7 3800 	str.w	r3, [r7, #2048]	; 0x800
 80012c4:	f002 f888 	bl	80033d8 <USB_EP0_OutStart>
 80012c8:	6822      	ldr	r2, [r4, #0]
 80012ca:	6953      	ldr	r3, [r2, #20]
 80012cc:	f403 5380 	and.w	r3, r3, #4096	; 0x1000
 80012d0:	6153      	str	r3, [r2, #20]
 80012d2:	6820      	ldr	r0, [r4, #0]
 80012d4:	f002 f832 	bl	800333c <USB_ReadInterrupts>
 80012d8:	0482      	lsls	r2, r0, #18
 80012da:	d51d      	bpl.n	8001318 <HAL_PCD_IRQHandler+0x1cc>
 80012dc:	6820      	ldr	r0, [r4, #0]
 80012de:	f002 f860 	bl	80033a2 <USB_ActivateSetup>
 80012e2:	6820      	ldr	r0, [r4, #0]
 80012e4:	68c3      	ldr	r3, [r0, #12]
 80012e6:	f423 5370 	bic.w	r3, r3, #15360	; 0x3c00
 80012ea:	60c3      	str	r3, [r0, #12]
 80012ec:	f001 fdb0 	bl	8002e50 <USB_GetDevSpeed>
 80012f0:	2800      	cmp	r0, #0
 80012f2:	f040 81c9 	bne.w	8001688 <HAL_PCD_IRQHandler+0x53c>
 80012f6:	f44f 7300 	mov.w	r3, #512	; 0x200
 80012fa:	6822      	ldr	r2, [r4, #0]
 80012fc:	60e0      	str	r0, [r4, #12]
 80012fe:	6163      	str	r3, [r4, #20]
 8001300:	68d3      	ldr	r3, [r2, #12]
 8001302:	f443 5310 	orr.w	r3, r3, #9216	; 0x2400
 8001306:	60d3      	str	r3, [r2, #12]
 8001308:	4620      	mov	r0, r4
 800130a:	f00a f856 	bl	800b3ba <HAL_PCD_ResetCallback>
 800130e:	6822      	ldr	r2, [r4, #0]
 8001310:	6953      	ldr	r3, [r2, #20]
 8001312:	f403 5300 	and.w	r3, r3, #8192	; 0x2000
 8001316:	6153      	str	r3, [r2, #20]
 8001318:	6820      	ldr	r0, [r4, #0]
 800131a:	f002 f80f 	bl	800333c <USB_ReadInterrupts>
 800131e:	06c3      	lsls	r3, r0, #27
 8001320:	d52b      	bpl.n	800137a <HAL_PCD_IRQHandler+0x22e>
 8001322:	6822      	ldr	r2, [r4, #0]
 8001324:	6993      	ldr	r3, [r2, #24]
 8001326:	f023 0310 	bic.w	r3, r3, #16
 800132a:	6193      	str	r3, [r2, #24]
 800132c:	6a3e      	ldr	r6, [r7, #32]
 800132e:	f3c6 4343 	ubfx	r3, r6, #17, #4
 8001332:	f006 090f 	and.w	r9, r6, #15
 8001336:	2b02      	cmp	r3, #2
 8001338:	f040 821c 	bne.w	8001774 <HAL_PCD_IRQHandler+0x628>
 800133c:	f647 73f0 	movw	r3, #32752	; 0x7ff0
 8001340:	421e      	tst	r6, r3
 8001342:	d015      	beq.n	8001370 <HAL_PCD_IRQHandler+0x224>
 8001344:	f04f 081c 	mov.w	r8, #28
 8001348:	f3c6 160a 	ubfx	r6, r6, #4, #11
 800134c:	4638      	mov	r0, r7
 800134e:	fb08 4809 	mla	r8, r8, r9, r4
 8001352:	4632      	mov	r2, r6
 8001354:	f8d8 1208 	ldr.w	r1, [r8, #520]	; 0x208
 8001358:	f001 ff62 	bl	8003220 <USB_ReadPacket>
 800135c:	f8d8 3208 	ldr.w	r3, [r8, #520]	; 0x208
 8001360:	4433      	add	r3, r6
 8001362:	f8c8 3208 	str.w	r3, [r8, #520]	; 0x208
 8001366:	f8d8 3214 	ldr.w	r3, [r8, #532]	; 0x214
 800136a:	441e      	add	r6, r3
 800136c:	f8c8 6214 	str.w	r6, [r8, #532]	; 0x214
 8001370:	6822      	ldr	r2, [r4, #0]
 8001372:	6993      	ldr	r3, [r2, #24]
 8001374:	f043 0310 	orr.w	r3, r3, #16
 8001378:	6193      	str	r3, [r2, #24]
 800137a:	6820      	ldr	r0, [r4, #0]
 800137c:	f001 ffde 	bl	800333c <USB_ReadInterrupts>
 8001380:	0707      	lsls	r7, r0, #28
 8001382:	d507      	bpl.n	8001394 <HAL_PCD_IRQHandler+0x248>
 8001384:	4620      	mov	r0, r4
 8001386:	f00a f814 	bl	800b3b2 <HAL_PCD_SOFCallback>
 800138a:	6822      	ldr	r2, [r4, #0]
 800138c:	6953      	ldr	r3, [r2, #20]
 800138e:	f003 0308 	and.w	r3, r3, #8
 8001392:	6153      	str	r3, [r2, #20]
 8001394:	6820      	ldr	r0, [r4, #0]
 8001396:	f001 ffd1 	bl	800333c <USB_ReadInterrupts>
 800139a:	02c6      	lsls	r6, r0, #11
 800139c:	d508      	bpl.n	80013b0 <HAL_PCD_IRQHandler+0x264>
 800139e:	b2e9      	uxtb	r1, r5
 80013a0:	4620      	mov	r0, r4
 80013a2:	f00a f83b 	bl	800b41c <HAL_PCD_ISOINIncompleteCallback>
 80013a6:	6822      	ldr	r2, [r4, #0]
 80013a8:	6953      	ldr	r3, [r2, #20]
 80013aa:	f403 1380 	and.w	r3, r3, #1048576	; 0x100000
 80013ae:	6153      	str	r3, [r2, #20]
 80013b0:	6820      	ldr	r0, [r4, #0]
 80013b2:	f001 ffc3 	bl	800333c <USB_ReadInterrupts>
 80013b6:	0280      	lsls	r0, r0, #10
 80013b8:	d508      	bpl.n	80013cc <HAL_PCD_IRQHandler+0x280>
 80013ba:	b2e9      	uxtb	r1, r5
 80013bc:	4620      	mov	r0, r4
 80013be:	f00a f829 	bl	800b414 <HAL_PCD_ISOOUTIncompleteCallback>
 80013c2:	6822      	ldr	r2, [r4, #0]
 80013c4:	6953      	ldr	r3, [r2, #20]
 80013c6:	f403 1300 	and.w	r3, r3, #2097152	; 0x200000
 80013ca:	6153      	str	r3, [r2, #20]
 80013cc:	6820      	ldr	r0, [r4, #0]
 80013ce:	f001 ffb5 	bl	800333c <USB_ReadInterrupts>
 80013d2:	0041      	lsls	r1, r0, #1
 80013d4:	d507      	bpl.n	80013e6 <HAL_PCD_IRQHandler+0x29a>
 80013d6:	4620      	mov	r0, r4
 80013d8:	f00a f824 	bl	800b424 <HAL_PCD_ConnectCallback>
 80013dc:	6822      	ldr	r2, [r4, #0]
 80013de:	6953      	ldr	r3, [r2, #20]
 80013e0:	f003 4380 	and.w	r3, r3, #1073741824	; 0x40000000
 80013e4:	6153      	str	r3, [r2, #20]
 80013e6:	6820      	ldr	r0, [r4, #0]
 80013e8:	f001 ffa8 	bl	800333c <USB_ReadInterrupts>
 80013ec:	0742      	lsls	r2, r0, #29
 80013ee:	d50a      	bpl.n	8001406 <HAL_PCD_IRQHandler+0x2ba>
 80013f0:	6823      	ldr	r3, [r4, #0]
 80013f2:	685d      	ldr	r5, [r3, #4]
 80013f4:	076b      	lsls	r3, r5, #29
 80013f6:	d502      	bpl.n	80013fe <HAL_PCD_IRQHandler+0x2b2>
 80013f8:	4620      	mov	r0, r4
 80013fa:	f00a f817 	bl	800b42c <HAL_PCD_DisconnectCallback>
 80013fe:	6823      	ldr	r3, [r4, #0]
 8001400:	685a      	ldr	r2, [r3, #4]
 8001402:	4315      	orrs	r5, r2
 8001404:	605d      	str	r5, [r3, #4]
 8001406:	b007      	add	sp, #28
 8001408:	e8bd 8ff0 	ldmia.w	sp!, {r4, r5, r6, r7, r8, r9, sl, fp, pc}
 800140c:	9b03      	ldr	r3, [sp, #12]
 800140e:	07d8      	lsls	r0, r3, #31
 8001410:	d577      	bpl.n	8001502 <HAL_PCD_IRQHandler+0x3b6>
 8001412:	b2ea      	uxtb	r2, r5
 8001414:	6820      	ldr	r0, [r4, #0]
 8001416:	4611      	mov	r1, r2
 8001418:	9204      	str	r2, [sp, #16]
 800141a:	f001 ffa3 	bl	8003364 <USB_ReadDevOutEPInterrupt>
 800141e:	f010 0f01 	tst.w	r0, #1
 8001422:	4683      	mov	fp, r0
 8001424:	d039      	beq.n	800149a <HAL_PCD_IRQHandler+0x34e>
 8001426:	4bb5      	ldr	r3, [pc, #724]	; (80016fc <HAL_PCD_IRQHandler+0x5b0>)
 8001428:	2101      	movs	r1, #1
 800142a:	9a04      	ldr	r2, [sp, #16]
 800142c:	459a      	cmp	sl, r3
 800142e:	f8c9 1008 	str.w	r1, [r9, #8]
 8001432:	6921      	ldr	r1, [r4, #16]
 8001434:	d918      	bls.n	8001468 <HAL_PCD_IRQHandler+0x31c>
 8001436:	2901      	cmp	r1, #1
 8001438:	d116      	bne.n	8001468 <HAL_PCD_IRQHandler+0x31c>
 800143a:	f8d8 1008 	ldr.w	r1, [r8, #8]
 800143e:	0409      	lsls	r1, r1, #16
 8001440:	d503      	bpl.n	800144a <HAL_PCD_IRQHandler+0x2fe>
 8001442:	f44f 4100 	mov.w	r1, #32768	; 0x8000
 8001446:	f8c9 1008 	str.w	r1, [r9, #8]
 800144a:	f8d9 1010 	ldr.w	r1, [r9, #16]
 800144e:	f8d6 0204 	ldr.w	r0, [r6, #516]	; 0x204
 8001452:	f3c1 0112 	ubfx	r1, r1, #0, #19
 8001456:	1a41      	subs	r1, r0, r1
 8001458:	f8c6 1214 	str.w	r1, [r6, #532]	; 0x214
 800145c:	f8d6 1208 	ldr.w	r1, [r6, #520]	; 0x208
 8001460:	4408      	add	r0, r1
 8001462:	f8c6 0208 	str.w	r0, [r6, #520]	; 0x208
 8001466:	e001      	b.n	800146c <HAL_PCD_IRQHandler+0x320>
 8001468:	2901      	cmp	r1, #1
 800146a:	d0ee      	beq.n	800144a <HAL_PCD_IRQHandler+0x2fe>
 800146c:	4ba4      	ldr	r3, [pc, #656]	; (8001700 <HAL_PCD_IRQHandler+0x5b4>)
 800146e:	459a      	cmp	sl, r3
 8001470:	d12d      	bne.n	80014ce <HAL_PCD_IRQHandler+0x382>
 8001472:	f8d8 1008 	ldr.w	r1, [r8, #8]
 8001476:	040b      	lsls	r3, r1, #16
 8001478:	d529      	bpl.n	80014ce <HAL_PCD_IRQHandler+0x382>
 800147a:	f44f 4200 	mov.w	r2, #32768	; 0x8000
 800147e:	f8c9 2008 	str.w	r2, [r9, #8]
 8001482:	6921      	ldr	r1, [r4, #16]
 8001484:	2901      	cmp	r1, #1
 8001486:	d108      	bne.n	800149a <HAL_PCD_IRQHandler+0x34e>
 8001488:	b93d      	cbnz	r5, 800149a <HAL_PCD_IRQHandler+0x34e>
 800148a:	f8d4 2210 	ldr.w	r2, [r4, #528]	; 0x210
 800148e:	b922      	cbnz	r2, 800149a <HAL_PCD_IRQHandler+0x34e>
 8001490:	f504 7270 	add.w	r2, r4, #960	; 0x3c0
 8001494:	6820      	ldr	r0, [r4, #0]
 8001496:	f001 ff9f 	bl	80033d8 <USB_EP0_OutStart>
 800149a:	f01b 0f08 	tst.w	fp, #8
 800149e:	d024      	beq.n	80014ea <HAL_PCD_IRQHandler+0x39e>
 80014a0:	4b97      	ldr	r3, [pc, #604]	; (8001700 <HAL_PCD_IRQHandler+0x5b4>)
 80014a2:	459a      	cmp	sl, r3
 80014a4:	d118      	bne.n	80014d8 <HAL_PCD_IRQHandler+0x38c>
 80014a6:	f8d8 2008 	ldr.w	r2, [r8, #8]
 80014aa:	0410      	lsls	r0, r2, #16
 80014ac:	d503      	bpl.n	80014b6 <HAL_PCD_IRQHandler+0x36a>
 80014ae:	f44f 4200 	mov.w	r2, #32768	; 0x8000
 80014b2:	f8c9 2008 	str.w	r2, [r9, #8]
 80014b6:	6922      	ldr	r2, [r4, #16]
 80014b8:	2a01      	cmp	r2, #1
 80014ba:	d110      	bne.n	80014de <HAL_PCD_IRQHandler+0x392>
 80014bc:	f8d8 2008 	ldr.w	r2, [r8, #8]
 80014c0:	0411      	lsls	r1, r2, #16
 80014c2:	d50c      	bpl.n	80014de <HAL_PCD_IRQHandler+0x392>
 80014c4:	f44f 4200 	mov.w	r2, #32768	; 0x8000
 80014c8:	f8c9 2008 	str.w	r2, [r9, #8]
 80014cc:	e007      	b.n	80014de <HAL_PCD_IRQHandler+0x392>
 80014ce:	4611      	mov	r1, r2
 80014d0:	4620      	mov	r0, r4
 80014d2:	f009 ff5d 	bl	800b390 <HAL_PCD_DataOutStageCallback>
 80014d6:	e7d4      	b.n	8001482 <HAL_PCD_IRQHandler+0x336>
 80014d8:	4b88      	ldr	r3, [pc, #544]	; (80016fc <HAL_PCD_IRQHandler+0x5b0>)
 80014da:	459a      	cmp	sl, r3
 80014dc:	d8eb      	bhi.n	80014b6 <HAL_PCD_IRQHandler+0x36a>
 80014de:	4620      	mov	r0, r4
 80014e0:	f009 ff50 	bl	800b384 <HAL_PCD_SetupStageCallback>
 80014e4:	2208      	movs	r2, #8
 80014e6:	f8c9 2008 	str.w	r2, [r9, #8]
 80014ea:	f01b 0f10 	tst.w	fp, #16
 80014ee:	d002      	beq.n	80014f6 <HAL_PCD_IRQHandler+0x3aa>
 80014f0:	2210      	movs	r2, #16
 80014f2:	f8c9 2008 	str.w	r2, [r9, #8]
 80014f6:	f01b 0f20 	tst.w	fp, #32
 80014fa:	d002      	beq.n	8001502 <HAL_PCD_IRQHandler+0x3b6>
 80014fc:	2320      	movs	r3, #32
 80014fe:	f8c9 3008 	str.w	r3, [r9, #8]
 8001502:	9b03      	ldr	r3, [sp, #12]
 8001504:	3501      	adds	r5, #1
 8001506:	f109 0920 	add.w	r9, r9, #32
 800150a:	361c      	adds	r6, #28
 800150c:	085b      	lsrs	r3, r3, #1
 800150e:	9303      	str	r3, [sp, #12]
 8001510:	e649      	b.n	80011a6 <HAL_PCD_IRQHandler+0x5a>
 8001512:	f01b 0f01 	tst.w	fp, #1
 8001516:	d071      	beq.n	80015fc <HAL_PCD_IRQHandler+0x4b0>
 8001518:	b2eb      	uxtb	r3, r5
 800151a:	6820      	ldr	r0, [r4, #0]
 800151c:	4619      	mov	r1, r3
 800151e:	9303      	str	r3, [sp, #12]
 8001520:	f001 ff29 	bl	8003376 <USB_ReadDevInEPInterrupt>
 8001524:	f010 0f01 	tst.w	r0, #1
 8001528:	4680      	mov	r8, r0
 800152a:	d022      	beq.n	8001572 <HAL_PCD_IRQHandler+0x426>
 800152c:	2001      	movs	r0, #1
 800152e:	f005 020f 	and.w	r2, r5, #15
 8001532:	f8d7 3834 	ldr.w	r3, [r7, #2100]	; 0x834
 8001536:	fa00 f202 	lsl.w	r2, r0, r2
 800153a:	9903      	ldr	r1, [sp, #12]
 800153c:	ea23 0302 	bic.w	r3, r3, r2
 8001540:	f8c7 3834 	str.w	r3, [r7, #2100]	; 0x834
 8001544:	6923      	ldr	r3, [r4, #16]
 8001546:	f8c9 0008 	str.w	r0, [r9, #8]
 800154a:	4283      	cmp	r3, r0
 800154c:	4620      	mov	r0, r4
 800154e:	bf01      	itttt	eq
 8001550:	6cb3      	ldreq	r3, [r6, #72]	; 0x48
 8001552:	6c72      	ldreq	r2, [r6, #68]	; 0x44
 8001554:	189b      	addeq	r3, r3, r2
 8001556:	64b3      	streq	r3, [r6, #72]	; 0x48
 8001558:	f009 ff23 	bl	800b3a2 <HAL_PCD_DataInStageCallback>
 800155c:	6921      	ldr	r1, [r4, #16]
 800155e:	2901      	cmp	r1, #1
 8001560:	d107      	bne.n	8001572 <HAL_PCD_IRQHandler+0x426>
 8001562:	b935      	cbnz	r5, 8001572 <HAL_PCD_IRQHandler+0x426>
 8001564:	6d23      	ldr	r3, [r4, #80]	; 0x50
 8001566:	b923      	cbnz	r3, 8001572 <HAL_PCD_IRQHandler+0x426>
 8001568:	f504 7270 	add.w	r2, r4, #960	; 0x3c0
 800156c:	6820      	ldr	r0, [r4, #0]
 800156e:	f001 ff33 	bl	80033d8 <USB_EP0_OutStart>
 8001572:	f018 0f08 	tst.w	r8, #8
 8001576:	d002      	beq.n	800157e <HAL_PCD_IRQHandler+0x432>
 8001578:	2308      	movs	r3, #8
 800157a:	f8c9 3008 	str.w	r3, [r9, #8]
 800157e:	f018 0f10 	tst.w	r8, #16
 8001582:	d002      	beq.n	800158a <HAL_PCD_IRQHandler+0x43e>
 8001584:	2310      	movs	r3, #16
 8001586:	f8c9 3008 	str.w	r3, [r9, #8]
 800158a:	f018 0f40 	tst.w	r8, #64	; 0x40
 800158e:	d002      	beq.n	8001596 <HAL_PCD_IRQHandler+0x44a>
 8001590:	2340      	movs	r3, #64	; 0x40
 8001592:	f8c9 3008 	str.w	r3, [r9, #8]
 8001596:	f018 0f02 	tst.w	r8, #2
 800159a:	d002      	beq.n	80015a2 <HAL_PCD_IRQHandler+0x456>
 800159c:	2302      	movs	r3, #2
 800159e:	f8c9 3008 	str.w	r3, [r9, #8]
 80015a2:	f018 0f80 	tst.w	r8, #128	; 0x80
 80015a6:	d029      	beq.n	80015fc <HAL_PCD_IRQHandler+0x4b0>
 80015a8:	6823      	ldr	r3, [r4, #0]
 80015aa:	6d72      	ldr	r2, [r6, #84]	; 0x54
 80015ac:	9304      	str	r3, [sp, #16]
 80015ae:	6d33      	ldr	r3, [r6, #80]	; 0x50
 80015b0:	eba3 0802 	sub.w	r8, r3, r2
 80015b4:	6c73      	ldr	r3, [r6, #68]	; 0x44
 80015b6:	4598      	cmp	r8, r3
 80015b8:	bf28      	it	cs
 80015ba:	4698      	movcs	r8, r3
 80015bc:	9b04      	ldr	r3, [sp, #16]
 80015be:	f108 0a03 	add.w	sl, r8, #3
 80015c2:	f503 6310 	add.w	r3, r3, #2304	; 0x900
 80015c6:	ea4f 0a9a 	mov.w	sl, sl, lsr #2
 80015ca:	eb03 1345 	add.w	r3, r3, r5, lsl #5
 80015ce:	9305      	str	r3, [sp, #20]
 80015d0:	9b05      	ldr	r3, [sp, #20]
 80015d2:	699b      	ldr	r3, [r3, #24]
 80015d4:	b29b      	uxth	r3, r3
 80015d6:	4553      	cmp	r3, sl
 80015d8:	d904      	bls.n	80015e4 <HAL_PCD_IRQHandler+0x498>
 80015da:	6d72      	ldr	r2, [r6, #84]	; 0x54
 80015dc:	6d33      	ldr	r3, [r6, #80]	; 0x50
 80015de:	4293      	cmp	r3, r2
 80015e0:	d900      	bls.n	80015e4 <HAL_PCD_IRQHandler+0x498>
 80015e2:	b993      	cbnz	r3, 800160a <HAL_PCD_IRQHandler+0x4be>
 80015e4:	f1b8 0f00 	cmp.w	r8, #0
 80015e8:	d108      	bne.n	80015fc <HAL_PCD_IRQHandler+0x4b0>
 80015ea:	9b04      	ldr	r3, [sp, #16]
 80015ec:	2101      	movs	r1, #1
 80015ee:	f8d3 2834 	ldr.w	r2, [r3, #2100]	; 0x834
 80015f2:	40a9      	lsls	r1, r5
 80015f4:	ea22 0201 	bic.w	r2, r2, r1
 80015f8:	f8c3 2834 	str.w	r2, [r3, #2100]	; 0x834
 80015fc:	3501      	adds	r5, #1
 80015fe:	ea4f 0b5b 	mov.w	fp, fp, lsr #1
 8001602:	361c      	adds	r6, #28
 8001604:	f109 0920 	add.w	r9, r9, #32
 8001608:	e5de      	b.n	80011c8 <HAL_PCD_IRQHandler+0x7c>
 800160a:	eba3 0802 	sub.w	r8, r3, r2
 800160e:	6c73      	ldr	r3, [r6, #68]	; 0x44
 8001610:	9a03      	ldr	r2, [sp, #12]
 8001612:	4598      	cmp	r8, r3
 8001614:	9804      	ldr	r0, [sp, #16]
 8001616:	bf28      	it	cs
 8001618:	4698      	movcs	r8, r3
 800161a:	7c23      	ldrb	r3, [r4, #16]
 800161c:	9300      	str	r3, [sp, #0]
 800161e:	fa1f f388 	uxth.w	r3, r8
 8001622:	6cb1      	ldr	r1, [r6, #72]	; 0x48
 8001624:	f108 0a03 	add.w	sl, r8, #3
 8001628:	f001 fd14 	bl	8003054 <USB_WritePacket>
 800162c:	6cb3      	ldr	r3, [r6, #72]	; 0x48
 800162e:	ea4f 0a9a 	mov.w	sl, sl, lsr #2
 8001632:	4443      	add	r3, r8
 8001634:	64b3      	str	r3, [r6, #72]	; 0x48
 8001636:	6d73      	ldr	r3, [r6, #84]	; 0x54
 8001638:	4443      	add	r3, r8
 800163a:	6573      	str	r3, [r6, #84]	; 0x54
 800163c:	e7c8      	b.n	80015d0 <HAL_PCD_IRQHandler+0x484>
 800163e:	4620      	mov	r0, r4
 8001640:	f009 fee4 	bl	800b40c <HAL_PCD_ResumeCallback>
 8001644:	e5da      	b.n	80011fc <HAL_PCD_IRQHandler+0xb0>
 8001646:	4620      	mov	r0, r4
 8001648:	f009 fec8 	bl	800b3dc <HAL_PCD_SuspendCallback>
 800164c:	e606      	b.n	800125c <HAL_PCD_IRQHandler+0x110>
 800164e:	6099      	str	r1, [r3, #8]
 8001650:	3320      	adds	r3, #32
 8001652:	f853 2c20 	ldr.w	r2, [r3, #-32]
 8001656:	f422 1200 	bic.w	r2, r2, #2097152	; 0x200000
 800165a:	f843 2c20 	str.w	r2, [r3, #-32]
 800165e:	f8c3 11e8 	str.w	r1, [r3, #488]	; 0x1e8
 8001662:	f8d3 21e0 	ldr.w	r2, [r3, #480]	; 0x1e0
 8001666:	f422 1200 	bic.w	r2, r2, #2097152	; 0x200000
 800166a:	f8c3 21e0 	str.w	r2, [r3, #480]	; 0x1e0
 800166e:	9a02      	ldr	r2, [sp, #8]
 8001670:	3201      	adds	r2, #1
 8001672:	9202      	str	r2, [sp, #8]
 8001674:	e606      	b.n	8001284 <HAL_PCD_IRQHandler+0x138>
 8001676:	6973      	ldr	r3, [r6, #20]
 8001678:	f043 032b 	orr.w	r3, r3, #43	; 0x2b
 800167c:	6173      	str	r3, [r6, #20]
 800167e:	6933      	ldr	r3, [r6, #16]
 8001680:	f043 030b 	orr.w	r3, r3, #11
 8001684:	6133      	str	r3, [r6, #16]
 8001686:	e613      	b.n	80012b0 <HAL_PCD_IRQHandler+0x164>
 8001688:	2303      	movs	r3, #3
 800168a:	60e3      	str	r3, [r4, #12]
 800168c:	2340      	movs	r3, #64	; 0x40
 800168e:	6163      	str	r3, [r4, #20]
 8001690:	f000 fc50 	bl	8001f34 <HAL_RCC_GetHCLKFreq>
 8001694:	4b1b      	ldr	r3, [pc, #108]	; (8001704 <HAL_PCD_IRQHandler+0x5b8>)
 8001696:	4a1c      	ldr	r2, [pc, #112]	; (8001708 <HAL_PCD_IRQHandler+0x5bc>)
 8001698:	4403      	add	r3, r0
 800169a:	4293      	cmp	r3, r2
 800169c:	6823      	ldr	r3, [r4, #0]
 800169e:	d804      	bhi.n	80016aa <HAL_PCD_IRQHandler+0x55e>
 80016a0:	68da      	ldr	r2, [r3, #12]
 80016a2:	f442 5270 	orr.w	r2, r2, #15360	; 0x3c00
 80016a6:	60da      	str	r2, [r3, #12]
 80016a8:	e62e      	b.n	8001308 <HAL_PCD_IRQHandler+0x1bc>
 80016aa:	4a18      	ldr	r2, [pc, #96]	; (800170c <HAL_PCD_IRQHandler+0x5c0>)
 80016ac:	4918      	ldr	r1, [pc, #96]	; (8001710 <HAL_PCD_IRQHandler+0x5c4>)
 80016ae:	4402      	add	r2, r0
 80016b0:	428a      	cmp	r2, r1
 80016b2:	d803      	bhi.n	80016bc <HAL_PCD_IRQHandler+0x570>
 80016b4:	68da      	ldr	r2, [r3, #12]
 80016b6:	f442 5260 	orr.w	r2, r2, #14336	; 0x3800
 80016ba:	e7f4      	b.n	80016a6 <HAL_PCD_IRQHandler+0x55a>
 80016bc:	f5a0 0274 	sub.w	r2, r0, #15990784	; 0xf40000
 80016c0:	4914      	ldr	r1, [pc, #80]	; (8001714 <HAL_PCD_IRQHandler+0x5c8>)
 80016c2:	f5a2 5210 	sub.w	r2, r2, #9216	; 0x2400
 80016c6:	428a      	cmp	r2, r1
 80016c8:	d803      	bhi.n	80016d2 <HAL_PCD_IRQHandler+0x586>
 80016ca:	68da      	ldr	r2, [r3, #12]
 80016cc:	f442 5250 	orr.w	r2, r2, #13312	; 0x3400
 80016d0:	e7e9      	b.n	80016a6 <HAL_PCD_IRQHandler+0x55a>
 80016d2:	f1a0 7283 	sub.w	r2, r0, #17170432	; 0x1060000
 80016d6:	4910      	ldr	r1, [pc, #64]	; (8001718 <HAL_PCD_IRQHandler+0x5cc>)
 80016d8:	f5a2 42e7 	sub.w	r2, r2, #29568	; 0x7380
 80016dc:	428a      	cmp	r2, r1
 80016de:	d803      	bhi.n	80016e8 <HAL_PCD_IRQHandler+0x59c>
 80016e0:	68da      	ldr	r2, [r3, #12]
 80016e2:	f442 5240 	orr.w	r2, r2, #12288	; 0x3000
 80016e6:	e7de      	b.n	80016a6 <HAL_PCD_IRQHandler+0x55a>
 80016e8:	4a0c      	ldr	r2, [pc, #48]	; (800171c <HAL_PCD_IRQHandler+0x5d0>)
 80016ea:	490d      	ldr	r1, [pc, #52]	; (8001720 <HAL_PCD_IRQHandler+0x5d4>)
 80016ec:	4402      	add	r2, r0
 80016ee:	428a      	cmp	r2, r1
 80016f0:	d818      	bhi.n	8001724 <HAL_PCD_IRQHandler+0x5d8>
 80016f2:	68da      	ldr	r2, [r3, #12]
 80016f4:	f442 5230 	orr.w	r2, r2, #11264	; 0x2c00
 80016f8:	e7d5      	b.n	80016a6 <HAL_PCD_IRQHandler+0x55a>
 80016fa:	bf00      	nop
 80016fc:	4f54300a 	.word	0x4f54300a
 8001700:	4f54310a 	.word	0x4f54310a
 8001704:	ff275340 	.word	0xff275340
 8001708:	000c34ff 	.word	0x000c34ff
 800170c:	ff1b1e40 	.word	0xff1b1e40
 8001710:	000f423f 	.word	0x000f423f
 8001714:	00124f7f 	.word	0x00124f7f
 8001718:	0013d61f 	.word	0x0013d61f
 800171c:	fee5b660 	.word	0xfee5b660
 8001720:	0016e35f 	.word	0x0016e35f
 8001724:	4a1b      	ldr	r2, [pc, #108]	; (8001794 <HAL_PCD_IRQHandler+0x648>)
 8001726:	491c      	ldr	r1, [pc, #112]	; (8001798 <HAL_PCD_IRQHandler+0x64c>)
 8001728:	4402      	add	r2, r0
 800172a:	428a      	cmp	r2, r1
 800172c:	d803      	bhi.n	8001736 <HAL_PCD_IRQHandler+0x5ea>
 800172e:	68da      	ldr	r2, [r3, #12]
 8001730:	f442 5220 	orr.w	r2, r2, #10240	; 0x2800
 8001734:	e7b7      	b.n	80016a6 <HAL_PCD_IRQHandler+0x55a>
 8001736:	4a19      	ldr	r2, [pc, #100]	; (800179c <HAL_PCD_IRQHandler+0x650>)
 8001738:	4919      	ldr	r1, [pc, #100]	; (80017a0 <HAL_PCD_IRQHandler+0x654>)
 800173a:	4402      	add	r2, r0
 800173c:	428a      	cmp	r2, r1
 800173e:	d803      	bhi.n	8001748 <HAL_PCD_IRQHandler+0x5fc>
 8001740:	68da      	ldr	r2, [r3, #12]
 8001742:	f442 5210 	orr.w	r2, r2, #9216	; 0x2400
 8001746:	e7ae      	b.n	80016a6 <HAL_PCD_IRQHandler+0x55a>
 8001748:	f1a0 72b7 	sub.w	r2, r0, #23986176	; 0x16e0000
 800174c:	4915      	ldr	r1, [pc, #84]	; (80017a4 <HAL_PCD_IRQHandler+0x658>)
 800174e:	f5a2 5258 	sub.w	r2, r2, #13824	; 0x3600
 8001752:	428a      	cmp	r2, r1
 8001754:	d803      	bhi.n	800175e <HAL_PCD_IRQHandler+0x612>
 8001756:	68da      	ldr	r2, [r3, #12]
 8001758:	f442 5200 	orr.w	r2, r2, #8192	; 0x2000
 800175c:	e7a3      	b.n	80016a6 <HAL_PCD_IRQHandler+0x55a>
 800175e:	4a12      	ldr	r2, [pc, #72]	; (80017a8 <HAL_PCD_IRQHandler+0x65c>)
 8001760:	4912      	ldr	r1, [pc, #72]	; (80017ac <HAL_PCD_IRQHandler+0x660>)
 8001762:	4402      	add	r2, r0
 8001764:	428a      	cmp	r2, r1
 8001766:	68da      	ldr	r2, [r3, #12]
 8001768:	bf94      	ite	ls
 800176a:	f442 52e0 	orrls.w	r2, r2, #7168	; 0x1c00
 800176e:	f442 52c0 	orrhi.w	r2, r2, #6144	; 0x1800
 8001772:	e798      	b.n	80016a6 <HAL_PCD_IRQHandler+0x55a>
 8001774:	2b06      	cmp	r3, #6
 8001776:	f47f adfb 	bne.w	8001370 <HAL_PCD_IRQHandler+0x224>
 800177a:	f04f 081c 	mov.w	r8, #28
 800177e:	2208      	movs	r2, #8
 8001780:	f504 7170 	add.w	r1, r4, #960	; 0x3c0
 8001784:	4638      	mov	r0, r7
 8001786:	f001 fd4b 	bl	8003220 <USB_ReadPacket>
 800178a:	fb08 4809 	mla	r8, r8, r9, r4
 800178e:	f3c6 160a 	ubfx	r6, r6, #4, #11
 8001792:	e5e8      	b.n	8001366 <HAL_PCD_IRQHandler+0x21a>
 8001794:	feced300 	.word	0xfeced300
 8001798:	001b773f 	.word	0x001b773f
 800179c:	feb35bc0 	.word	0xfeb35bc0
 80017a0:	002191bf 	.word	0x002191bf
 80017a4:	0038751f 	.word	0x0038751f
 80017a8:	fe5954e0 	.word	0xfe5954e0
 80017ac:	00419cdf 	.word	0x00419cdf

080017b0 <HAL_PCD_SetAddress>:
 80017b0:	f890 23bc 	ldrb.w	r2, [r0, #956]	; 0x3bc
 80017b4:	2a01      	cmp	r2, #1
 80017b6:	b510      	push	{r4, lr}
 80017b8:	4604      	mov	r4, r0
 80017ba:	d00b      	beq.n	80017d4 <HAL_PCD_SetAddress+0x24>
 80017bc:	2201      	movs	r2, #1
 80017be:	f880 23bc 	strb.w	r2, [r0, #956]	; 0x3bc
 80017c2:	f884 1038 	strb.w	r1, [r4, #56]	; 0x38
 80017c6:	6800      	ldr	r0, [r0, #0]
 80017c8:	f001 fd90 	bl	80032ec <USB_SetDevAddress>
 80017cc:	2000      	movs	r0, #0
 80017ce:	f884 03bc 	strb.w	r0, [r4, #956]	; 0x3bc
 80017d2:	bd10      	pop	{r4, pc}
 80017d4:	2002      	movs	r0, #2
 80017d6:	bd10      	pop	{r4, pc}

080017d8 <HAL_PCD_EP_Open>:
 80017d8:	b570      	push	{r4, r5, r6, lr}
 80017da:	4604      	mov	r4, r0
 80017dc:	f001 000f 	and.w	r0, r1, #15
 80017e0:	261c      	movs	r6, #28
 80017e2:	f011 0f80 	tst.w	r1, #128	; 0x80
 80017e6:	b2c5      	uxtb	r5, r0
 80017e8:	b2c0      	uxtb	r0, r0
 80017ea:	fb06 4105 	mla	r1, r6, r5, r4
 80017ee:	bf1d      	ittte	ne
 80017f0:	fb06 4505 	mlane	r5, r6, r5, r4
 80017f4:	2601      	movne	r6, #1
 80017f6:	313c      	addne	r1, #60	; 0x3c
 80017f8:	f501 71fe 	addeq.w	r1, r1, #508	; 0x1fc
 80017fc:	bf05      	ittet	eq
 80017fe:	fb06 4505 	mlaeq	r5, r6, r5, r4
 8001802:	2600      	moveq	r6, #0
 8001804:	f885 603d 	strbne.w	r6, [r5, #61]	; 0x3d
 8001808:	f885 61fd 	strbeq.w	r6, [r5, #509]	; 0x1fd
 800180c:	608a      	str	r2, [r1, #8]
 800180e:	784a      	ldrb	r2, [r1, #1]
 8001810:	7008      	strb	r0, [r1, #0]
 8001812:	70cb      	strb	r3, [r1, #3]
 8001814:	b102      	cbz	r2, 8001818 <HAL_PCD_EP_Open+0x40>
 8001816:	80c8      	strh	r0, [r1, #6]
 8001818:	2b02      	cmp	r3, #2
 800181a:	bf04      	itt	eq
 800181c:	2300      	moveq	r3, #0
 800181e:	710b      	strbeq	r3, [r1, #4]
 8001820:	f894 33bc 	ldrb.w	r3, [r4, #956]	; 0x3bc
 8001824:	2b01      	cmp	r3, #1
 8001826:	d009      	beq.n	800183c <HAL_PCD_EP_Open+0x64>
 8001828:	2301      	movs	r3, #1
 800182a:	6820      	ldr	r0, [r4, #0]
 800182c:	f884 33bc 	strb.w	r3, [r4, #956]	; 0x3bc
 8001830:	f001 fb1c 	bl	8002e6c <USB_ActivateEndpoint>
 8001834:	2000      	movs	r0, #0
 8001836:	f884 03bc 	strb.w	r0, [r4, #956]	; 0x3bc
 800183a:	bd70      	pop	{r4, r5, r6, pc}
 800183c:	2002      	movs	r0, #2
 800183e:	bd70      	pop	{r4, r5, r6, pc}

08001840 <HAL_PCD_EP_Close>:
 8001840:	f001 030f 	and.w	r3, r1, #15
 8001844:	f011 0f80 	tst.w	r1, #128	; 0x80
 8001848:	b2da      	uxtb	r2, r3
 800184a:	b510      	push	{r4, lr}
 800184c:	4604      	mov	r4, r0
 800184e:	f04f 001c 	mov.w	r0, #28
 8001852:	fb00 4102 	mla	r1, r0, r2, r4
 8001856:	bf1b      	ittet	ne
 8001858:	fb00 4202 	mlane	r2, r0, r2, r4
 800185c:	2001      	movne	r0, #1
 800185e:	fb00 4202 	mlaeq	r2, r0, r2, r4
 8001862:	313c      	addne	r1, #60	; 0x3c
 8001864:	bf05      	ittet	eq
 8001866:	f501 71fe 	addeq.w	r1, r1, #508	; 0x1fc
 800186a:	2000      	moveq	r0, #0
 800186c:	f882 003d 	strbne.w	r0, [r2, #61]	; 0x3d
 8001870:	f882 01fd 	strbeq.w	r0, [r2, #509]	; 0x1fd
 8001874:	700b      	strb	r3, [r1, #0]
 8001876:	f894 33bc 	ldrb.w	r3, [r4, #956]	; 0x3bc
 800187a:	2b01      	cmp	r3, #1
 800187c:	d009      	beq.n	8001892 <HAL_PCD_EP_Close+0x52>
 800187e:	2301      	movs	r3, #1
 8001880:	6820      	ldr	r0, [r4, #0]
 8001882:	f884 33bc 	strb.w	r3, [r4, #956]	; 0x3bc
 8001886:	f001 fb33 	bl	8002ef0 <USB_DeactivateEndpoint>
 800188a:	2000      	movs	r0, #0
 800188c:	f884 03bc 	strb.w	r0, [r4, #956]	; 0x3bc
 8001890:	bd10      	pop	{r4, pc}
 8001892:	2002      	movs	r0, #2
 8001894:	bd10      	pop	{r4, pc}

08001896 <HAL_PCD_EP_Receive>:
 8001896:	b538      	push	{r3, r4, r5, lr}
 8001898:	f001 050f 	and.w	r5, r1, #15
 800189c:	241c      	movs	r4, #28
 800189e:	fb04 0105 	mla	r1, r4, r5, r0
 80018a2:	fb04 0405 	mla	r4, r4, r5, r0
 80018a6:	f501 71fe 	add.w	r1, r1, #508	; 0x1fc
 80018aa:	f8c4 3210 	str.w	r3, [r4, #528]	; 0x210
 80018ae:	2300      	movs	r3, #0
 80018b0:	f8c4 2208 	str.w	r2, [r4, #520]	; 0x208
 80018b4:	f8c4 3214 	str.w	r3, [r4, #532]	; 0x214
 80018b8:	f884 31fd 	strb.w	r3, [r4, #509]	; 0x1fd
 80018bc:	f884 51fc 	strb.w	r5, [r4, #508]	; 0x1fc
 80018c0:	6903      	ldr	r3, [r0, #16]
 80018c2:	6800      	ldr	r0, [r0, #0]
 80018c4:	2b01      	cmp	r3, #1
 80018c6:	bf08      	it	eq
 80018c8:	f8c4 220c 	streq.w	r2, [r4, #524]	; 0x20c
 80018cc:	b2da      	uxtb	r2, r3
 80018ce:	b91d      	cbnz	r5, 80018d8 <HAL_PCD_EP_Receive+0x42>
 80018d0:	f001 fb40 	bl	8002f54 <USB_EP0StartXfer>
 80018d4:	2000      	movs	r0, #0
 80018d6:	bd38      	pop	{r3, r4, r5, pc}
 80018d8:	f001 fbd0 	bl	800307c <USB_EPStartXfer>
 80018dc:	e7fa      	b.n	80018d4 <HAL_PCD_EP_Receive+0x3e>

080018de <HAL_PCD_EP_GetRxCount>:
 80018de:	231c      	movs	r3, #28
 80018e0:	f001 010f 	and.w	r1, r1, #15
 80018e4:	fb03 0101 	mla	r1, r3, r1, r0
 80018e8:	f8b1 0214 	ldrh.w	r0, [r1, #532]	; 0x214
 80018ec:	4770      	bx	lr

080018ee <HAL_PCD_EP_Transmit>:
 80018ee:	b538      	push	{r3, r4, r5, lr}
 80018f0:	f001 050f 	and.w	r5, r1, #15
 80018f4:	241c      	movs	r4, #28
 80018f6:	fb04 0105 	mla	r1, r4, r5, r0
 80018fa:	fb04 0405 	mla	r4, r4, r5, r0
 80018fe:	313c      	adds	r1, #60	; 0x3c
 8001900:	6523      	str	r3, [r4, #80]	; 0x50
 8001902:	2300      	movs	r3, #0
 8001904:	64a2      	str	r2, [r4, #72]	; 0x48
 8001906:	6563      	str	r3, [r4, #84]	; 0x54
 8001908:	2301      	movs	r3, #1
 800190a:	f884 503c 	strb.w	r5, [r4, #60]	; 0x3c
 800190e:	f884 303d 	strb.w	r3, [r4, #61]	; 0x3d
 8001912:	6903      	ldr	r3, [r0, #16]
 8001914:	6800      	ldr	r0, [r0, #0]
 8001916:	2b01      	cmp	r3, #1
 8001918:	bf08      	it	eq
 800191a:	64e2      	streq	r2, [r4, #76]	; 0x4c
 800191c:	b2da      	uxtb	r2, r3
 800191e:	b91d      	cbnz	r5, 8001928 <HAL_PCD_EP_Transmit+0x3a>
 8001920:	f001 fb18 	bl	8002f54 <USB_EP0StartXfer>
 8001924:	2000      	movs	r0, #0
 8001926:	bd38      	pop	{r3, r4, r5, pc}
 8001928:	f001 fba8 	bl	800307c <USB_EPStartXfer>
 800192c:	e7fa      	b.n	8001924 <HAL_PCD_EP_Transmit+0x36>

0800192e <HAL_PCD_EP_SetStall>:
 800192e:	b538      	push	{r3, r4, r5, lr}
 8001930:	f001 050f 	and.w	r5, r1, #15
 8001934:	6843      	ldr	r3, [r0, #4]
 8001936:	4604      	mov	r4, r0
 8001938:	429d      	cmp	r5, r3
 800193a:	d82e      	bhi.n	800199a <HAL_PCD_EP_SetStall+0x6c>
 800193c:	f011 0f80 	tst.w	r1, #128	; 0x80
 8001940:	f04f 021c 	mov.w	r2, #28
 8001944:	d01f      	beq.n	8001986 <HAL_PCD_EP_SetStall+0x58>
 8001946:	fb02 0305 	mla	r3, r2, r5, r0
 800194a:	fb02 0105 	mla	r1, r2, r5, r0
 800194e:	2201      	movs	r2, #1
 8001950:	333c      	adds	r3, #60	; 0x3c
 8001952:	f881 203d 	strb.w	r2, [r1, #61]	; 0x3d
 8001956:	2201      	movs	r2, #1
 8001958:	701d      	strb	r5, [r3, #0]
 800195a:	709a      	strb	r2, [r3, #2]
 800195c:	f894 13bc 	ldrb.w	r1, [r4, #956]	; 0x3bc
 8001960:	4291      	cmp	r1, r2
 8001962:	d01c      	beq.n	800199e <HAL_PCD_EP_SetStall+0x70>
 8001964:	f884 23bc 	strb.w	r2, [r4, #956]	; 0x3bc
 8001968:	4619      	mov	r1, r3
 800196a:	6820      	ldr	r0, [r4, #0]
 800196c:	f001 fc66 	bl	800323c <USB_EPSetStall>
 8001970:	b92d      	cbnz	r5, 800197e <HAL_PCD_EP_SetStall+0x50>
 8001972:	f504 7270 	add.w	r2, r4, #960	; 0x3c0
 8001976:	7c21      	ldrb	r1, [r4, #16]
 8001978:	6820      	ldr	r0, [r4, #0]
 800197a:	f001 fd2d 	bl	80033d8 <USB_EP0_OutStart>
 800197e:	2000      	movs	r0, #0
 8001980:	f884 03bc 	strb.w	r0, [r4, #956]	; 0x3bc
 8001984:	bd38      	pop	{r3, r4, r5, pc}
 8001986:	fb02 0301 	mla	r3, r2, r1, r0
 800198a:	fb02 0101 	mla	r1, r2, r1, r0
 800198e:	2200      	movs	r2, #0
 8001990:	f503 73fe 	add.w	r3, r3, #508	; 0x1fc
 8001994:	f881 21fd 	strb.w	r2, [r1, #509]	; 0x1fd
 8001998:	e7dd      	b.n	8001956 <HAL_PCD_EP_SetStall+0x28>
 800199a:	2001      	movs	r0, #1
 800199c:	bd38      	pop	{r3, r4, r5, pc}
 800199e:	2002      	movs	r0, #2
 80019a0:	bd38      	pop	{r3, r4, r5, pc}

080019a2 <HAL_PCD_EP_ClrStall>:
 80019a2:	b538      	push	{r3, r4, r5, lr}
 80019a4:	f001 020f 	and.w	r2, r1, #15
 80019a8:	6843      	ldr	r3, [r0, #4]
 80019aa:	4604      	mov	r4, r0
 80019ac:	429a      	cmp	r2, r3
 80019ae:	d825      	bhi.n	80019fc <HAL_PCD_EP_ClrStall+0x5a>
 80019b0:	231c      	movs	r3, #28
 80019b2:	f011 0f80 	tst.w	r1, #128	; 0x80
 80019b6:	f04f 0500 	mov.w	r5, #0
 80019ba:	fb03 0102 	mla	r1, r3, r2, r0
 80019be:	bf0f      	iteee	eq
 80019c0:	2000      	moveq	r0, #0
 80019c2:	fb03 0302 	mlane	r3, r3, r2, r0
 80019c6:	2001      	movne	r0, #1
 80019c8:	313c      	addne	r1, #60	; 0x3c
 80019ca:	bf05      	ittet	eq
 80019cc:	f501 71fe 	addeq.w	r1, r1, #508	; 0x1fc
 80019d0:	fb03 4302 	mlaeq	r3, r3, r2, r4
 80019d4:	f883 003d 	strbne.w	r0, [r3, #61]	; 0x3d
 80019d8:	f883 01fd 	strbeq.w	r0, [r3, #509]	; 0x1fd
 80019dc:	708d      	strb	r5, [r1, #2]
 80019de:	700a      	strb	r2, [r1, #0]
 80019e0:	f894 33bc 	ldrb.w	r3, [r4, #956]	; 0x3bc
 80019e4:	2b01      	cmp	r3, #1
 80019e6:	d00b      	beq.n	8001a00 <HAL_PCD_EP_ClrStall+0x5e>
 80019e8:	2301      	movs	r3, #1
 80019ea:	6820      	ldr	r0, [r4, #0]
 80019ec:	f884 33bc 	strb.w	r3, [r4, #956]	; 0x3bc
 80019f0:	f001 fc51 	bl	8003296 <USB_EPClearStall>
 80019f4:	f884 53bc 	strb.w	r5, [r4, #956]	; 0x3bc
 80019f8:	4628      	mov	r0, r5
 80019fa:	bd38      	pop	{r3, r4, r5, pc}
 80019fc:	2001      	movs	r0, #1
 80019fe:	bd38      	pop	{r3, r4, r5, pc}
 8001a00:	2002      	movs	r0, #2
 8001a02:	bd38      	pop	{r3, r4, r5, pc}

08001a04 <HAL_PCDEx_SetTxFiFo>:
 8001a04:	b570      	push	{r4, r5, r6, lr}
 8001a06:	6804      	ldr	r4, [r0, #0]
 8001a08:	6a63      	ldr	r3, [r4, #36]	; 0x24
 8001a0a:	b921      	cbnz	r1, 8001a16 <HAL_PCDEx_SetTxFiFo+0x12>
 8001a0c:	ea43 4302 	orr.w	r3, r3, r2, lsl #16
 8001a10:	62a3      	str	r3, [r4, #40]	; 0x28
 8001a12:	2000      	movs	r0, #0
 8001a14:	bd70      	pop	{r4, r5, r6, pc}
 8001a16:	6aa0      	ldr	r0, [r4, #40]	; 0x28
 8001a18:	1e4d      	subs	r5, r1, #1
 8001a1a:	eb03 4310 	add.w	r3, r3, r0, lsr #16
 8001a1e:	2000      	movs	r0, #0
 8001a20:	1c46      	adds	r6, r0, #1
 8001a22:	b2c0      	uxtb	r0, r0
 8001a24:	4285      	cmp	r5, r0
 8001a26:	d806      	bhi.n	8001a36 <HAL_PCDEx_SetTxFiFo+0x32>
 8001a28:	313f      	adds	r1, #63	; 0x3f
 8001a2a:	ea43 4302 	orr.w	r3, r3, r2, lsl #16
 8001a2e:	eb04 0481 	add.w	r4, r4, r1, lsl #2
 8001a32:	6063      	str	r3, [r4, #4]
 8001a34:	e7ed      	b.n	8001a12 <HAL_PCDEx_SetTxFiFo+0xe>
 8001a36:	3040      	adds	r0, #64	; 0x40
 8001a38:	eb04 0080 	add.w	r0, r4, r0, lsl #2
 8001a3c:	6840      	ldr	r0, [r0, #4]
 8001a3e:	eb03 4310 	add.w	r3, r3, r0, lsr #16
 8001a42:	4630      	mov	r0, r6
 8001a44:	e7ec      	b.n	8001a20 <HAL_PCDEx_SetTxFiFo+0x1c>

08001a46 <HAL_PCDEx_SetRxFiFo>:
 8001a46:	6803      	ldr	r3, [r0, #0]
 8001a48:	2000      	movs	r0, #0
 8001a4a:	6259      	str	r1, [r3, #36]	; 0x24
 8001a4c:	4770      	bx	lr

08001a4e <HAL_PCDEx_ActivateLPM>:
 8001a4e:	2101      	movs	r1, #1
 8001a50:	6802      	ldr	r2, [r0, #0]
 8001a52:	4603      	mov	r3, r0
 8001a54:	f8c0 13f8 	str.w	r1, [r0, #1016]	; 0x3f8
 8001a58:	2000      	movs	r0, #0
 8001a5a:	f883 03f0 	strb.w	r0, [r3, #1008]	; 0x3f0
 8001a5e:	6993      	ldr	r3, [r2, #24]
 8001a60:	f043 6300 	orr.w	r3, r3, #134217728	; 0x8000000
 8001a64:	6193      	str	r3, [r2, #24]
 8001a66:	6d53      	ldr	r3, [r2, #84]	; 0x54
 8001a68:	f043 5380 	orr.w	r3, r3, #268435456	; 0x10000000
 8001a6c:	f043 0303 	orr.w	r3, r3, #3
 8001a70:	6553      	str	r3, [r2, #84]	; 0x54
 8001a72:	4770      	bx	lr

08001a74 <HAL_RCC_OscConfig>:
 8001a74:	e92d 41f3 	stmdb	sp!, {r0, r1, r4, r5, r6, r7, r8, lr}
 8001a78:	4604      	mov	r4, r0
 8001a7a:	b918      	cbnz	r0, 8001a84 <HAL_RCC_OscConfig+0x10>
 8001a7c:	2001      	movs	r0, #1
 8001a7e:	b002      	add	sp, #8
 8001a80:	e8bd 81f0 	ldmia.w	sp!, {r4, r5, r6, r7, r8, pc}
 8001a84:	6803      	ldr	r3, [r0, #0]
 8001a86:	07d8      	lsls	r0, r3, #31
 8001a88:	d410      	bmi.n	8001aac <HAL_RCC_OscConfig+0x38>
 8001a8a:	6823      	ldr	r3, [r4, #0]
 8001a8c:	0799      	lsls	r1, r3, #30
 8001a8e:	d45e      	bmi.n	8001b4e <HAL_RCC_OscConfig+0xda>
 8001a90:	6823      	ldr	r3, [r4, #0]
 8001a92:	0719      	lsls	r1, r3, #28
 8001a94:	f100 80a3 	bmi.w	8001bde <HAL_RCC_OscConfig+0x16a>
 8001a98:	6823      	ldr	r3, [r4, #0]
 8001a9a:	075a      	lsls	r2, r3, #29
 8001a9c:	f100 80c4 	bmi.w	8001c28 <HAL_RCC_OscConfig+0x1b4>
 8001aa0:	69a2      	ldr	r2, [r4, #24]
 8001aa2:	2a00      	cmp	r2, #0
 8001aa4:	f040 812e 	bne.w	8001d04 <HAL_RCC_OscConfig+0x290>
 8001aa8:	2000      	movs	r0, #0
 8001aaa:	e7e8      	b.n	8001a7e <HAL_RCC_OscConfig+0xa>
 8001aac:	4b93      	ldr	r3, [pc, #588]	; (8001cfc <HAL_RCC_OscConfig+0x288>)
 8001aae:	689a      	ldr	r2, [r3, #8]
 8001ab0:	f002 020c 	and.w	r2, r2, #12
 8001ab4:	2a04      	cmp	r2, #4
 8001ab6:	d007      	beq.n	8001ac8 <HAL_RCC_OscConfig+0x54>
 8001ab8:	689a      	ldr	r2, [r3, #8]
 8001aba:	f002 020c 	and.w	r2, r2, #12
 8001abe:	2a08      	cmp	r2, #8
 8001ac0:	d10a      	bne.n	8001ad8 <HAL_RCC_OscConfig+0x64>
 8001ac2:	685b      	ldr	r3, [r3, #4]
 8001ac4:	025a      	lsls	r2, r3, #9
 8001ac6:	d507      	bpl.n	8001ad8 <HAL_RCC_OscConfig+0x64>
 8001ac8:	4b8c      	ldr	r3, [pc, #560]	; (8001cfc <HAL_RCC_OscConfig+0x288>)
 8001aca:	681b      	ldr	r3, [r3, #0]
 8001acc:	039b      	lsls	r3, r3, #14
 8001ace:	d5dc      	bpl.n	8001a8a <HAL_RCC_OscConfig+0x16>
 8001ad0:	6863      	ldr	r3, [r4, #4]
 8001ad2:	2b00      	cmp	r3, #0
 8001ad4:	d1d9      	bne.n	8001a8a <HAL_RCC_OscConfig+0x16>
 8001ad6:	e7d1      	b.n	8001a7c <HAL_RCC_OscConfig+0x8>
 8001ad8:	6863      	ldr	r3, [r4, #4]
 8001ada:	4d88      	ldr	r5, [pc, #544]	; (8001cfc <HAL_RCC_OscConfig+0x288>)
 8001adc:	f5b3 3f80 	cmp.w	r3, #65536	; 0x10000
 8001ae0:	d111      	bne.n	8001b06 <HAL_RCC_OscConfig+0x92>
 8001ae2:	682b      	ldr	r3, [r5, #0]
 8001ae4:	f443 3380 	orr.w	r3, r3, #65536	; 0x10000
 8001ae8:	602b      	str	r3, [r5, #0]
 8001aea:	f7fe fd81 	bl	80005f0 <HAL_GetTick>
 8001aee:	4d83      	ldr	r5, [pc, #524]	; (8001cfc <HAL_RCC_OscConfig+0x288>)
 8001af0:	4606      	mov	r6, r0
 8001af2:	682b      	ldr	r3, [r5, #0]
 8001af4:	039f      	lsls	r7, r3, #14
 8001af6:	d4c8      	bmi.n	8001a8a <HAL_RCC_OscConfig+0x16>
 8001af8:	f7fe fd7a 	bl	80005f0 <HAL_GetTick>
 8001afc:	1b80      	subs	r0, r0, r6
 8001afe:	2864      	cmp	r0, #100	; 0x64
 8001b00:	d9f7      	bls.n	8001af2 <HAL_RCC_OscConfig+0x7e>
 8001b02:	2003      	movs	r0, #3
 8001b04:	e7bb      	b.n	8001a7e <HAL_RCC_OscConfig+0xa>
 8001b06:	b99b      	cbnz	r3, 8001b30 <HAL_RCC_OscConfig+0xbc>
 8001b08:	682b      	ldr	r3, [r5, #0]
 8001b0a:	f423 3380 	bic.w	r3, r3, #65536	; 0x10000
 8001b0e:	602b      	str	r3, [r5, #0]
 8001b10:	682b      	ldr	r3, [r5, #0]
 8001b12:	f423 2380 	bic.w	r3, r3, #262144	; 0x40000
 8001b16:	602b      	str	r3, [r5, #0]
 8001b18:	f7fe fd6a 	bl	80005f0 <HAL_GetTick>
 8001b1c:	4606      	mov	r6, r0
 8001b1e:	682b      	ldr	r3, [r5, #0]
 8001b20:	0398      	lsls	r0, r3, #14
 8001b22:	d5b2      	bpl.n	8001a8a <HAL_RCC_OscConfig+0x16>
 8001b24:	f7fe fd64 	bl	80005f0 <HAL_GetTick>
 8001b28:	1b80      	subs	r0, r0, r6
 8001b2a:	2864      	cmp	r0, #100	; 0x64
 8001b2c:	d9f7      	bls.n	8001b1e <HAL_RCC_OscConfig+0xaa>
 8001b2e:	e7e8      	b.n	8001b02 <HAL_RCC_OscConfig+0x8e>
 8001b30:	f5b3 2fa0 	cmp.w	r3, #327680	; 0x50000
 8001b34:	682b      	ldr	r3, [r5, #0]
 8001b36:	d103      	bne.n	8001b40 <HAL_RCC_OscConfig+0xcc>
 8001b38:	f443 2380 	orr.w	r3, r3, #262144	; 0x40000
 8001b3c:	602b      	str	r3, [r5, #0]
 8001b3e:	e7d0      	b.n	8001ae2 <HAL_RCC_OscConfig+0x6e>
 8001b40:	f423 3380 	bic.w	r3, r3, #65536	; 0x10000
 8001b44:	602b      	str	r3, [r5, #0]
 8001b46:	682b      	ldr	r3, [r5, #0]
 8001b48:	f423 2380 	bic.w	r3, r3, #262144	; 0x40000
 8001b4c:	e7cc      	b.n	8001ae8 <HAL_RCC_OscConfig+0x74>
 8001b4e:	4b6b      	ldr	r3, [pc, #428]	; (8001cfc <HAL_RCC_OscConfig+0x288>)
 8001b50:	689a      	ldr	r2, [r3, #8]
 8001b52:	f012 0f0c 	tst.w	r2, #12
 8001b56:	d007      	beq.n	8001b68 <HAL_RCC_OscConfig+0xf4>
 8001b58:	689a      	ldr	r2, [r3, #8]
 8001b5a:	f002 020c 	and.w	r2, r2, #12
 8001b5e:	2a08      	cmp	r2, #8
 8001b60:	d111      	bne.n	8001b86 <HAL_RCC_OscConfig+0x112>
 8001b62:	685b      	ldr	r3, [r3, #4]
 8001b64:	0259      	lsls	r1, r3, #9
 8001b66:	d40e      	bmi.n	8001b86 <HAL_RCC_OscConfig+0x112>
 8001b68:	4b64      	ldr	r3, [pc, #400]	; (8001cfc <HAL_RCC_OscConfig+0x288>)
 8001b6a:	681a      	ldr	r2, [r3, #0]
 8001b6c:	0792      	lsls	r2, r2, #30
 8001b6e:	d502      	bpl.n	8001b76 <HAL_RCC_OscConfig+0x102>
 8001b70:	68e2      	ldr	r2, [r4, #12]
 8001b72:	2a01      	cmp	r2, #1
 8001b74:	d182      	bne.n	8001a7c <HAL_RCC_OscConfig+0x8>
 8001b76:	681a      	ldr	r2, [r3, #0]
 8001b78:	6921      	ldr	r1, [r4, #16]
 8001b7a:	f022 02f8 	bic.w	r2, r2, #248	; 0xf8
 8001b7e:	ea42 02c1 	orr.w	r2, r2, r1, lsl #3
 8001b82:	601a      	str	r2, [r3, #0]
 8001b84:	e784      	b.n	8001a90 <HAL_RCC_OscConfig+0x1c>
 8001b86:	68e3      	ldr	r3, [r4, #12]
 8001b88:	4d5c      	ldr	r5, [pc, #368]	; (8001cfc <HAL_RCC_OscConfig+0x288>)
 8001b8a:	b1bb      	cbz	r3, 8001bbc <HAL_RCC_OscConfig+0x148>
 8001b8c:	682b      	ldr	r3, [r5, #0]
 8001b8e:	f043 0301 	orr.w	r3, r3, #1
 8001b92:	602b      	str	r3, [r5, #0]
 8001b94:	f7fe fd2c 	bl	80005f0 <HAL_GetTick>
 8001b98:	4606      	mov	r6, r0
 8001b9a:	682b      	ldr	r3, [r5, #0]
 8001b9c:	079f      	lsls	r7, r3, #30
 8001b9e:	d507      	bpl.n	8001bb0 <HAL_RCC_OscConfig+0x13c>
 8001ba0:	682b      	ldr	r3, [r5, #0]
 8001ba2:	6922      	ldr	r2, [r4, #16]
 8001ba4:	f023 03f8 	bic.w	r3, r3, #248	; 0xf8
 8001ba8:	ea43 03c2 	orr.w	r3, r3, r2, lsl #3
 8001bac:	602b      	str	r3, [r5, #0]
 8001bae:	e76f      	b.n	8001a90 <HAL_RCC_OscConfig+0x1c>
 8001bb0:	f7fe fd1e 	bl	80005f0 <HAL_GetTick>
 8001bb4:	1b80      	subs	r0, r0, r6
 8001bb6:	2802      	cmp	r0, #2
 8001bb8:	d9ef      	bls.n	8001b9a <HAL_RCC_OscConfig+0x126>
 8001bba:	e7a2      	b.n	8001b02 <HAL_RCC_OscConfig+0x8e>
 8001bbc:	682b      	ldr	r3, [r5, #0]
 8001bbe:	f023 0301 	bic.w	r3, r3, #1
 8001bc2:	602b      	str	r3, [r5, #0]
 8001bc4:	f7fe fd14 	bl	80005f0 <HAL_GetTick>
 8001bc8:	4606      	mov	r6, r0
 8001bca:	682b      	ldr	r3, [r5, #0]
 8001bcc:	0798      	lsls	r0, r3, #30
 8001bce:	f57f af5f 	bpl.w	8001a90 <HAL_RCC_OscConfig+0x1c>
 8001bd2:	f7fe fd0d 	bl	80005f0 <HAL_GetTick>
 8001bd6:	1b80      	subs	r0, r0, r6
 8001bd8:	2802      	cmp	r0, #2
 8001bda:	d9f6      	bls.n	8001bca <HAL_RCC_OscConfig+0x156>
 8001bdc:	e791      	b.n	8001b02 <HAL_RCC_OscConfig+0x8e>
 8001bde:	6963      	ldr	r3, [r4, #20]
 8001be0:	4d46      	ldr	r5, [pc, #280]	; (8001cfc <HAL_RCC_OscConfig+0x288>)
 8001be2:	b183      	cbz	r3, 8001c06 <HAL_RCC_OscConfig+0x192>
 8001be4:	6f6b      	ldr	r3, [r5, #116]	; 0x74
 8001be6:	f043 0301 	orr.w	r3, r3, #1
 8001bea:	676b      	str	r3, [r5, #116]	; 0x74
 8001bec:	f7fe fd00 	bl	80005f0 <HAL_GetTick>
 8001bf0:	4606      	mov	r6, r0
 8001bf2:	6f6b      	ldr	r3, [r5, #116]	; 0x74
 8001bf4:	079b      	lsls	r3, r3, #30
 8001bf6:	f53f af4f 	bmi.w	8001a98 <HAL_RCC_OscConfig+0x24>
 8001bfa:	f7fe fcf9 	bl	80005f0 <HAL_GetTick>
 8001bfe:	1b80      	subs	r0, r0, r6
 8001c00:	2802      	cmp	r0, #2
 8001c02:	d9f6      	bls.n	8001bf2 <HAL_RCC_OscConfig+0x17e>
 8001c04:	e77d      	b.n	8001b02 <HAL_RCC_OscConfig+0x8e>
 8001c06:	6f6b      	ldr	r3, [r5, #116]	; 0x74
 8001c08:	f023 0301 	bic.w	r3, r3, #1
 8001c0c:	676b      	str	r3, [r5, #116]	; 0x74
 8001c0e:	f7fe fcef 	bl	80005f0 <HAL_GetTick>
 8001c12:	4606      	mov	r6, r0
 8001c14:	6f6b      	ldr	r3, [r5, #116]	; 0x74
 8001c16:	079f      	lsls	r7, r3, #30
 8001c18:	f57f af3e 	bpl.w	8001a98 <HAL_RCC_OscConfig+0x24>
 8001c1c:	f7fe fce8 	bl	80005f0 <HAL_GetTick>
 8001c20:	1b80      	subs	r0, r0, r6
 8001c22:	2802      	cmp	r0, #2
 8001c24:	d9f6      	bls.n	8001c14 <HAL_RCC_OscConfig+0x1a0>
 8001c26:	e76c      	b.n	8001b02 <HAL_RCC_OscConfig+0x8e>
 8001c28:	4b34      	ldr	r3, [pc, #208]	; (8001cfc <HAL_RCC_OscConfig+0x288>)
 8001c2a:	6c1a      	ldr	r2, [r3, #64]	; 0x40
 8001c2c:	00d0      	lsls	r0, r2, #3
 8001c2e:	d427      	bmi.n	8001c80 <HAL_RCC_OscConfig+0x20c>
 8001c30:	6c1a      	ldr	r2, [r3, #64]	; 0x40
 8001c32:	2601      	movs	r6, #1
 8001c34:	f042 5280 	orr.w	r2, r2, #268435456	; 0x10000000
 8001c38:	641a      	str	r2, [r3, #64]	; 0x40
 8001c3a:	6c1b      	ldr	r3, [r3, #64]	; 0x40
 8001c3c:	f003 5380 	and.w	r3, r3, #268435456	; 0x10000000
 8001c40:	9301      	str	r3, [sp, #4]
 8001c42:	9b01      	ldr	r3, [sp, #4]
 8001c44:	4d2e      	ldr	r5, [pc, #184]	; (8001d00 <HAL_RCC_OscConfig+0x28c>)
 8001c46:	682b      	ldr	r3, [r5, #0]
 8001c48:	05d9      	lsls	r1, r3, #23
 8001c4a:	d51b      	bpl.n	8001c84 <HAL_RCC_OscConfig+0x210>
 8001c4c:	68a3      	ldr	r3, [r4, #8]
 8001c4e:	4d2b      	ldr	r5, [pc, #172]	; (8001cfc <HAL_RCC_OscConfig+0x288>)
 8001c50:	2b01      	cmp	r3, #1
 8001c52:	d127      	bne.n	8001ca4 <HAL_RCC_OscConfig+0x230>
 8001c54:	6f2b      	ldr	r3, [r5, #112]	; 0x70
 8001c56:	f043 0301 	orr.w	r3, r3, #1
 8001c5a:	672b      	str	r3, [r5, #112]	; 0x70
 8001c5c:	f241 3588 	movw	r5, #5000	; 0x1388
 8001c60:	f7fe fcc6 	bl	80005f0 <HAL_GetTick>
 8001c64:	4f25      	ldr	r7, [pc, #148]	; (8001cfc <HAL_RCC_OscConfig+0x288>)
 8001c66:	4680      	mov	r8, r0
 8001c68:	6f3b      	ldr	r3, [r7, #112]	; 0x70
 8001c6a:	079b      	lsls	r3, r3, #30
 8001c6c:	d53f      	bpl.n	8001cee <HAL_RCC_OscConfig+0x27a>
 8001c6e:	2e00      	cmp	r6, #0
 8001c70:	f43f af16 	beq.w	8001aa0 <HAL_RCC_OscConfig+0x2c>
 8001c74:	4a21      	ldr	r2, [pc, #132]	; (8001cfc <HAL_RCC_OscConfig+0x288>)
 8001c76:	6c13      	ldr	r3, [r2, #64]	; 0x40
 8001c78:	f023 5380 	bic.w	r3, r3, #268435456	; 0x10000000
 8001c7c:	6413      	str	r3, [r2, #64]	; 0x40
 8001c7e:	e70f      	b.n	8001aa0 <HAL_RCC_OscConfig+0x2c>
 8001c80:	2600      	movs	r6, #0
 8001c82:	e7df      	b.n	8001c44 <HAL_RCC_OscConfig+0x1d0>
 8001c84:	682b      	ldr	r3, [r5, #0]
 8001c86:	f443 7380 	orr.w	r3, r3, #256	; 0x100
 8001c8a:	602b      	str	r3, [r5, #0]
 8001c8c:	f7fe fcb0 	bl	80005f0 <HAL_GetTick>
 8001c90:	4607      	mov	r7, r0
 8001c92:	682b      	ldr	r3, [r5, #0]
 8001c94:	05da      	lsls	r2, r3, #23
 8001c96:	d4d9      	bmi.n	8001c4c <HAL_RCC_OscConfig+0x1d8>
 8001c98:	f7fe fcaa 	bl	80005f0 <HAL_GetTick>
 8001c9c:	1bc0      	subs	r0, r0, r7
 8001c9e:	2864      	cmp	r0, #100	; 0x64
 8001ca0:	d9f7      	bls.n	8001c92 <HAL_RCC_OscConfig+0x21e>
 8001ca2:	e72e      	b.n	8001b02 <HAL_RCC_OscConfig+0x8e>
 8001ca4:	b9ab      	cbnz	r3, 8001cd2 <HAL_RCC_OscConfig+0x25e>
 8001ca6:	6f2b      	ldr	r3, [r5, #112]	; 0x70
 8001ca8:	f241 3888 	movw	r8, #5000	; 0x1388
 8001cac:	f023 0301 	bic.w	r3, r3, #1
 8001cb0:	672b      	str	r3, [r5, #112]	; 0x70
 8001cb2:	6f2b      	ldr	r3, [r5, #112]	; 0x70
 8001cb4:	f023 0304 	bic.w	r3, r3, #4
 8001cb8:	672b      	str	r3, [r5, #112]	; 0x70
 8001cba:	f7fe fc99 	bl	80005f0 <HAL_GetTick>
 8001cbe:	4607      	mov	r7, r0
 8001cc0:	6f2b      	ldr	r3, [r5, #112]	; 0x70
 8001cc2:	0798      	lsls	r0, r3, #30
 8001cc4:	d5d3      	bpl.n	8001c6e <HAL_RCC_OscConfig+0x1fa>
 8001cc6:	f7fe fc93 	bl	80005f0 <HAL_GetTick>
 8001cca:	1bc0      	subs	r0, r0, r7
 8001ccc:	4540      	cmp	r0, r8
 8001cce:	d9f7      	bls.n	8001cc0 <HAL_RCC_OscConfig+0x24c>
 8001cd0:	e717      	b.n	8001b02 <HAL_RCC_OscConfig+0x8e>
 8001cd2:	2b05      	cmp	r3, #5
 8001cd4:	6f2b      	ldr	r3, [r5, #112]	; 0x70
 8001cd6:	d103      	bne.n	8001ce0 <HAL_RCC_OscConfig+0x26c>
 8001cd8:	f043 0304 	orr.w	r3, r3, #4
 8001cdc:	672b      	str	r3, [r5, #112]	; 0x70
 8001cde:	e7b9      	b.n	8001c54 <HAL_RCC_OscConfig+0x1e0>
 8001ce0:	f023 0301 	bic.w	r3, r3, #1
 8001ce4:	672b      	str	r3, [r5, #112]	; 0x70
 8001ce6:	6f2b      	ldr	r3, [r5, #112]	; 0x70
 8001ce8:	f023 0304 	bic.w	r3, r3, #4
 8001cec:	e7b5      	b.n	8001c5a <HAL_RCC_OscConfig+0x1e6>
 8001cee:	f7fe fc7f 	bl	80005f0 <HAL_GetTick>
 8001cf2:	eba0 0008 	sub.w	r0, r0, r8
 8001cf6:	42a8      	cmp	r0, r5
 8001cf8:	d9b6      	bls.n	8001c68 <HAL_RCC_OscConfig+0x1f4>
 8001cfa:	e702      	b.n	8001b02 <HAL_RCC_OscConfig+0x8e>
 8001cfc:	40023800 	.word	0x40023800
 8001d00:	40007000 	.word	0x40007000
 8001d04:	4d24      	ldr	r5, [pc, #144]	; (8001d98 <HAL_RCC_OscConfig+0x324>)
 8001d06:	68ab      	ldr	r3, [r5, #8]
 8001d08:	f003 030c 	and.w	r3, r3, #12
 8001d0c:	2b08      	cmp	r3, #8
 8001d0e:	f43f aeb5 	beq.w	8001a7c <HAL_RCC_OscConfig+0x8>
 8001d12:	682b      	ldr	r3, [r5, #0]
 8001d14:	2a02      	cmp	r2, #2
 8001d16:	f023 7380 	bic.w	r3, r3, #16777216	; 0x1000000
 8001d1a:	602b      	str	r3, [r5, #0]
 8001d1c:	d12e      	bne.n	8001d7c <HAL_RCC_OscConfig+0x308>
 8001d1e:	f7fe fc67 	bl	80005f0 <HAL_GetTick>
 8001d22:	4606      	mov	r6, r0
 8001d24:	682b      	ldr	r3, [r5, #0]
 8001d26:	0199      	lsls	r1, r3, #6
 8001d28:	d422      	bmi.n	8001d70 <HAL_RCC_OscConfig+0x2fc>
 8001d2a:	6a22      	ldr	r2, [r4, #32]
 8001d2c:	69e3      	ldr	r3, [r4, #28]
 8001d2e:	4313      	orrs	r3, r2
 8001d30:	6a62      	ldr	r2, [r4, #36]	; 0x24
 8001d32:	f043 5300 	orr.w	r3, r3, #536870912	; 0x20000000
 8001d36:	ea43 1382 	orr.w	r3, r3, r2, lsl #6
 8001d3a:	6ae2      	ldr	r2, [r4, #44]	; 0x2c
 8001d3c:	ea43 6302 	orr.w	r3, r3, r2, lsl #24
 8001d40:	6aa2      	ldr	r2, [r4, #40]	; 0x28
 8001d42:	4c15      	ldr	r4, [pc, #84]	; (8001d98 <HAL_RCC_OscConfig+0x324>)
 8001d44:	0852      	lsrs	r2, r2, #1
 8001d46:	3a01      	subs	r2, #1
 8001d48:	ea43 4302 	orr.w	r3, r3, r2, lsl #16
 8001d4c:	606b      	str	r3, [r5, #4]
 8001d4e:	682b      	ldr	r3, [r5, #0]
 8001d50:	f043 7380 	orr.w	r3, r3, #16777216	; 0x1000000
 8001d54:	602b      	str	r3, [r5, #0]
 8001d56:	f7fe fc4b 	bl	80005f0 <HAL_GetTick>
 8001d5a:	4605      	mov	r5, r0
 8001d5c:	6823      	ldr	r3, [r4, #0]
 8001d5e:	019a      	lsls	r2, r3, #6
 8001d60:	f53f aea2 	bmi.w	8001aa8 <HAL_RCC_OscConfig+0x34>
 8001d64:	f7fe fc44 	bl	80005f0 <HAL_GetTick>
 8001d68:	1b40      	subs	r0, r0, r5
 8001d6a:	2802      	cmp	r0, #2
 8001d6c:	d9f6      	bls.n	8001d5c <HAL_RCC_OscConfig+0x2e8>
 8001d6e:	e6c8      	b.n	8001b02 <HAL_RCC_OscConfig+0x8e>
 8001d70:	f7fe fc3e 	bl	80005f0 <HAL_GetTick>
 8001d74:	1b80      	subs	r0, r0, r6
 8001d76:	2802      	cmp	r0, #2
 8001d78:	d9d4      	bls.n	8001d24 <HAL_RCC_OscConfig+0x2b0>
 8001d7a:	e6c2      	b.n	8001b02 <HAL_RCC_OscConfig+0x8e>
 8001d7c:	f7fe fc38 	bl	80005f0 <HAL_GetTick>
 8001d80:	4604      	mov	r4, r0
 8001d82:	682b      	ldr	r3, [r5, #0]
 8001d84:	019b      	lsls	r3, r3, #6
 8001d86:	f57f ae8f 	bpl.w	8001aa8 <HAL_RCC_OscConfig+0x34>
 8001d8a:	f7fe fc31 	bl	80005f0 <HAL_GetTick>
 8001d8e:	1b00      	subs	r0, r0, r4
 8001d90:	2802      	cmp	r0, #2
 8001d92:	d9f6      	bls.n	8001d82 <HAL_RCC_OscConfig+0x30e>
 8001d94:	e6b5      	b.n	8001b02 <HAL_RCC_OscConfig+0x8e>
 8001d96:	bf00      	nop
 8001d98:	40023800 	.word	0x40023800

08001d9c <HAL_RCC_GetSysClockFreq>:
 8001d9c:	4913      	ldr	r1, [pc, #76]	; (8001dec <HAL_RCC_GetSysClockFreq+0x50>)
 8001d9e:	b508      	push	{r3, lr}
 8001da0:	688b      	ldr	r3, [r1, #8]
 8001da2:	f003 030c 	and.w	r3, r3, #12
 8001da6:	2b04      	cmp	r3, #4
 8001da8:	d003      	beq.n	8001db2 <HAL_RCC_GetSysClockFreq+0x16>
 8001daa:	2b08      	cmp	r3, #8
 8001dac:	d003      	beq.n	8001db6 <HAL_RCC_GetSysClockFreq+0x1a>
 8001dae:	4810      	ldr	r0, [pc, #64]	; (8001df0 <HAL_RCC_GetSysClockFreq+0x54>)
 8001db0:	bd08      	pop	{r3, pc}
 8001db2:	4810      	ldr	r0, [pc, #64]	; (8001df4 <HAL_RCC_GetSysClockFreq+0x58>)
 8001db4:	bd08      	pop	{r3, pc}
 8001db6:	684a      	ldr	r2, [r1, #4]
 8001db8:	684b      	ldr	r3, [r1, #4]
 8001dba:	6849      	ldr	r1, [r1, #4]
 8001dbc:	f002 023f 	and.w	r2, r2, #63	; 0x3f
 8001dc0:	f413 0380 	ands.w	r3, r3, #4194304	; 0x400000
 8001dc4:	f3c1 1188 	ubfx	r1, r1, #6, #9
 8001dc8:	bf1a      	itte	ne
 8001dca:	480a      	ldrne	r0, [pc, #40]	; (8001df4 <HAL_RCC_GetSysClockFreq+0x58>)
 8001dcc:	2300      	movne	r3, #0
 8001dce:	4808      	ldreq	r0, [pc, #32]	; (8001df0 <HAL_RCC_GetSysClockFreq+0x54>)
 8001dd0:	fba1 0100 	umull	r0, r1, r1, r0
 8001dd4:	f7fe fa6c 	bl	80002b0 <__aeabi_uldivmod>
 8001dd8:	4b04      	ldr	r3, [pc, #16]	; (8001dec <HAL_RCC_GetSysClockFreq+0x50>)
 8001dda:	685b      	ldr	r3, [r3, #4]
 8001ddc:	f3c3 4301 	ubfx	r3, r3, #16, #2
 8001de0:	3301      	adds	r3, #1
 8001de2:	005b      	lsls	r3, r3, #1
 8001de4:	fbb0 f0f3 	udiv	r0, r0, r3
 8001de8:	bd08      	pop	{r3, pc}
 8001dea:	bf00      	nop
 8001dec:	40023800 	.word	0x40023800
 8001df0:	00f42400 	.word	0x00f42400
 8001df4:	007a1200 	.word	0x007a1200

08001df8 <HAL_RCC_ClockConfig>:
 8001df8:	e92d 41f0 	stmdb	sp!, {r4, r5, r6, r7, r8, lr}
 8001dfc:	460d      	mov	r5, r1
 8001dfe:	4604      	mov	r4, r0
 8001e00:	b910      	cbnz	r0, 8001e08 <HAL_RCC_ClockConfig+0x10>
 8001e02:	2001      	movs	r0, #1
 8001e04:	e8bd 81f0 	ldmia.w	sp!, {r4, r5, r6, r7, r8, pc}
 8001e08:	4a46      	ldr	r2, [pc, #280]	; (8001f24 <HAL_RCC_ClockConfig+0x12c>)
 8001e0a:	6813      	ldr	r3, [r2, #0]
 8001e0c:	f003 030f 	and.w	r3, r3, #15
 8001e10:	428b      	cmp	r3, r1
 8001e12:	d328      	bcc.n	8001e66 <HAL_RCC_ClockConfig+0x6e>
 8001e14:	6821      	ldr	r1, [r4, #0]
 8001e16:	078f      	lsls	r7, r1, #30
 8001e18:	d430      	bmi.n	8001e7c <HAL_RCC_ClockConfig+0x84>
 8001e1a:	07c8      	lsls	r0, r1, #31
 8001e1c:	d443      	bmi.n	8001ea6 <HAL_RCC_ClockConfig+0xae>
 8001e1e:	4a41      	ldr	r2, [pc, #260]	; (8001f24 <HAL_RCC_ClockConfig+0x12c>)
 8001e20:	6813      	ldr	r3, [r2, #0]
 8001e22:	f003 030f 	and.w	r3, r3, #15
 8001e26:	429d      	cmp	r5, r3
 8001e28:	d367      	bcc.n	8001efa <HAL_RCC_ClockConfig+0x102>
 8001e2a:	6822      	ldr	r2, [r4, #0]
 8001e2c:	0751      	lsls	r1, r2, #29
 8001e2e:	d470      	bmi.n	8001f12 <HAL_RCC_ClockConfig+0x11a>
 8001e30:	0713      	lsls	r3, r2, #28
 8001e32:	d507      	bpl.n	8001e44 <HAL_RCC_ClockConfig+0x4c>
 8001e34:	4a3c      	ldr	r2, [pc, #240]	; (8001f28 <HAL_RCC_ClockConfig+0x130>)
 8001e36:	6921      	ldr	r1, [r4, #16]
 8001e38:	6893      	ldr	r3, [r2, #8]
 8001e3a:	f423 4360 	bic.w	r3, r3, #57344	; 0xe000
 8001e3e:	ea43 03c1 	orr.w	r3, r3, r1, lsl #3
 8001e42:	6093      	str	r3, [r2, #8]
 8001e44:	f7ff ffaa 	bl	8001d9c <HAL_RCC_GetSysClockFreq>
 8001e48:	4b37      	ldr	r3, [pc, #220]	; (8001f28 <HAL_RCC_ClockConfig+0x130>)
 8001e4a:	4a38      	ldr	r2, [pc, #224]	; (8001f2c <HAL_RCC_ClockConfig+0x134>)
 8001e4c:	689b      	ldr	r3, [r3, #8]
 8001e4e:	f3c3 1303 	ubfx	r3, r3, #4, #4
 8001e52:	5cd3      	ldrb	r3, [r2, r3]
 8001e54:	40d8      	lsrs	r0, r3
 8001e56:	4b36      	ldr	r3, [pc, #216]	; (8001f30 <HAL_RCC_ClockConfig+0x138>)
 8001e58:	6018      	str	r0, [r3, #0]
 8001e5a:	2000      	movs	r0, #0
 8001e5c:	f009 f936 	bl	800b0cc <HAL_InitTick>
 8001e60:	2000      	movs	r0, #0
 8001e62:	e8bd 81f0 	ldmia.w	sp!, {r4, r5, r6, r7, r8, pc}
 8001e66:	6813      	ldr	r3, [r2, #0]
 8001e68:	f023 030f 	bic.w	r3, r3, #15
 8001e6c:	430b      	orrs	r3, r1
 8001e6e:	6013      	str	r3, [r2, #0]
 8001e70:	6813      	ldr	r3, [r2, #0]
 8001e72:	f003 030f 	and.w	r3, r3, #15
 8001e76:	4299      	cmp	r1, r3
 8001e78:	d1c3      	bne.n	8001e02 <HAL_RCC_ClockConfig+0xa>
 8001e7a:	e7cb      	b.n	8001e14 <HAL_RCC_ClockConfig+0x1c>
 8001e7c:	f011 0f04 	tst.w	r1, #4
 8001e80:	4b29      	ldr	r3, [pc, #164]	; (8001f28 <HAL_RCC_ClockConfig+0x130>)
 8001e82:	d003      	beq.n	8001e8c <HAL_RCC_ClockConfig+0x94>
 8001e84:	689a      	ldr	r2, [r3, #8]
 8001e86:	f442 52e0 	orr.w	r2, r2, #7168	; 0x1c00
 8001e8a:	609a      	str	r2, [r3, #8]
 8001e8c:	070e      	lsls	r6, r1, #28
 8001e8e:	d503      	bpl.n	8001e98 <HAL_RCC_ClockConfig+0xa0>
 8001e90:	689a      	ldr	r2, [r3, #8]
 8001e92:	f442 4260 	orr.w	r2, r2, #57344	; 0xe000
 8001e96:	609a      	str	r2, [r3, #8]
 8001e98:	689a      	ldr	r2, [r3, #8]
 8001e9a:	68a0      	ldr	r0, [r4, #8]
 8001e9c:	f022 02f0 	bic.w	r2, r2, #240	; 0xf0
 8001ea0:	4302      	orrs	r2, r0
 8001ea2:	609a      	str	r2, [r3, #8]
 8001ea4:	e7b9      	b.n	8001e1a <HAL_RCC_ClockConfig+0x22>
 8001ea6:	6861      	ldr	r1, [r4, #4]
 8001ea8:	4b1f      	ldr	r3, [pc, #124]	; (8001f28 <HAL_RCC_ClockConfig+0x130>)
 8001eaa:	2901      	cmp	r1, #1
 8001eac:	681a      	ldr	r2, [r3, #0]
 8001eae:	d11c      	bne.n	8001eea <HAL_RCC_ClockConfig+0xf2>
 8001eb0:	f412 3f00 	tst.w	r2, #131072	; 0x20000
 8001eb4:	d0a5      	beq.n	8001e02 <HAL_RCC_ClockConfig+0xa>
 8001eb6:	689a      	ldr	r2, [r3, #8]
 8001eb8:	f241 3888 	movw	r8, #5000	; 0x1388
 8001ebc:	4e1a      	ldr	r6, [pc, #104]	; (8001f28 <HAL_RCC_ClockConfig+0x130>)
 8001ebe:	f022 0203 	bic.w	r2, r2, #3
 8001ec2:	430a      	orrs	r2, r1
 8001ec4:	609a      	str	r2, [r3, #8]
 8001ec6:	f7fe fb93 	bl	80005f0 <HAL_GetTick>
 8001eca:	4607      	mov	r7, r0
 8001ecc:	68b3      	ldr	r3, [r6, #8]
 8001ece:	6862      	ldr	r2, [r4, #4]
 8001ed0:	f003 030c 	and.w	r3, r3, #12
 8001ed4:	ebb3 0f82 	cmp.w	r3, r2, lsl #2
 8001ed8:	d0a1      	beq.n	8001e1e <HAL_RCC_ClockConfig+0x26>
 8001eda:	f7fe fb89 	bl	80005f0 <HAL_GetTick>
 8001ede:	1bc0      	subs	r0, r0, r7
 8001ee0:	4540      	cmp	r0, r8
 8001ee2:	d9f3      	bls.n	8001ecc <HAL_RCC_ClockConfig+0xd4>
 8001ee4:	2003      	movs	r0, #3
 8001ee6:	e8bd 81f0 	ldmia.w	sp!, {r4, r5, r6, r7, r8, pc}
 8001eea:	2902      	cmp	r1, #2
 8001eec:	d102      	bne.n	8001ef4 <HAL_RCC_ClockConfig+0xfc>
 8001eee:	f012 7f00 	tst.w	r2, #33554432	; 0x2000000
 8001ef2:	e7df      	b.n	8001eb4 <HAL_RCC_ClockConfig+0xbc>
 8001ef4:	f012 0f02 	tst.w	r2, #2
 8001ef8:	e7dc      	b.n	8001eb4 <HAL_RCC_ClockConfig+0xbc>
 8001efa:	6813      	ldr	r3, [r2, #0]
 8001efc:	f023 030f 	bic.w	r3, r3, #15
 8001f00:	432b      	orrs	r3, r5
 8001f02:	6013      	str	r3, [r2, #0]
 8001f04:	6813      	ldr	r3, [r2, #0]
 8001f06:	f003 030f 	and.w	r3, r3, #15
 8001f0a:	429d      	cmp	r5, r3
 8001f0c:	f47f af79 	bne.w	8001e02 <HAL_RCC_ClockConfig+0xa>
 8001f10:	e78b      	b.n	8001e2a <HAL_RCC_ClockConfig+0x32>
 8001f12:	4905      	ldr	r1, [pc, #20]	; (8001f28 <HAL_RCC_ClockConfig+0x130>)
 8001f14:	68e0      	ldr	r0, [r4, #12]
 8001f16:	688b      	ldr	r3, [r1, #8]
 8001f18:	f423 53e0 	bic.w	r3, r3, #7168	; 0x1c00
 8001f1c:	4303      	orrs	r3, r0
 8001f1e:	608b      	str	r3, [r1, #8]
 8001f20:	e786      	b.n	8001e30 <HAL_RCC_ClockConfig+0x38>
 8001f22:	bf00      	nop
 8001f24:	40023c00 	.word	0x40023c00
 8001f28:	40023800 	.word	0x40023800
 8001f2c:	0800db6e 	.word	0x0800db6e
 8001f30:	2000011c 	.word	0x2000011c

08001f34 <HAL_RCC_GetHCLKFreq>:
 8001f34:	4b01      	ldr	r3, [pc, #4]	; (8001f3c <HAL_RCC_GetHCLKFreq+0x8>)
 8001f36:	6818      	ldr	r0, [r3, #0]
 8001f38:	4770      	bx	lr
 8001f3a:	bf00      	nop
 8001f3c:	2000011c 	.word	0x2000011c

08001f40 <HAL_RCC_GetPCLK1Freq>:
 8001f40:	4b04      	ldr	r3, [pc, #16]	; (8001f54 <HAL_RCC_GetPCLK1Freq+0x14>)
 8001f42:	4a05      	ldr	r2, [pc, #20]	; (8001f58 <HAL_RCC_GetPCLK1Freq+0x18>)
 8001f44:	689b      	ldr	r3, [r3, #8]
 8001f46:	f3c3 2382 	ubfx	r3, r3, #10, #3
 8001f4a:	5cd3      	ldrb	r3, [r2, r3]
 8001f4c:	4a03      	ldr	r2, [pc, #12]	; (8001f5c <HAL_RCC_GetPCLK1Freq+0x1c>)
 8001f4e:	6810      	ldr	r0, [r2, #0]
 8001f50:	40d8      	lsrs	r0, r3
 8001f52:	4770      	bx	lr
 8001f54:	40023800 	.word	0x40023800
 8001f58:	0800db7e 	.word	0x0800db7e
 8001f5c:	2000011c 	.word	0x2000011c

08001f60 <HAL_RCC_GetPCLK2Freq>:
 8001f60:	4b04      	ldr	r3, [pc, #16]	; (8001f74 <HAL_RCC_GetPCLK2Freq+0x14>)
 8001f62:	4a05      	ldr	r2, [pc, #20]	; (8001f78 <HAL_RCC_GetPCLK2Freq+0x18>)
 8001f64:	689b      	ldr	r3, [r3, #8]
 8001f66:	f3c3 3342 	ubfx	r3, r3, #13, #3
 8001f6a:	5cd3      	ldrb	r3, [r2, r3]
 8001f6c:	4a03      	ldr	r2, [pc, #12]	; (8001f7c <HAL_RCC_GetPCLK2Freq+0x1c>)
 8001f6e:	6810      	ldr	r0, [r2, #0]
 8001f70:	40d8      	lsrs	r0, r3
 8001f72:	4770      	bx	lr
 8001f74:	40023800 	.word	0x40023800
 8001f78:	0800db7e 	.word	0x0800db7e
 8001f7c:	2000011c 	.word	0x2000011c

08001f80 <HAL_RCC_GetClockConfig>:
 8001f80:	230f      	movs	r3, #15
 8001f82:	6003      	str	r3, [r0, #0]
 8001f84:	4b0b      	ldr	r3, [pc, #44]	; (8001fb4 <HAL_RCC_GetClockConfig+0x34>)
 8001f86:	689a      	ldr	r2, [r3, #8]
 8001f88:	f002 0203 	and.w	r2, r2, #3
 8001f8c:	6042      	str	r2, [r0, #4]
 8001f8e:	689a      	ldr	r2, [r3, #8]
 8001f90:	f002 02f0 	and.w	r2, r2, #240	; 0xf0
 8001f94:	6082      	str	r2, [r0, #8]
 8001f96:	689a      	ldr	r2, [r3, #8]
 8001f98:	f402 52e0 	and.w	r2, r2, #7168	; 0x1c00
 8001f9c:	60c2      	str	r2, [r0, #12]
 8001f9e:	689b      	ldr	r3, [r3, #8]
 8001fa0:	08db      	lsrs	r3, r3, #3
 8001fa2:	f403 53e0 	and.w	r3, r3, #7168	; 0x1c00
 8001fa6:	6103      	str	r3, [r0, #16]
 8001fa8:	4b03      	ldr	r3, [pc, #12]	; (8001fb8 <HAL_RCC_GetClockConfig+0x38>)
 8001faa:	681b      	ldr	r3, [r3, #0]
 8001fac:	f003 030f 	and.w	r3, r3, #15
 8001fb0:	600b      	str	r3, [r1, #0]
 8001fb2:	4770      	bx	lr
 8001fb4:	40023800 	.word	0x40023800
 8001fb8:	40023c00 	.word	0x40023c00

08001fbc <HAL_RCCEx_PeriphCLKConfig>:
 8001fbc:	e92d 43f7 	stmdb	sp!, {r0, r1, r2, r4, r5, r6, r7, r8, r9, lr}
 8001fc0:	6802      	ldr	r2, [r0, #0]
 8001fc2:	4604      	mov	r4, r0
 8001fc4:	f012 0601 	ands.w	r6, r2, #1
 8001fc8:	d00b      	beq.n	8001fe2 <HAL_RCCEx_PeriphCLKConfig+0x26>
 8001fca:	4bb8      	ldr	r3, [pc, #736]	; (80022ac <HAL_RCCEx_PeriphCLKConfig+0x2f0>)
 8001fcc:	6899      	ldr	r1, [r3, #8]
 8001fce:	f421 0100 	bic.w	r1, r1, #8388608	; 0x800000
 8001fd2:	6099      	str	r1, [r3, #8]
 8001fd4:	6b46      	ldr	r6, [r0, #52]	; 0x34
 8001fd6:	6899      	ldr	r1, [r3, #8]
 8001fd8:	4331      	orrs	r1, r6
 8001fda:	fab6 f686 	clz	r6, r6
 8001fde:	0976      	lsrs	r6, r6, #5
 8001fe0:	6099      	str	r1, [r3, #8]
 8001fe2:	f412 2500 	ands.w	r5, r2, #524288	; 0x80000
 8001fe6:	d012      	beq.n	800200e <HAL_RCCEx_PeriphCLKConfig+0x52>
 8001fe8:	49b0      	ldr	r1, [pc, #704]	; (80022ac <HAL_RCCEx_PeriphCLKConfig+0x2f0>)
 8001fea:	6be5      	ldr	r5, [r4, #60]	; 0x3c
 8001fec:	f8d1 308c 	ldr.w	r3, [r1, #140]	; 0x8c
 8001ff0:	f5b5 1f80 	cmp.w	r5, #1048576	; 0x100000
 8001ff4:	f423 1340 	bic.w	r3, r3, #3145728	; 0x300000
 8001ff8:	bf08      	it	eq
 8001ffa:	2601      	moveq	r6, #1
 8001ffc:	ea43 0305 	orr.w	r3, r3, r5
 8002000:	bf16      	itet	ne
 8002002:	fab5 f585 	clzne	r5, r5
 8002006:	2500      	moveq	r5, #0
 8002008:	096d      	lsrne	r5, r5, #5
 800200a:	f8c1 308c 	str.w	r3, [r1, #140]	; 0x8c
 800200e:	02d1      	lsls	r1, r2, #11
 8002010:	d510      	bpl.n	8002034 <HAL_RCCEx_PeriphCLKConfig+0x78>
 8002012:	48a6      	ldr	r0, [pc, #664]	; (80022ac <HAL_RCCEx_PeriphCLKConfig+0x2f0>)
 8002014:	6c21      	ldr	r1, [r4, #64]	; 0x40
 8002016:	f8d0 308c 	ldr.w	r3, [r0, #140]	; 0x8c
 800201a:	f5b1 0f80 	cmp.w	r1, #4194304	; 0x400000
 800201e:	f423 0340 	bic.w	r3, r3, #12582912	; 0xc00000
 8002022:	ea43 0301 	orr.w	r3, r3, r1
 8002026:	f8c0 308c 	str.w	r3, [r0, #140]	; 0x8c
 800202a:	f000 8185 	beq.w	8002338 <HAL_RCCEx_PeriphCLKConfig+0x37c>
 800202e:	2900      	cmp	r1, #0
 8002030:	bf08      	it	eq
 8002032:	2501      	moveq	r5, #1
 8002034:	f012 7f80 	tst.w	r2, #16777216	; 0x1000000
 8002038:	bf18      	it	ne
 800203a:	2601      	movne	r6, #1
 800203c:	0692      	lsls	r2, r2, #26
 800203e:	d531      	bpl.n	80020a4 <HAL_RCCEx_PeriphCLKConfig+0xe8>
 8002040:	4b9a      	ldr	r3, [pc, #616]	; (80022ac <HAL_RCCEx_PeriphCLKConfig+0x2f0>)
 8002042:	4f9b      	ldr	r7, [pc, #620]	; (80022b0 <HAL_RCCEx_PeriphCLKConfig+0x2f4>)
 8002044:	6c1a      	ldr	r2, [r3, #64]	; 0x40
 8002046:	f042 5280 	orr.w	r2, r2, #268435456	; 0x10000000
 800204a:	641a      	str	r2, [r3, #64]	; 0x40
 800204c:	6c1b      	ldr	r3, [r3, #64]	; 0x40
 800204e:	f003 5380 	and.w	r3, r3, #268435456	; 0x10000000
 8002052:	9301      	str	r3, [sp, #4]
 8002054:	9b01      	ldr	r3, [sp, #4]
 8002056:	683b      	ldr	r3, [r7, #0]
 8002058:	f443 7380 	orr.w	r3, r3, #256	; 0x100
 800205c:	603b      	str	r3, [r7, #0]
 800205e:	f7fe fac7 	bl	80005f0 <HAL_GetTick>
 8002062:	4680      	mov	r8, r0
 8002064:	683b      	ldr	r3, [r7, #0]
 8002066:	05db      	lsls	r3, r3, #23
 8002068:	f140 8168 	bpl.w	800233c <HAL_RCCEx_PeriphCLKConfig+0x380>
 800206c:	4f8f      	ldr	r7, [pc, #572]	; (80022ac <HAL_RCCEx_PeriphCLKConfig+0x2f0>)
 800206e:	6f3b      	ldr	r3, [r7, #112]	; 0x70
 8002070:	f413 7340 	ands.w	r3, r3, #768	; 0x300
 8002074:	f040 816d 	bne.w	8002352 <HAL_RCCEx_PeriphCLKConfig+0x396>
 8002078:	6b23      	ldr	r3, [r4, #48]	; 0x30
 800207a:	f403 7240 	and.w	r2, r3, #768	; 0x300
 800207e:	f5b2 7f40 	cmp.w	r2, #768	; 0x300
 8002082:	4a8a      	ldr	r2, [pc, #552]	; (80022ac <HAL_RCCEx_PeriphCLKConfig+0x2f0>)
 8002084:	f040 818b 	bne.w	800239e <HAL_RCCEx_PeriphCLKConfig+0x3e2>
 8002088:	6891      	ldr	r1, [r2, #8]
 800208a:	f023 4070 	bic.w	r0, r3, #4026531840	; 0xf0000000
 800208e:	f421 11f8 	bic.w	r1, r1, #2031616	; 0x1f0000
 8002092:	f420 7040 	bic.w	r0, r0, #768	; 0x300
 8002096:	4301      	orrs	r1, r0
 8002098:	6091      	str	r1, [r2, #8]
 800209a:	f3c3 030b 	ubfx	r3, r3, #0, #12
 800209e:	6f11      	ldr	r1, [r2, #112]	; 0x70
 80020a0:	430b      	orrs	r3, r1
 80020a2:	6713      	str	r3, [r2, #112]	; 0x70
 80020a4:	6823      	ldr	r3, [r4, #0]
 80020a6:	06da      	lsls	r2, r3, #27
 80020a8:	d50c      	bpl.n	80020c4 <HAL_RCCEx_PeriphCLKConfig+0x108>
 80020aa:	4a80      	ldr	r2, [pc, #512]	; (80022ac <HAL_RCCEx_PeriphCLKConfig+0x2f0>)
 80020ac:	f8d2 108c 	ldr.w	r1, [r2, #140]	; 0x8c
 80020b0:	f021 7180 	bic.w	r1, r1, #16777216	; 0x1000000
 80020b4:	f8c2 108c 	str.w	r1, [r2, #140]	; 0x8c
 80020b8:	f8d2 108c 	ldr.w	r1, [r2, #140]	; 0x8c
 80020bc:	6ba0      	ldr	r0, [r4, #56]	; 0x38
 80020be:	4301      	orrs	r1, r0
 80020c0:	f8c2 108c 	str.w	r1, [r2, #140]	; 0x8c
 80020c4:	045f      	lsls	r7, r3, #17
 80020c6:	d508      	bpl.n	80020da <HAL_RCCEx_PeriphCLKConfig+0x11e>
 80020c8:	4978      	ldr	r1, [pc, #480]	; (80022ac <HAL_RCCEx_PeriphCLKConfig+0x2f0>)
 80020ca:	6e60      	ldr	r0, [r4, #100]	; 0x64
 80020cc:	f8d1 2090 	ldr.w	r2, [r1, #144]	; 0x90
 80020d0:	f422 3240 	bic.w	r2, r2, #196608	; 0x30000
 80020d4:	4302      	orrs	r2, r0
 80020d6:	f8c1 2090 	str.w	r2, [r1, #144]	; 0x90
 80020da:	0418      	lsls	r0, r3, #16
 80020dc:	d508      	bpl.n	80020f0 <HAL_RCCEx_PeriphCLKConfig+0x134>
 80020de:	4973      	ldr	r1, [pc, #460]	; (80022ac <HAL_RCCEx_PeriphCLKConfig+0x2f0>)
 80020e0:	6ea0      	ldr	r0, [r4, #104]	; 0x68
 80020e2:	f8d1 2090 	ldr.w	r2, [r1, #144]	; 0x90
 80020e6:	f422 2240 	bic.w	r2, r2, #786432	; 0xc0000
 80020ea:	4302      	orrs	r2, r0
 80020ec:	f8c1 2090 	str.w	r2, [r1, #144]	; 0x90
 80020f0:	03d9      	lsls	r1, r3, #15
 80020f2:	d508      	bpl.n	8002106 <HAL_RCCEx_PeriphCLKConfig+0x14a>
 80020f4:	496d      	ldr	r1, [pc, #436]	; (80022ac <HAL_RCCEx_PeriphCLKConfig+0x2f0>)
 80020f6:	6ee0      	ldr	r0, [r4, #108]	; 0x6c
 80020f8:	f8d1 2090 	ldr.w	r2, [r1, #144]	; 0x90
 80020fc:	f422 1240 	bic.w	r2, r2, #3145728	; 0x300000
 8002100:	4302      	orrs	r2, r0
 8002102:	f8c1 2090 	str.w	r2, [r1, #144]	; 0x90
 8002106:	039a      	lsls	r2, r3, #14
 8002108:	d508      	bpl.n	800211c <HAL_RCCEx_PeriphCLKConfig+0x160>
 800210a:	4968      	ldr	r1, [pc, #416]	; (80022ac <HAL_RCCEx_PeriphCLKConfig+0x2f0>)
 800210c:	6f20      	ldr	r0, [r4, #112]	; 0x70
 800210e:	f8d1 2090 	ldr.w	r2, [r1, #144]	; 0x90
 8002112:	f422 0240 	bic.w	r2, r2, #12582912	; 0xc00000
 8002116:	4302      	orrs	r2, r0
 8002118:	f8c1 2090 	str.w	r2, [r1, #144]	; 0x90
 800211c:	065f      	lsls	r7, r3, #25
 800211e:	d508      	bpl.n	8002132 <HAL_RCCEx_PeriphCLKConfig+0x176>
 8002120:	4962      	ldr	r1, [pc, #392]	; (80022ac <HAL_RCCEx_PeriphCLKConfig+0x2f0>)
 8002122:	6c60      	ldr	r0, [r4, #68]	; 0x44
 8002124:	f8d1 2090 	ldr.w	r2, [r1, #144]	; 0x90
 8002128:	f022 0203 	bic.w	r2, r2, #3
 800212c:	4302      	orrs	r2, r0
 800212e:	f8c1 2090 	str.w	r2, [r1, #144]	; 0x90
 8002132:	0618      	lsls	r0, r3, #24
 8002134:	d508      	bpl.n	8002148 <HAL_RCCEx_PeriphCLKConfig+0x18c>
 8002136:	495d      	ldr	r1, [pc, #372]	; (80022ac <HAL_RCCEx_PeriphCLKConfig+0x2f0>)
 8002138:	6ca0      	ldr	r0, [r4, #72]	; 0x48
 800213a:	f8d1 2090 	ldr.w	r2, [r1, #144]	; 0x90
 800213e:	f022 020c 	bic.w	r2, r2, #12
 8002142:	4302      	orrs	r2, r0
 8002144:	f8c1 2090 	str.w	r2, [r1, #144]	; 0x90
 8002148:	05d9      	lsls	r1, r3, #23
 800214a:	d508      	bpl.n	800215e <HAL_RCCEx_PeriphCLKConfig+0x1a2>
 800214c:	4957      	ldr	r1, [pc, #348]	; (80022ac <HAL_RCCEx_PeriphCLKConfig+0x2f0>)
 800214e:	6ce0      	ldr	r0, [r4, #76]	; 0x4c
 8002150:	f8d1 2090 	ldr.w	r2, [r1, #144]	; 0x90
 8002154:	f022 0230 	bic.w	r2, r2, #48	; 0x30
 8002158:	4302      	orrs	r2, r0
 800215a:	f8c1 2090 	str.w	r2, [r1, #144]	; 0x90
 800215e:	059a      	lsls	r2, r3, #22
 8002160:	d508      	bpl.n	8002174 <HAL_RCCEx_PeriphCLKConfig+0x1b8>
 8002162:	4952      	ldr	r1, [pc, #328]	; (80022ac <HAL_RCCEx_PeriphCLKConfig+0x2f0>)
 8002164:	6d20      	ldr	r0, [r4, #80]	; 0x50
 8002166:	f8d1 2090 	ldr.w	r2, [r1, #144]	; 0x90
 800216a:	f022 02c0 	bic.w	r2, r2, #192	; 0xc0
 800216e:	4302      	orrs	r2, r0
 8002170:	f8c1 2090 	str.w	r2, [r1, #144]	; 0x90
 8002174:	055f      	lsls	r7, r3, #21
 8002176:	d508      	bpl.n	800218a <HAL_RCCEx_PeriphCLKConfig+0x1ce>
 8002178:	494c      	ldr	r1, [pc, #304]	; (80022ac <HAL_RCCEx_PeriphCLKConfig+0x2f0>)
 800217a:	6d60      	ldr	r0, [r4, #84]	; 0x54
 800217c:	f8d1 2090 	ldr.w	r2, [r1, #144]	; 0x90
 8002180:	f422 7240 	bic.w	r2, r2, #768	; 0x300
 8002184:	4302      	orrs	r2, r0
 8002186:	f8c1 2090 	str.w	r2, [r1, #144]	; 0x90
 800218a:	0518      	lsls	r0, r3, #20
 800218c:	d508      	bpl.n	80021a0 <HAL_RCCEx_PeriphCLKConfig+0x1e4>
 800218e:	4947      	ldr	r1, [pc, #284]	; (80022ac <HAL_RCCEx_PeriphCLKConfig+0x2f0>)
 8002190:	6da0      	ldr	r0, [r4, #88]	; 0x58
 8002192:	f8d1 2090 	ldr.w	r2, [r1, #144]	; 0x90
 8002196:	f422 6240 	bic.w	r2, r2, #3072	; 0xc00
 800219a:	4302      	orrs	r2, r0
 800219c:	f8c1 2090 	str.w	r2, [r1, #144]	; 0x90
 80021a0:	04d9      	lsls	r1, r3, #19
 80021a2:	d508      	bpl.n	80021b6 <HAL_RCCEx_PeriphCLKConfig+0x1fa>
 80021a4:	4941      	ldr	r1, [pc, #260]	; (80022ac <HAL_RCCEx_PeriphCLKConfig+0x2f0>)
 80021a6:	6de0      	ldr	r0, [r4, #92]	; 0x5c
 80021a8:	f8d1 2090 	ldr.w	r2, [r1, #144]	; 0x90
 80021ac:	f422 5240 	bic.w	r2, r2, #12288	; 0x3000
 80021b0:	4302      	orrs	r2, r0
 80021b2:	f8c1 2090 	str.w	r2, [r1, #144]	; 0x90
 80021b6:	049a      	lsls	r2, r3, #18
 80021b8:	d508      	bpl.n	80021cc <HAL_RCCEx_PeriphCLKConfig+0x210>
 80021ba:	493c      	ldr	r1, [pc, #240]	; (80022ac <HAL_RCCEx_PeriphCLKConfig+0x2f0>)
 80021bc:	6e20      	ldr	r0, [r4, #96]	; 0x60
 80021be:	f8d1 2090 	ldr.w	r2, [r1, #144]	; 0x90
 80021c2:	f422 4240 	bic.w	r2, r2, #49152	; 0xc000
 80021c6:	4302      	orrs	r2, r0
 80021c8:	f8c1 2090 	str.w	r2, [r1, #144]	; 0x90
 80021cc:	025f      	lsls	r7, r3, #9
 80021ce:	d508      	bpl.n	80021e2 <HAL_RCCEx_PeriphCLKConfig+0x226>
 80021d0:	4936      	ldr	r1, [pc, #216]	; (80022ac <HAL_RCCEx_PeriphCLKConfig+0x2f0>)
 80021d2:	6fa0      	ldr	r0, [r4, #120]	; 0x78
 80021d4:	f8d1 2090 	ldr.w	r2, [r1, #144]	; 0x90
 80021d8:	f022 6280 	bic.w	r2, r2, #67108864	; 0x4000000
 80021dc:	4302      	orrs	r2, r0
 80021de:	f8c1 2090 	str.w	r2, [r1, #144]	; 0x90
 80021e2:	0298      	lsls	r0, r3, #10
 80021e4:	d50c      	bpl.n	8002200 <HAL_RCCEx_PeriphCLKConfig+0x244>
 80021e6:	4831      	ldr	r0, [pc, #196]	; (80022ac <HAL_RCCEx_PeriphCLKConfig+0x2f0>)
 80021e8:	6fe1      	ldr	r1, [r4, #124]	; 0x7c
 80021ea:	f8d0 2090 	ldr.w	r2, [r0, #144]	; 0x90
 80021ee:	f1b1 6f00 	cmp.w	r1, #134217728	; 0x8000000
 80021f2:	f022 6200 	bic.w	r2, r2, #134217728	; 0x8000000
 80021f6:	bf08      	it	eq
 80021f8:	2501      	moveq	r5, #1
 80021fa:	430a      	orrs	r2, r1
 80021fc:	f8c0 2090 	str.w	r2, [r0, #144]	; 0x90
 8002200:	f013 0f08 	tst.w	r3, #8
 8002204:	bf18      	it	ne
 8002206:	2501      	movne	r5, #1
 8002208:	0359      	lsls	r1, r3, #13
 800220a:	d508      	bpl.n	800221e <HAL_RCCEx_PeriphCLKConfig+0x262>
 800220c:	4927      	ldr	r1, [pc, #156]	; (80022ac <HAL_RCCEx_PeriphCLKConfig+0x2f0>)
 800220e:	6f60      	ldr	r0, [r4, #116]	; 0x74
 8002210:	f8d1 2090 	ldr.w	r2, [r1, #144]	; 0x90
 8002214:	f022 7240 	bic.w	r2, r2, #50331648	; 0x3000000
 8002218:	4302      	orrs	r2, r0
 800221a:	f8c1 2090 	str.w	r2, [r1, #144]	; 0x90
 800221e:	021a      	lsls	r2, r3, #8
 8002220:	d509      	bpl.n	8002236 <HAL_RCCEx_PeriphCLKConfig+0x27a>
 8002222:	4922      	ldr	r1, [pc, #136]	; (80022ac <HAL_RCCEx_PeriphCLKConfig+0x2f0>)
 8002224:	f8d4 0080 	ldr.w	r0, [r4, #128]	; 0x80
 8002228:	f8d1 2090 	ldr.w	r2, [r1, #144]	; 0x90
 800222c:	f022 5280 	bic.w	r2, r2, #268435456	; 0x10000000
 8002230:	4302      	orrs	r2, r0
 8002232:	f8c1 2090 	str.w	r2, [r1, #144]	; 0x90
 8002236:	2e01      	cmp	r6, #1
 8002238:	f000 80b5 	beq.w	80023a6 <HAL_RCCEx_PeriphCLKConfig+0x3ea>
 800223c:	f1b3 7f00 	cmp.w	r3, #33554432	; 0x2000000
 8002240:	f000 80b1 	beq.w	80023a6 <HAL_RCCEx_PeriphCLKConfig+0x3ea>
 8002244:	2d01      	cmp	r5, #1
 8002246:	d175      	bne.n	8002334 <HAL_RCCEx_PeriphCLKConfig+0x378>
 8002248:	4d18      	ldr	r5, [pc, #96]	; (80022ac <HAL_RCCEx_PeriphCLKConfig+0x2f0>)
 800224a:	682b      	ldr	r3, [r5, #0]
 800224c:	f023 5380 	bic.w	r3, r3, #268435456	; 0x10000000
 8002250:	602b      	str	r3, [r5, #0]
 8002252:	f7fe f9cd 	bl	80005f0 <HAL_GetTick>
 8002256:	4606      	mov	r6, r0
 8002258:	682b      	ldr	r3, [r5, #0]
 800225a:	009f      	lsls	r7, r3, #2
 800225c:	f100 8127 	bmi.w	80024ae <HAL_RCCEx_PeriphCLKConfig+0x4f2>
 8002260:	6821      	ldr	r1, [r4, #0]
 8002262:	030e      	lsls	r6, r1, #12
 8002264:	d501      	bpl.n	800226a <HAL_RCCEx_PeriphCLKConfig+0x2ae>
 8002266:	6be3      	ldr	r3, [r4, #60]	; 0x3c
 8002268:	b11b      	cbz	r3, 8002272 <HAL_RCCEx_PeriphCLKConfig+0x2b6>
 800226a:	02cd      	lsls	r5, r1, #11
 800226c:	d522      	bpl.n	80022b4 <HAL_RCCEx_PeriphCLKConfig+0x2f8>
 800226e:	6c23      	ldr	r3, [r4, #64]	; 0x40
 8002270:	bb03      	cbnz	r3, 80022b4 <HAL_RCCEx_PeriphCLKConfig+0x2f8>
 8002272:	4a0e      	ldr	r2, [pc, #56]	; (80022ac <HAL_RCCEx_PeriphCLKConfig+0x2f0>)
 8002274:	f8d2 3088 	ldr.w	r3, [r2, #136]	; 0x88
 8002278:	f8d2 0088 	ldr.w	r0, [r2, #136]	; 0x88
 800227c:	f403 3340 	and.w	r3, r3, #196608	; 0x30000
 8002280:	f000 40e0 	and.w	r0, r0, #1879048192	; 0x70000000
 8002284:	4303      	orrs	r3, r0
 8002286:	6960      	ldr	r0, [r4, #20]
 8002288:	ea43 1380 	orr.w	r3, r3, r0, lsl #6
 800228c:	69a0      	ldr	r0, [r4, #24]
 800228e:	ea43 6300 	orr.w	r3, r3, r0, lsl #24
 8002292:	f8c2 3088 	str.w	r3, [r2, #136]	; 0x88
 8002296:	f8d2 308c 	ldr.w	r3, [r2, #140]	; 0x8c
 800229a:	6aa0      	ldr	r0, [r4, #40]	; 0x28
 800229c:	f423 53f8 	bic.w	r3, r3, #7936	; 0x1f00
 80022a0:	3801      	subs	r0, #1
 80022a2:	ea43 2300 	orr.w	r3, r3, r0, lsl #8
 80022a6:	f8c2 308c 	str.w	r3, [r2, #140]	; 0x8c
 80022aa:	e003      	b.n	80022b4 <HAL_RCCEx_PeriphCLKConfig+0x2f8>
 80022ac:	40023800 	.word	0x40023800
 80022b0:	40007000 	.word	0x40007000
 80022b4:	0288      	lsls	r0, r1, #10
 80022b6:	d515      	bpl.n	80022e4 <HAL_RCCEx_PeriphCLKConfig+0x328>
 80022b8:	6fe3      	ldr	r3, [r4, #124]	; 0x7c
 80022ba:	f1b3 6f00 	cmp.w	r3, #134217728	; 0x8000000
 80022be:	d111      	bne.n	80022e4 <HAL_RCCEx_PeriphCLKConfig+0x328>
 80022c0:	4a82      	ldr	r2, [pc, #520]	; (80024cc <HAL_RCCEx_PeriphCLKConfig+0x510>)
 80022c2:	f8d2 3088 	ldr.w	r3, [r2, #136]	; 0x88
 80022c6:	f8d2 0088 	ldr.w	r0, [r2, #136]	; 0x88
 80022ca:	f003 6370 	and.w	r3, r3, #251658240	; 0xf000000
 80022ce:	f000 40e0 	and.w	r0, r0, #1879048192	; 0x70000000
 80022d2:	4303      	orrs	r3, r0
 80022d4:	6960      	ldr	r0, [r4, #20]
 80022d6:	ea43 1380 	orr.w	r3, r3, r0, lsl #6
 80022da:	6a20      	ldr	r0, [r4, #32]
 80022dc:	ea43 4300 	orr.w	r3, r3, r0, lsl #16
 80022e0:	f8c2 3088 	str.w	r3, [r2, #136]	; 0x88
 80022e4:	070a      	lsls	r2, r1, #28
 80022e6:	d519      	bpl.n	800231c <HAL_RCCEx_PeriphCLKConfig+0x360>
 80022e8:	4978      	ldr	r1, [pc, #480]	; (80024cc <HAL_RCCEx_PeriphCLKConfig+0x510>)
 80022ea:	f8d1 2088 	ldr.w	r2, [r1, #136]	; 0x88
 80022ee:	f8d1 3088 	ldr.w	r3, [r1, #136]	; 0x88
 80022f2:	f002 6270 	and.w	r2, r2, #251658240	; 0xf000000
 80022f6:	f403 3340 	and.w	r3, r3, #196608	; 0x30000
 80022fa:	4313      	orrs	r3, r2
 80022fc:	6962      	ldr	r2, [r4, #20]
 80022fe:	ea43 1382 	orr.w	r3, r3, r2, lsl #6
 8002302:	69e2      	ldr	r2, [r4, #28]
 8002304:	ea43 7302 	orr.w	r3, r3, r2, lsl #28
 8002308:	f8c1 3088 	str.w	r3, [r1, #136]	; 0x88
 800230c:	f8d1 308c 	ldr.w	r3, [r1, #140]	; 0x8c
 8002310:	6ae2      	ldr	r2, [r4, #44]	; 0x2c
 8002312:	f423 3340 	bic.w	r3, r3, #196608	; 0x30000
 8002316:	4313      	orrs	r3, r2
 8002318:	f8c1 308c 	str.w	r3, [r1, #140]	; 0x8c
 800231c:	4c6b      	ldr	r4, [pc, #428]	; (80024cc <HAL_RCCEx_PeriphCLKConfig+0x510>)
 800231e:	6823      	ldr	r3, [r4, #0]
 8002320:	f043 5380 	orr.w	r3, r3, #268435456	; 0x10000000
 8002324:	6023      	str	r3, [r4, #0]
 8002326:	f7fe f963 	bl	80005f0 <HAL_GetTick>
 800232a:	4605      	mov	r5, r0
 800232c:	6823      	ldr	r3, [r4, #0]
 800232e:	009b      	lsls	r3, r3, #2
 8002330:	f140 80c4 	bpl.w	80024bc <HAL_RCCEx_PeriphCLKConfig+0x500>
 8002334:	2000      	movs	r0, #0
 8002336:	e009      	b.n	800234c <HAL_RCCEx_PeriphCLKConfig+0x390>
 8002338:	2601      	movs	r6, #1
 800233a:	e67b      	b.n	8002034 <HAL_RCCEx_PeriphCLKConfig+0x78>
 800233c:	f7fe f958 	bl	80005f0 <HAL_GetTick>
 8002340:	eba0 0008 	sub.w	r0, r0, r8
 8002344:	2864      	cmp	r0, #100	; 0x64
 8002346:	f67f ae8d 	bls.w	8002064 <HAL_RCCEx_PeriphCLKConfig+0xa8>
 800234a:	2003      	movs	r0, #3
 800234c:	b003      	add	sp, #12
 800234e:	e8bd 83f0 	ldmia.w	sp!, {r4, r5, r6, r7, r8, r9, pc}
 8002352:	6b22      	ldr	r2, [r4, #48]	; 0x30
 8002354:	f402 7240 	and.w	r2, r2, #768	; 0x300
 8002358:	4293      	cmp	r3, r2
 800235a:	f43f ae8d 	beq.w	8002078 <HAL_RCCEx_PeriphCLKConfig+0xbc>
 800235e:	6f3b      	ldr	r3, [r7, #112]	; 0x70
 8002360:	6f3a      	ldr	r2, [r7, #112]	; 0x70
 8002362:	f423 7340 	bic.w	r3, r3, #768	; 0x300
 8002366:	f442 3280 	orr.w	r2, r2, #65536	; 0x10000
 800236a:	673a      	str	r2, [r7, #112]	; 0x70
 800236c:	6f3a      	ldr	r2, [r7, #112]	; 0x70
 800236e:	f422 3280 	bic.w	r2, r2, #65536	; 0x10000
 8002372:	673a      	str	r2, [r7, #112]	; 0x70
 8002374:	673b      	str	r3, [r7, #112]	; 0x70
 8002376:	6f3b      	ldr	r3, [r7, #112]	; 0x70
 8002378:	07d8      	lsls	r0, r3, #31
 800237a:	f57f ae7d 	bpl.w	8002078 <HAL_RCCEx_PeriphCLKConfig+0xbc>
 800237e:	f7fe f937 	bl	80005f0 <HAL_GetTick>
 8002382:	f241 3988 	movw	r9, #5000	; 0x1388
 8002386:	4680      	mov	r8, r0
 8002388:	6f3b      	ldr	r3, [r7, #112]	; 0x70
 800238a:	0799      	lsls	r1, r3, #30
 800238c:	f53f ae74 	bmi.w	8002078 <HAL_RCCEx_PeriphCLKConfig+0xbc>
 8002390:	f7fe f92e 	bl	80005f0 <HAL_GetTick>
 8002394:	eba0 0008 	sub.w	r0, r0, r8
 8002398:	4548      	cmp	r0, r9
 800239a:	d9f5      	bls.n	8002388 <HAL_RCCEx_PeriphCLKConfig+0x3cc>
 800239c:	e7d5      	b.n	800234a <HAL_RCCEx_PeriphCLKConfig+0x38e>
 800239e:	6891      	ldr	r1, [r2, #8]
 80023a0:	f421 11f8 	bic.w	r1, r1, #2031616	; 0x1f0000
 80023a4:	e678      	b.n	8002098 <HAL_RCCEx_PeriphCLKConfig+0xdc>
 80023a6:	4e49      	ldr	r6, [pc, #292]	; (80024cc <HAL_RCCEx_PeriphCLKConfig+0x510>)
 80023a8:	6833      	ldr	r3, [r6, #0]
 80023aa:	f023 6380 	bic.w	r3, r3, #67108864	; 0x4000000
 80023ae:	6033      	str	r3, [r6, #0]
 80023b0:	f7fe f91e 	bl	80005f0 <HAL_GetTick>
 80023b4:	4607      	mov	r7, r0
 80023b6:	6833      	ldr	r3, [r6, #0]
 80023b8:	011b      	lsls	r3, r3, #4
 80023ba:	d472      	bmi.n	80024a2 <HAL_RCCEx_PeriphCLKConfig+0x4e6>
 80023bc:	6822      	ldr	r2, [r4, #0]
 80023be:	07d7      	lsls	r7, r2, #31
 80023c0:	d512      	bpl.n	80023e8 <HAL_RCCEx_PeriphCLKConfig+0x42c>
 80023c2:	6b63      	ldr	r3, [r4, #52]	; 0x34
 80023c4:	b983      	cbnz	r3, 80023e8 <HAL_RCCEx_PeriphCLKConfig+0x42c>
 80023c6:	f8d6 3084 	ldr.w	r3, [r6, #132]	; 0x84
 80023ca:	f8d6 1084 	ldr.w	r1, [r6, #132]	; 0x84
 80023ce:	f403 3340 	and.w	r3, r3, #196608	; 0x30000
 80023d2:	f001 6170 	and.w	r1, r1, #251658240	; 0xf000000
 80023d6:	430b      	orrs	r3, r1
 80023d8:	6861      	ldr	r1, [r4, #4]
 80023da:	ea43 1381 	orr.w	r3, r3, r1, lsl #6
 80023de:	68a1      	ldr	r1, [r4, #8]
 80023e0:	ea43 7301 	orr.w	r3, r3, r1, lsl #28
 80023e4:	f8c6 3084 	str.w	r3, [r6, #132]	; 0x84
 80023e8:	0316      	lsls	r6, r2, #12
 80023ea:	d503      	bpl.n	80023f4 <HAL_RCCEx_PeriphCLKConfig+0x438>
 80023ec:	6be3      	ldr	r3, [r4, #60]	; 0x3c
 80023ee:	f5b3 1f80 	cmp.w	r3, #1048576	; 0x100000
 80023f2:	d005      	beq.n	8002400 <HAL_RCCEx_PeriphCLKConfig+0x444>
 80023f4:	02d0      	lsls	r0, r2, #11
 80023f6:	d51e      	bpl.n	8002436 <HAL_RCCEx_PeriphCLKConfig+0x47a>
 80023f8:	6c23      	ldr	r3, [r4, #64]	; 0x40
 80023fa:	f5b3 0f80 	cmp.w	r3, #4194304	; 0x400000
 80023fe:	d11a      	bne.n	8002436 <HAL_RCCEx_PeriphCLKConfig+0x47a>
 8002400:	4932      	ldr	r1, [pc, #200]	; (80024cc <HAL_RCCEx_PeriphCLKConfig+0x510>)
 8002402:	f8d1 3084 	ldr.w	r3, [r1, #132]	; 0x84
 8002406:	f8d1 0084 	ldr.w	r0, [r1, #132]	; 0x84
 800240a:	f403 3340 	and.w	r3, r3, #196608	; 0x30000
 800240e:	f000 40e0 	and.w	r0, r0, #1879048192	; 0x70000000
 8002412:	4303      	orrs	r3, r0
 8002414:	6860      	ldr	r0, [r4, #4]
 8002416:	ea43 1380 	orr.w	r3, r3, r0, lsl #6
 800241a:	68e0      	ldr	r0, [r4, #12]
 800241c:	ea43 6300 	orr.w	r3, r3, r0, lsl #24
 8002420:	f8c1 3084 	str.w	r3, [r1, #132]	; 0x84
 8002424:	f8d1 008c 	ldr.w	r0, [r1, #140]	; 0x8c
 8002428:	6a63      	ldr	r3, [r4, #36]	; 0x24
 800242a:	f020 001f 	bic.w	r0, r0, #31
 800242e:	3b01      	subs	r3, #1
 8002430:	4303      	orrs	r3, r0
 8002432:	f8c1 308c 	str.w	r3, [r1, #140]	; 0x8c
 8002436:	01d1      	lsls	r1, r2, #7
 8002438:	d511      	bpl.n	800245e <HAL_RCCEx_PeriphCLKConfig+0x4a2>
 800243a:	4924      	ldr	r1, [pc, #144]	; (80024cc <HAL_RCCEx_PeriphCLKConfig+0x510>)
 800243c:	f8d1 3084 	ldr.w	r3, [r1, #132]	; 0x84
 8002440:	f8d1 0084 	ldr.w	r0, [r1, #132]	; 0x84
 8002444:	f003 6370 	and.w	r3, r3, #251658240	; 0xf000000
 8002448:	f000 40e0 	and.w	r0, r0, #1879048192	; 0x70000000
 800244c:	4303      	orrs	r3, r0
 800244e:	6860      	ldr	r0, [r4, #4]
 8002450:	ea43 1380 	orr.w	r3, r3, r0, lsl #6
 8002454:	6920      	ldr	r0, [r4, #16]
 8002456:	ea43 4300 	orr.w	r3, r3, r0, lsl #16
 800245a:	f8c1 3084 	str.w	r3, [r1, #132]	; 0x84
 800245e:	0192      	lsls	r2, r2, #6
 8002460:	d50d      	bpl.n	800247e <HAL_RCCEx_PeriphCLKConfig+0x4c2>
 8002462:	6923      	ldr	r3, [r4, #16]
 8002464:	6862      	ldr	r2, [r4, #4]
 8002466:	041b      	lsls	r3, r3, #16
 8002468:	ea43 1382 	orr.w	r3, r3, r2, lsl #6
 800246c:	68e2      	ldr	r2, [r4, #12]
 800246e:	ea43 6302 	orr.w	r3, r3, r2, lsl #24
 8002472:	68a2      	ldr	r2, [r4, #8]
 8002474:	ea43 7302 	orr.w	r3, r3, r2, lsl #28
 8002478:	4a14      	ldr	r2, [pc, #80]	; (80024cc <HAL_RCCEx_PeriphCLKConfig+0x510>)
 800247a:	f8c2 3084 	str.w	r3, [r2, #132]	; 0x84
 800247e:	4e13      	ldr	r6, [pc, #76]	; (80024cc <HAL_RCCEx_PeriphCLKConfig+0x510>)
 8002480:	6833      	ldr	r3, [r6, #0]
 8002482:	f043 6380 	orr.w	r3, r3, #67108864	; 0x4000000
 8002486:	6033      	str	r3, [r6, #0]
 8002488:	f7fe f8b2 	bl	80005f0 <HAL_GetTick>
 800248c:	4607      	mov	r7, r0
 800248e:	6833      	ldr	r3, [r6, #0]
 8002490:	011b      	lsls	r3, r3, #4
 8002492:	f53f aed7 	bmi.w	8002244 <HAL_RCCEx_PeriphCLKConfig+0x288>
 8002496:	f7fe f8ab 	bl	80005f0 <HAL_GetTick>
 800249a:	1bc0      	subs	r0, r0, r7
 800249c:	2864      	cmp	r0, #100	; 0x64
 800249e:	d9f6      	bls.n	800248e <HAL_RCCEx_PeriphCLKConfig+0x4d2>
 80024a0:	e753      	b.n	800234a <HAL_RCCEx_PeriphCLKConfig+0x38e>
 80024a2:	f7fe f8a5 	bl	80005f0 <HAL_GetTick>
 80024a6:	1bc0      	subs	r0, r0, r7
 80024a8:	2864      	cmp	r0, #100	; 0x64
 80024aa:	d984      	bls.n	80023b6 <HAL_RCCEx_PeriphCLKConfig+0x3fa>
 80024ac:	e74d      	b.n	800234a <HAL_RCCEx_PeriphCLKConfig+0x38e>
 80024ae:	f7fe f89f 	bl	80005f0 <HAL_GetTick>
 80024b2:	1b80      	subs	r0, r0, r6
 80024b4:	2864      	cmp	r0, #100	; 0x64
 80024b6:	f67f aecf 	bls.w	8002258 <HAL_RCCEx_PeriphCLKConfig+0x29c>
 80024ba:	e746      	b.n	800234a <HAL_RCCEx_PeriphCLKConfig+0x38e>
 80024bc:	f7fe f898 	bl	80005f0 <HAL_GetTick>
 80024c0:	1b40      	subs	r0, r0, r5
 80024c2:	2864      	cmp	r0, #100	; 0x64
 80024c4:	f67f af32 	bls.w	800232c <HAL_RCCEx_PeriphCLKConfig+0x370>
 80024c8:	e73f      	b.n	800234a <HAL_RCCEx_PeriphCLKConfig+0x38e>
 80024ca:	bf00      	nop
 80024cc:	40023800 	.word	0x40023800

080024d0 <HAL_TIM_Base_MspInit>:
 80024d0:	4770      	bx	lr

080024d2 <HAL_TIM_Base_Start_IT>:
 80024d2:	6803      	ldr	r3, [r0, #0]
 80024d4:	2000      	movs	r0, #0
 80024d6:	68da      	ldr	r2, [r3, #12]
 80024d8:	f042 0201 	orr.w	r2, r2, #1
 80024dc:	60da      	str	r2, [r3, #12]
 80024de:	681a      	ldr	r2, [r3, #0]
 80024e0:	f042 0201 	orr.w	r2, r2, #1
 80024e4:	601a      	str	r2, [r3, #0]
 80024e6:	4770      	bx	lr

080024e8 <HAL_TIM_OC_DelayElapsedCallback>:
 80024e8:	4770      	bx	lr

080024ea <HAL_TIM_IC_CaptureCallback>:
 80024ea:	4770      	bx	lr

080024ec <HAL_TIM_PWM_PulseFinishedCallback>:
 80024ec:	4770      	bx	lr

080024ee <HAL_TIM_TriggerCallback>:
 80024ee:	4770      	bx	lr

080024f0 <HAL_TIM_IRQHandler>:
 80024f0:	6803      	ldr	r3, [r0, #0]
 80024f2:	691a      	ldr	r2, [r3, #16]
 80024f4:	0791      	lsls	r1, r2, #30
 80024f6:	b510      	push	{r4, lr}
 80024f8:	4604      	mov	r4, r0
 80024fa:	d50f      	bpl.n	800251c <HAL_TIM_IRQHandler+0x2c>
 80024fc:	68da      	ldr	r2, [r3, #12]
 80024fe:	0792      	lsls	r2, r2, #30
 8002500:	d50c      	bpl.n	800251c <HAL_TIM_IRQHandler+0x2c>
 8002502:	f06f 0202 	mvn.w	r2, #2
 8002506:	611a      	str	r2, [r3, #16]
 8002508:	2201      	movs	r2, #1
 800250a:	699b      	ldr	r3, [r3, #24]
 800250c:	7702      	strb	r2, [r0, #28]
 800250e:	0799      	lsls	r1, r3, #30
 8002510:	f000 8085 	beq.w	800261e <HAL_TIM_IRQHandler+0x12e>
 8002514:	f7ff ffe9 	bl	80024ea <HAL_TIM_IC_CaptureCallback>
 8002518:	2300      	movs	r3, #0
 800251a:	7723      	strb	r3, [r4, #28]
 800251c:	6823      	ldr	r3, [r4, #0]
 800251e:	691a      	ldr	r2, [r3, #16]
 8002520:	0752      	lsls	r2, r2, #29
 8002522:	d510      	bpl.n	8002546 <HAL_TIM_IRQHandler+0x56>
 8002524:	68da      	ldr	r2, [r3, #12]
 8002526:	0750      	lsls	r0, r2, #29
 8002528:	d50d      	bpl.n	8002546 <HAL_TIM_IRQHandler+0x56>
 800252a:	f06f 0204 	mvn.w	r2, #4
 800252e:	4620      	mov	r0, r4
 8002530:	611a      	str	r2, [r3, #16]
 8002532:	2202      	movs	r2, #2
 8002534:	699b      	ldr	r3, [r3, #24]
 8002536:	7722      	strb	r2, [r4, #28]
 8002538:	f413 7f40 	tst.w	r3, #768	; 0x300
 800253c:	d075      	beq.n	800262a <HAL_TIM_IRQHandler+0x13a>
 800253e:	f7ff ffd4 	bl	80024ea <HAL_TIM_IC_CaptureCallback>
 8002542:	2300      	movs	r3, #0
 8002544:	7723      	strb	r3, [r4, #28]
 8002546:	6823      	ldr	r3, [r4, #0]
 8002548:	691a      	ldr	r2, [r3, #16]
 800254a:	0711      	lsls	r1, r2, #28
 800254c:	d50f      	bpl.n	800256e <HAL_TIM_IRQHandler+0x7e>
 800254e:	68da      	ldr	r2, [r3, #12]
 8002550:	0712      	lsls	r2, r2, #28
 8002552:	d50c      	bpl.n	800256e <HAL_TIM_IRQHandler+0x7e>
 8002554:	f06f 0208 	mvn.w	r2, #8
 8002558:	4620      	mov	r0, r4
 800255a:	611a      	str	r2, [r3, #16]
 800255c:	2204      	movs	r2, #4
 800255e:	69db      	ldr	r3, [r3, #28]
 8002560:	7722      	strb	r2, [r4, #28]
 8002562:	079b      	lsls	r3, r3, #30
 8002564:	d067      	beq.n	8002636 <HAL_TIM_IRQHandler+0x146>
 8002566:	f7ff ffc0 	bl	80024ea <HAL_TIM_IC_CaptureCallback>
 800256a:	2300      	movs	r3, #0
 800256c:	7723      	strb	r3, [r4, #28]
 800256e:	6823      	ldr	r3, [r4, #0]
 8002570:	691a      	ldr	r2, [r3, #16]
 8002572:	06d0      	lsls	r0, r2, #27
 8002574:	d510      	bpl.n	8002598 <HAL_TIM_IRQHandler+0xa8>
 8002576:	68da      	ldr	r2, [r3, #12]
 8002578:	06d1      	lsls	r1, r2, #27
 800257a:	d50d      	bpl.n	8002598 <HAL_TIM_IRQHandler+0xa8>
 800257c:	f06f 0210 	mvn.w	r2, #16
 8002580:	4620      	mov	r0, r4
 8002582:	611a      	str	r2, [r3, #16]
 8002584:	2208      	movs	r2, #8
 8002586:	69db      	ldr	r3, [r3, #28]
 8002588:	7722      	strb	r2, [r4, #28]
 800258a:	f413 7f40 	tst.w	r3, #768	; 0x300
 800258e:	d058      	beq.n	8002642 <HAL_TIM_IRQHandler+0x152>
 8002590:	f7ff ffab 	bl	80024ea <HAL_TIM_IC_CaptureCallback>
 8002594:	2300      	movs	r3, #0
 8002596:	7723      	strb	r3, [r4, #28]
 8002598:	6823      	ldr	r3, [r4, #0]
 800259a:	691a      	ldr	r2, [r3, #16]
 800259c:	07d2      	lsls	r2, r2, #31
 800259e:	d508      	bpl.n	80025b2 <HAL_TIM_IRQHandler+0xc2>
 80025a0:	68da      	ldr	r2, [r3, #12]
 80025a2:	07d0      	lsls	r0, r2, #31
 80025a4:	d505      	bpl.n	80025b2 <HAL_TIM_IRQHandler+0xc2>
 80025a6:	f06f 0201 	mvn.w	r2, #1
 80025aa:	4620      	mov	r0, r4
 80025ac:	611a      	str	r2, [r3, #16]
 80025ae:	f008 fd15 	bl	800afdc <HAL_TIM_PeriodElapsedCallback>
 80025b2:	6823      	ldr	r3, [r4, #0]
 80025b4:	691a      	ldr	r2, [r3, #16]
 80025b6:	0611      	lsls	r1, r2, #24
 80025b8:	d508      	bpl.n	80025cc <HAL_TIM_IRQHandler+0xdc>
 80025ba:	68da      	ldr	r2, [r3, #12]
 80025bc:	0612      	lsls	r2, r2, #24
 80025be:	d505      	bpl.n	80025cc <HAL_TIM_IRQHandler+0xdc>
 80025c0:	f06f 0280 	mvn.w	r2, #128	; 0x80
 80025c4:	4620      	mov	r0, r4
 80025c6:	611a      	str	r2, [r3, #16]
 80025c8:	f000 f8c5 	bl	8002756 <HAL_TIMEx_BreakCallback>
 80025cc:	6823      	ldr	r3, [r4, #0]
 80025ce:	691a      	ldr	r2, [r3, #16]
 80025d0:	05d0      	lsls	r0, r2, #23
 80025d2:	d508      	bpl.n	80025e6 <HAL_TIM_IRQHandler+0xf6>
 80025d4:	68da      	ldr	r2, [r3, #12]
 80025d6:	0611      	lsls	r1, r2, #24
 80025d8:	d505      	bpl.n	80025e6 <HAL_TIM_IRQHandler+0xf6>
 80025da:	f06f 0280 	mvn.w	r2, #128	; 0x80
 80025de:	4620      	mov	r0, r4
 80025e0:	611a      	str	r2, [r3, #16]
 80025e2:	f000 f8b8 	bl	8002756 <HAL_TIMEx_BreakCallback>
 80025e6:	6823      	ldr	r3, [r4, #0]
 80025e8:	691a      	ldr	r2, [r3, #16]
 80025ea:	0652      	lsls	r2, r2, #25
 80025ec:	d508      	bpl.n	8002600 <HAL_TIM_IRQHandler+0x110>
 80025ee:	68da      	ldr	r2, [r3, #12]
 80025f0:	0650      	lsls	r0, r2, #25
 80025f2:	d505      	bpl.n	8002600 <HAL_TIM_IRQHandler+0x110>
 80025f4:	f06f 0240 	mvn.w	r2, #64	; 0x40
 80025f8:	4620      	mov	r0, r4
 80025fa:	611a      	str	r2, [r3, #16]
 80025fc:	f7ff ff77 	bl	80024ee <HAL_TIM_TriggerCallback>
 8002600:	6823      	ldr	r3, [r4, #0]
 8002602:	691a      	ldr	r2, [r3, #16]
 8002604:	0691      	lsls	r1, r2, #26
 8002606:	d522      	bpl.n	800264e <HAL_TIM_IRQHandler+0x15e>
 8002608:	68da      	ldr	r2, [r3, #12]
 800260a:	0692      	lsls	r2, r2, #26
 800260c:	d51f      	bpl.n	800264e <HAL_TIM_IRQHandler+0x15e>
 800260e:	f06f 0220 	mvn.w	r2, #32
 8002612:	4620      	mov	r0, r4
 8002614:	611a      	str	r2, [r3, #16]
 8002616:	e8bd 4010 	ldmia.w	sp!, {r4, lr}
 800261a:	f000 b89b 	b.w	8002754 <HAL_TIMEx_CommutationCallback>
 800261e:	f7ff ff63 	bl	80024e8 <HAL_TIM_OC_DelayElapsedCallback>
 8002622:	4620      	mov	r0, r4
 8002624:	f7ff ff62 	bl	80024ec <HAL_TIM_PWM_PulseFinishedCallback>
 8002628:	e776      	b.n	8002518 <HAL_TIM_IRQHandler+0x28>
 800262a:	f7ff ff5d 	bl	80024e8 <HAL_TIM_OC_DelayElapsedCallback>
 800262e:	4620      	mov	r0, r4
 8002630:	f7ff ff5c 	bl	80024ec <HAL_TIM_PWM_PulseFinishedCallback>
 8002634:	e785      	b.n	8002542 <HAL_TIM_IRQHandler+0x52>
 8002636:	f7ff ff57 	bl	80024e8 <HAL_TIM_OC_DelayElapsedCallback>
 800263a:	4620      	mov	r0, r4
 800263c:	f7ff ff56 	bl	80024ec <HAL_TIM_PWM_PulseFinishedCallback>
 8002640:	e793      	b.n	800256a <HAL_TIM_IRQHandler+0x7a>
 8002642:	f7ff ff51 	bl	80024e8 <HAL_TIM_OC_DelayElapsedCallback>
 8002646:	4620      	mov	r0, r4
 8002648:	f7ff ff50 	bl	80024ec <HAL_TIM_PWM_PulseFinishedCallback>
 800264c:	e7a2      	b.n	8002594 <HAL_TIM_IRQHandler+0xa4>
 800264e:	bd10      	pop	{r4, pc}

08002650 <TIM_Base_SetConfig>:
 8002650:	4a30      	ldr	r2, [pc, #192]	; (8002714 <TIM_Base_SetConfig+0xc4>)
 8002652:	6803      	ldr	r3, [r0, #0]
 8002654:	4290      	cmp	r0, r2
 8002656:	d012      	beq.n	800267e <TIM_Base_SetConfig+0x2e>
 8002658:	f1b0 4f80 	cmp.w	r0, #1073741824	; 0x40000000
 800265c:	d00f      	beq.n	800267e <TIM_Base_SetConfig+0x2e>
 800265e:	f5a2 427c 	sub.w	r2, r2, #64512	; 0xfc00
 8002662:	4290      	cmp	r0, r2
 8002664:	d00b      	beq.n	800267e <TIM_Base_SetConfig+0x2e>
 8002666:	f502 6280 	add.w	r2, r2, #1024	; 0x400
 800266a:	4290      	cmp	r0, r2
 800266c:	d007      	beq.n	800267e <TIM_Base_SetConfig+0x2e>
 800266e:	f502 6280 	add.w	r2, r2, #1024	; 0x400
 8002672:	4290      	cmp	r0, r2
 8002674:	d003      	beq.n	800267e <TIM_Base_SetConfig+0x2e>
 8002676:	f502 4278 	add.w	r2, r2, #63488	; 0xf800
 800267a:	4290      	cmp	r0, r2
 800267c:	d11d      	bne.n	80026ba <TIM_Base_SetConfig+0x6a>
 800267e:	684a      	ldr	r2, [r1, #4]
 8002680:	f023 0370 	bic.w	r3, r3, #112	; 0x70
 8002684:	4313      	orrs	r3, r2
 8002686:	4a23      	ldr	r2, [pc, #140]	; (8002714 <TIM_Base_SetConfig+0xc4>)
 8002688:	4290      	cmp	r0, r2
 800268a:	d104      	bne.n	8002696 <TIM_Base_SetConfig+0x46>
 800268c:	f423 7340 	bic.w	r3, r3, #768	; 0x300
 8002690:	68ca      	ldr	r2, [r1, #12]
 8002692:	4313      	orrs	r3, r2
 8002694:	e028      	b.n	80026e8 <TIM_Base_SetConfig+0x98>
 8002696:	f1b0 4f80 	cmp.w	r0, #1073741824	; 0x40000000
 800269a:	d0f7      	beq.n	800268c <TIM_Base_SetConfig+0x3c>
 800269c:	4a1e      	ldr	r2, [pc, #120]	; (8002718 <TIM_Base_SetConfig+0xc8>)
 800269e:	4290      	cmp	r0, r2
 80026a0:	d0f4      	beq.n	800268c <TIM_Base_SetConfig+0x3c>
 80026a2:	f502 6280 	add.w	r2, r2, #1024	; 0x400
 80026a6:	4290      	cmp	r0, r2
 80026a8:	d0f0      	beq.n	800268c <TIM_Base_SetConfig+0x3c>
 80026aa:	f502 6280 	add.w	r2, r2, #1024	; 0x400
 80026ae:	4290      	cmp	r0, r2
 80026b0:	d0ec      	beq.n	800268c <TIM_Base_SetConfig+0x3c>
 80026b2:	f502 4278 	add.w	r2, r2, #63488	; 0xf800
 80026b6:	4290      	cmp	r0, r2
 80026b8:	d0e8      	beq.n	800268c <TIM_Base_SetConfig+0x3c>
 80026ba:	4a18      	ldr	r2, [pc, #96]	; (800271c <TIM_Base_SetConfig+0xcc>)
 80026bc:	4290      	cmp	r0, r2
 80026be:	d0e5      	beq.n	800268c <TIM_Base_SetConfig+0x3c>
 80026c0:	f502 6280 	add.w	r2, r2, #1024	; 0x400
 80026c4:	4290      	cmp	r0, r2
 80026c6:	d0e1      	beq.n	800268c <TIM_Base_SetConfig+0x3c>
 80026c8:	f502 6280 	add.w	r2, r2, #1024	; 0x400
 80026cc:	4290      	cmp	r0, r2
 80026ce:	d0dd      	beq.n	800268c <TIM_Base_SetConfig+0x3c>
 80026d0:	f5a2 3298 	sub.w	r2, r2, #77824	; 0x13000
 80026d4:	4290      	cmp	r0, r2
 80026d6:	d0d9      	beq.n	800268c <TIM_Base_SetConfig+0x3c>
 80026d8:	f502 6280 	add.w	r2, r2, #1024	; 0x400
 80026dc:	4290      	cmp	r0, r2
 80026de:	d0d5      	beq.n	800268c <TIM_Base_SetConfig+0x3c>
 80026e0:	f502 6280 	add.w	r2, r2, #1024	; 0x400
 80026e4:	4290      	cmp	r0, r2
 80026e6:	d0d1      	beq.n	800268c <TIM_Base_SetConfig+0x3c>
 80026e8:	694a      	ldr	r2, [r1, #20]
 80026ea:	f023 0380 	bic.w	r3, r3, #128	; 0x80
 80026ee:	4313      	orrs	r3, r2
 80026f0:	6003      	str	r3, [r0, #0]
 80026f2:	688b      	ldr	r3, [r1, #8]
 80026f4:	62c3      	str	r3, [r0, #44]	; 0x2c
 80026f6:	680b      	ldr	r3, [r1, #0]
 80026f8:	6283      	str	r3, [r0, #40]	; 0x28
 80026fa:	4b06      	ldr	r3, [pc, #24]	; (8002714 <TIM_Base_SetConfig+0xc4>)
 80026fc:	4298      	cmp	r0, r3
 80026fe:	d006      	beq.n	800270e <TIM_Base_SetConfig+0xbe>
 8002700:	f503 6380 	add.w	r3, r3, #1024	; 0x400
 8002704:	4298      	cmp	r0, r3
 8002706:	d002      	beq.n	800270e <TIM_Base_SetConfig+0xbe>
 8002708:	2301      	movs	r3, #1
 800270a:	6143      	str	r3, [r0, #20]
 800270c:	4770      	bx	lr
 800270e:	690b      	ldr	r3, [r1, #16]
 8002710:	6303      	str	r3, [r0, #48]	; 0x30
 8002712:	e7f9      	b.n	8002708 <TIM_Base_SetConfig+0xb8>
 8002714:	40010000 	.word	0x40010000
 8002718:	40000400 	.word	0x40000400
 800271c:	40014000 	.word	0x40014000

08002720 <HAL_TIM_Base_Init>:
 8002720:	b510      	push	{r4, lr}
 8002722:	4604      	mov	r4, r0
 8002724:	b1a0      	cbz	r0, 8002750 <HAL_TIM_Base_Init+0x30>
 8002726:	f890 303d 	ldrb.w	r3, [r0, #61]	; 0x3d
 800272a:	f003 02ff 	and.w	r2, r3, #255	; 0xff
 800272e:	b91b      	cbnz	r3, 8002738 <HAL_TIM_Base_Init+0x18>
 8002730:	f880 203c 	strb.w	r2, [r0, #60]	; 0x3c
 8002734:	f7ff fecc 	bl	80024d0 <HAL_TIM_Base_MspInit>
 8002738:	2302      	movs	r3, #2
 800273a:	6820      	ldr	r0, [r4, #0]
 800273c:	1d21      	adds	r1, r4, #4
 800273e:	f884 303d 	strb.w	r3, [r4, #61]	; 0x3d
 8002742:	f7ff ff85 	bl	8002650 <TIM_Base_SetConfig>
 8002746:	2301      	movs	r3, #1
 8002748:	2000      	movs	r0, #0
 800274a:	f884 303d 	strb.w	r3, [r4, #61]	; 0x3d
 800274e:	bd10      	pop	{r4, pc}
 8002750:	2001      	movs	r0, #1
 8002752:	bd10      	pop	{r4, pc}

08002754 <HAL_TIMEx_CommutationCallback>:
 8002754:	4770      	bx	lr

08002756 <HAL_TIMEx_BreakCallback>:
 8002756:	4770      	bx	lr

08002758 <UART_WaitOnFlagUntilTimeout>:
 8002758:	e92d 41f0 	stmdb	sp!, {r4, r5, r6, r7, r8, lr}
 800275c:	9d06      	ldr	r5, [sp, #24]
 800275e:	4604      	mov	r4, r0
 8002760:	460f      	mov	r7, r1
 8002762:	4616      	mov	r6, r2
 8002764:	4698      	mov	r8, r3
 8002766:	6821      	ldr	r1, [r4, #0]
 8002768:	69ca      	ldr	r2, [r1, #28]
 800276a:	ea37 0302 	bics.w	r3, r7, r2
 800276e:	bf0c      	ite	eq
 8002770:	2201      	moveq	r2, #1
 8002772:	2200      	movne	r2, #0
 8002774:	42b2      	cmp	r2, r6
 8002776:	d002      	beq.n	800277e <UART_WaitOnFlagUntilTimeout+0x26>
 8002778:	2000      	movs	r0, #0
 800277a:	e8bd 81f0 	ldmia.w	sp!, {r4, r5, r6, r7, r8, pc}
 800277e:	1c6b      	adds	r3, r5, #1
 8002780:	d0f2      	beq.n	8002768 <UART_WaitOnFlagUntilTimeout+0x10>
 8002782:	b99d      	cbnz	r5, 80027ac <UART_WaitOnFlagUntilTimeout+0x54>
 8002784:	6823      	ldr	r3, [r4, #0]
 8002786:	2003      	movs	r0, #3
 8002788:	681a      	ldr	r2, [r3, #0]
 800278a:	f422 72d0 	bic.w	r2, r2, #416	; 0x1a0
 800278e:	601a      	str	r2, [r3, #0]
 8002790:	689a      	ldr	r2, [r3, #8]
 8002792:	f022 0201 	bic.w	r2, r2, #1
 8002796:	609a      	str	r2, [r3, #8]
 8002798:	2320      	movs	r3, #32
 800279a:	f884 3069 	strb.w	r3, [r4, #105]	; 0x69
 800279e:	f884 306a 	strb.w	r3, [r4, #106]	; 0x6a
 80027a2:	2300      	movs	r3, #0
 80027a4:	f884 3068 	strb.w	r3, [r4, #104]	; 0x68
 80027a8:	e8bd 81f0 	ldmia.w	sp!, {r4, r5, r6, r7, r8, pc}
 80027ac:	f7fd ff20 	bl	80005f0 <HAL_GetTick>
 80027b0:	eba0 0008 	sub.w	r0, r0, r8
 80027b4:	4285      	cmp	r5, r0
 80027b6:	d8d6      	bhi.n	8002766 <UART_WaitOnFlagUntilTimeout+0xe>
 80027b8:	e7e4      	b.n	8002784 <UART_WaitOnFlagUntilTimeout+0x2c>
	...

080027bc <UART_SetConfig>:
 80027bc:	b538      	push	{r3, r4, r5, lr}
 80027be:	4604      	mov	r4, r0
 80027c0:	6805      	ldr	r5, [r0, #0]
 80027c2:	69c3      	ldr	r3, [r0, #28]
 80027c4:	6921      	ldr	r1, [r4, #16]
 80027c6:	68a2      	ldr	r2, [r4, #8]
 80027c8:	6828      	ldr	r0, [r5, #0]
 80027ca:	430a      	orrs	r2, r1
 80027cc:	6961      	ldr	r1, [r4, #20]
 80027ce:	430a      	orrs	r2, r1
 80027d0:	4993      	ldr	r1, [pc, #588]	; (8002a20 <UART_SetConfig+0x264>)
 80027d2:	431a      	orrs	r2, r3
 80027d4:	4001      	ands	r1, r0
 80027d6:	6a20      	ldr	r0, [r4, #32]
 80027d8:	430a      	orrs	r2, r1
 80027da:	68e1      	ldr	r1, [r4, #12]
 80027dc:	602a      	str	r2, [r5, #0]
 80027de:	686a      	ldr	r2, [r5, #4]
 80027e0:	f422 5240 	bic.w	r2, r2, #12288	; 0x3000
 80027e4:	430a      	orrs	r2, r1
 80027e6:	606a      	str	r2, [r5, #4]
 80027e8:	69a2      	ldr	r2, [r4, #24]
 80027ea:	68a9      	ldr	r1, [r5, #8]
 80027ec:	4302      	orrs	r2, r0
 80027ee:	f421 6130 	bic.w	r1, r1, #2816	; 0xb00
 80027f2:	430a      	orrs	r2, r1
 80027f4:	60aa      	str	r2, [r5, #8]
 80027f6:	4a8b      	ldr	r2, [pc, #556]	; (8002a24 <UART_SetConfig+0x268>)
 80027f8:	4295      	cmp	r5, r2
 80027fa:	d119      	bne.n	8002830 <UART_SetConfig+0x74>
 80027fc:	f502 3294 	add.w	r2, r2, #75776	; 0x12800
 8002800:	4989      	ldr	r1, [pc, #548]	; (8002a28 <UART_SetConfig+0x26c>)
 8002802:	f8d2 2090 	ldr.w	r2, [r2, #144]	; 0x90
 8002806:	f002 0203 	and.w	r2, r2, #3
 800280a:	f5b3 4f00 	cmp.w	r3, #32768	; 0x8000
 800280e:	5c8a      	ldrb	r2, [r1, r2]
 8002810:	f040 80b3 	bne.w	800297a <UART_SetConfig+0x1be>
 8002814:	2a08      	cmp	r2, #8
 8002816:	f200 80ad 	bhi.w	8002974 <UART_SetConfig+0x1b8>
 800281a:	e8df f012 	tbh	[pc, r2, lsl #1]
 800281e:	0026      	.short	0x0026
 8002820:	00e9007b 	.word	0x00e9007b
 8002824:	00f500ab 	.word	0x00f500ab
 8002828:	00ab00ab 	.word	0x00ab00ab
 800282c:	00fb00ab 	.word	0x00fb00ab
 8002830:	4a7e      	ldr	r2, [pc, #504]	; (8002a2c <UART_SetConfig+0x270>)
 8002832:	4295      	cmp	r5, r2
 8002834:	d107      	bne.n	8002846 <UART_SetConfig+0x8a>
 8002836:	f502 32fa 	add.w	r2, r2, #128000	; 0x1f400
 800283a:	497d      	ldr	r1, [pc, #500]	; (8002a30 <UART_SetConfig+0x274>)
 800283c:	f8d2 2090 	ldr.w	r2, [r2, #144]	; 0x90
 8002840:	f002 020c 	and.w	r2, r2, #12
 8002844:	e7e1      	b.n	800280a <UART_SetConfig+0x4e>
 8002846:	4a7b      	ldr	r2, [pc, #492]	; (8002a34 <UART_SetConfig+0x278>)
 8002848:	4295      	cmp	r5, r2
 800284a:	d12b      	bne.n	80028a4 <UART_SetConfig+0xe8>
 800284c:	f502 32f8 	add.w	r2, r2, #126976	; 0x1f000
 8002850:	f8d2 2090 	ldr.w	r2, [r2, #144]	; 0x90
 8002854:	f002 0230 	and.w	r2, r2, #48	; 0x30
 8002858:	2a10      	cmp	r2, #16
 800285a:	f000 80d2 	beq.w	8002a02 <UART_SetConfig+0x246>
 800285e:	d816      	bhi.n	800288e <UART_SetConfig+0xd2>
 8002860:	b9da      	cbnz	r2, 800289a <UART_SetConfig+0xde>
 8002862:	f5b3 4f00 	cmp.w	r3, #32768	; 0x8000
 8002866:	f040 809f 	bne.w	80029a8 <UART_SetConfig+0x1ec>
 800286a:	f7ff fb69 	bl	8001f40 <HAL_RCC_GetPCLK1Freq>
 800286e:	6861      	ldr	r1, [r4, #4]
 8002870:	084a      	lsrs	r2, r1, #1
 8002872:	eb02 0340 	add.w	r3, r2, r0, lsl #1
 8002876:	fbb3 f3f1 	udiv	r3, r3, r1
 800287a:	b29b      	uxth	r3, r3
 800287c:	2000      	movs	r0, #0
 800287e:	f023 020f 	bic.w	r2, r3, #15
 8002882:	f3c3 0342 	ubfx	r3, r3, #1, #3
 8002886:	6821      	ldr	r1, [r4, #0]
 8002888:	4313      	orrs	r3, r2
 800288a:	60cb      	str	r3, [r1, #12]
 800288c:	bd38      	pop	{r3, r4, r5, pc}
 800288e:	2a20      	cmp	r2, #32
 8002890:	f000 80ab 	beq.w	80029ea <UART_SetConfig+0x22e>
 8002894:	2a30      	cmp	r2, #48	; 0x30
 8002896:	f000 80ba 	beq.w	8002a0e <UART_SetConfig+0x252>
 800289a:	f5b3 4f00 	cmp.w	r3, #32768	; 0x8000
 800289e:	d069      	beq.n	8002974 <UART_SetConfig+0x1b8>
 80028a0:	2001      	movs	r0, #1
 80028a2:	bd38      	pop	{r3, r4, r5, pc}
 80028a4:	4a64      	ldr	r2, [pc, #400]	; (8002a38 <UART_SetConfig+0x27c>)
 80028a6:	4295      	cmp	r5, r2
 80028a8:	d10e      	bne.n	80028c8 <UART_SetConfig+0x10c>
 80028aa:	f502 32f6 	add.w	r2, r2, #125952	; 0x1ec00
 80028ae:	f8d2 2090 	ldr.w	r2, [r2, #144]	; 0x90
 80028b2:	f002 02c0 	and.w	r2, r2, #192	; 0xc0
 80028b6:	2a40      	cmp	r2, #64	; 0x40
 80028b8:	f000 80a3 	beq.w	8002a02 <UART_SetConfig+0x246>
 80028bc:	d9d0      	bls.n	8002860 <UART_SetConfig+0xa4>
 80028be:	2a80      	cmp	r2, #128	; 0x80
 80028c0:	f000 8093 	beq.w	80029ea <UART_SetConfig+0x22e>
 80028c4:	2ac0      	cmp	r2, #192	; 0xc0
 80028c6:	e7e6      	b.n	8002896 <UART_SetConfig+0xda>
 80028c8:	4a5c      	ldr	r2, [pc, #368]	; (8002a3c <UART_SetConfig+0x280>)
 80028ca:	4295      	cmp	r5, r2
 80028cc:	d110      	bne.n	80028f0 <UART_SetConfig+0x134>
 80028ce:	f502 32f4 	add.w	r2, r2, #124928	; 0x1e800
 80028d2:	f8d2 2090 	ldr.w	r2, [r2, #144]	; 0x90
 80028d6:	f402 7240 	and.w	r2, r2, #768	; 0x300
 80028da:	f5b2 7f80 	cmp.w	r2, #256	; 0x100
 80028de:	f000 8090 	beq.w	8002a02 <UART_SetConfig+0x246>
 80028e2:	d9bd      	bls.n	8002860 <UART_SetConfig+0xa4>
 80028e4:	f5b2 7f00 	cmp.w	r2, #512	; 0x200
 80028e8:	d07f      	beq.n	80029ea <UART_SetConfig+0x22e>
 80028ea:	f5b2 7f40 	cmp.w	r2, #768	; 0x300
 80028ee:	e7d2      	b.n	8002896 <UART_SetConfig+0xda>
 80028f0:	4a53      	ldr	r2, [pc, #332]	; (8002a40 <UART_SetConfig+0x284>)
 80028f2:	4295      	cmp	r5, r2
 80028f4:	d117      	bne.n	8002926 <UART_SetConfig+0x16a>
 80028f6:	f502 3292 	add.w	r2, r2, #74752	; 0x12400
 80028fa:	f8d2 2090 	ldr.w	r2, [r2, #144]	; 0x90
 80028fe:	f402 6240 	and.w	r2, r2, #3072	; 0xc00
 8002902:	f5b2 6f80 	cmp.w	r2, #1024	; 0x400
 8002906:	d07c      	beq.n	8002a02 <UART_SetConfig+0x246>
 8002908:	d807      	bhi.n	800291a <UART_SetConfig+0x15e>
 800290a:	2a00      	cmp	r2, #0
 800290c:	d1c5      	bne.n	800289a <UART_SetConfig+0xde>
 800290e:	f5b3 4f00 	cmp.w	r3, #32768	; 0x8000
 8002912:	d154      	bne.n	80029be <UART_SetConfig+0x202>
 8002914:	f7ff fb24 	bl	8001f60 <HAL_RCC_GetPCLK2Freq>
 8002918:	e7a9      	b.n	800286e <UART_SetConfig+0xb2>
 800291a:	f5b2 6f00 	cmp.w	r2, #2048	; 0x800
 800291e:	d064      	beq.n	80029ea <UART_SetConfig+0x22e>
 8002920:	f5b2 6f40 	cmp.w	r2, #3072	; 0xc00
 8002924:	e7b7      	b.n	8002896 <UART_SetConfig+0xda>
 8002926:	4a47      	ldr	r2, [pc, #284]	; (8002a44 <UART_SetConfig+0x288>)
 8002928:	4295      	cmp	r5, r2
 800292a:	d10f      	bne.n	800294c <UART_SetConfig+0x190>
 800292c:	f502 32e0 	add.w	r2, r2, #114688	; 0x1c000
 8002930:	f8d2 2090 	ldr.w	r2, [r2, #144]	; 0x90
 8002934:	f402 5240 	and.w	r2, r2, #12288	; 0x3000
 8002938:	f5b2 5f80 	cmp.w	r2, #4096	; 0x1000
 800293c:	d061      	beq.n	8002a02 <UART_SetConfig+0x246>
 800293e:	d98f      	bls.n	8002860 <UART_SetConfig+0xa4>
 8002940:	f5b2 5f00 	cmp.w	r2, #8192	; 0x2000
 8002944:	d051      	beq.n	80029ea <UART_SetConfig+0x22e>
 8002946:	f5b2 5f40 	cmp.w	r2, #12288	; 0x3000
 800294a:	e7a4      	b.n	8002896 <UART_SetConfig+0xda>
 800294c:	4a3e      	ldr	r2, [pc, #248]	; (8002a48 <UART_SetConfig+0x28c>)
 800294e:	4295      	cmp	r5, r2
 8002950:	d1a3      	bne.n	800289a <UART_SetConfig+0xde>
 8002952:	f502 32de 	add.w	r2, r2, #113664	; 0x1bc00
 8002956:	f8d2 2090 	ldr.w	r2, [r2, #144]	; 0x90
 800295a:	f402 4240 	and.w	r2, r2, #49152	; 0xc000
 800295e:	f5b2 4f80 	cmp.w	r2, #16384	; 0x4000
 8002962:	d04e      	beq.n	8002a02 <UART_SetConfig+0x246>
 8002964:	f67f af7c 	bls.w	8002860 <UART_SetConfig+0xa4>
 8002968:	f5b2 4f00 	cmp.w	r2, #32768	; 0x8000
 800296c:	d03d      	beq.n	80029ea <UART_SetConfig+0x22e>
 800296e:	f5b2 4f40 	cmp.w	r2, #49152	; 0xc000
 8002972:	e790      	b.n	8002896 <UART_SetConfig+0xda>
 8002974:	2001      	movs	r0, #1
 8002976:	2300      	movs	r3, #0
 8002978:	e781      	b.n	800287e <UART_SetConfig+0xc2>
 800297a:	2a08      	cmp	r2, #8
 800297c:	d890      	bhi.n	80028a0 <UART_SetConfig+0xe4>
 800297e:	a301      	add	r3, pc, #4	; (adr r3, 8002984 <UART_SetConfig+0x1c8>)
 8002980:	f853 f022 	ldr.w	pc, [r3, r2, lsl #2]
 8002984:	080029a9 	.word	0x080029a9
 8002988:	080029bf 	.word	0x080029bf
 800298c:	080029c5 	.word	0x080029c5
 8002990:	080028a1 	.word	0x080028a1
 8002994:	080029db 	.word	0x080029db
 8002998:	080028a1 	.word	0x080028a1
 800299c:	080028a1 	.word	0x080028a1
 80029a0:	080028a1 	.word	0x080028a1
 80029a4:	080029e1 	.word	0x080029e1
 80029a8:	f7ff faca 	bl	8001f40 <HAL_RCC_GetPCLK1Freq>
 80029ac:	6863      	ldr	r3, [r4, #4]
 80029ae:	eb00 0053 	add.w	r0, r0, r3, lsr #1
 80029b2:	fbb0 f0f3 	udiv	r0, r0, r3
 80029b6:	b280      	uxth	r0, r0
 80029b8:	60e8      	str	r0, [r5, #12]
 80029ba:	2000      	movs	r0, #0
 80029bc:	bd38      	pop	{r3, r4, r5, pc}
 80029be:	f7ff facf 	bl	8001f60 <HAL_RCC_GetPCLK2Freq>
 80029c2:	e7f3      	b.n	80029ac <UART_SetConfig+0x1f0>
 80029c4:	6862      	ldr	r2, [r4, #4]
 80029c6:	0853      	lsrs	r3, r2, #1
 80029c8:	f503 0374 	add.w	r3, r3, #15990784	; 0xf40000
 80029cc:	f503 5310 	add.w	r3, r3, #9216	; 0x2400
 80029d0:	fbb3 f3f2 	udiv	r3, r3, r2
 80029d4:	b29b      	uxth	r3, r3
 80029d6:	60eb      	str	r3, [r5, #12]
 80029d8:	e7ef      	b.n	80029ba <UART_SetConfig+0x1fe>
 80029da:	f7ff f9df 	bl	8001d9c <HAL_RCC_GetSysClockFreq>
 80029de:	e7e5      	b.n	80029ac <UART_SetConfig+0x1f0>
 80029e0:	6862      	ldr	r2, [r4, #4]
 80029e2:	0853      	lsrs	r3, r2, #1
 80029e4:	f503 4300 	add.w	r3, r3, #32768	; 0x8000
 80029e8:	e7f2      	b.n	80029d0 <UART_SetConfig+0x214>
 80029ea:	f5b3 4f00 	cmp.w	r3, #32768	; 0x8000
 80029ee:	d1e9      	bne.n	80029c4 <UART_SetConfig+0x208>
 80029f0:	6860      	ldr	r0, [r4, #4]
 80029f2:	0843      	lsrs	r3, r0, #1
 80029f4:	f103 73f4 	add.w	r3, r3, #31981568	; 0x1e80000
 80029f8:	f503 4390 	add.w	r3, r3, #18432	; 0x4800
 80029fc:	fbb3 f3f0 	udiv	r3, r3, r0
 8002a00:	e73b      	b.n	800287a <UART_SetConfig+0xbe>
 8002a02:	f5b3 4f00 	cmp.w	r3, #32768	; 0x8000
 8002a06:	d1e8      	bne.n	80029da <UART_SetConfig+0x21e>
 8002a08:	f7ff f9c8 	bl	8001d9c <HAL_RCC_GetSysClockFreq>
 8002a0c:	e72f      	b.n	800286e <UART_SetConfig+0xb2>
 8002a0e:	f5b3 4f00 	cmp.w	r3, #32768	; 0x8000
 8002a12:	d1e5      	bne.n	80029e0 <UART_SetConfig+0x224>
 8002a14:	6860      	ldr	r0, [r4, #4]
 8002a16:	0843      	lsrs	r3, r0, #1
 8002a18:	f503 3380 	add.w	r3, r3, #65536	; 0x10000
 8002a1c:	e7ee      	b.n	80029fc <UART_SetConfig+0x240>
 8002a1e:	bf00      	nop
 8002a20:	efff69f3 	.word	0xefff69f3
 8002a24:	40011000 	.word	0x40011000
 8002a28:	0800c5f8 	.word	0x0800c5f8
 8002a2c:	40004400 	.word	0x40004400
 8002a30:	0800c5fc 	.word	0x0800c5fc
 8002a34:	40004800 	.word	0x40004800
 8002a38:	40004c00 	.word	0x40004c00
 8002a3c:	40005000 	.word	0x40005000
 8002a40:	40011400 	.word	0x40011400
 8002a44:	40007800 	.word	0x40007800
 8002a48:	40007c00 	.word	0x40007c00

08002a4c <UART_AdvFeatureConfig>:
 8002a4c:	6a43      	ldr	r3, [r0, #36]	; 0x24
 8002a4e:	07da      	lsls	r2, r3, #31
 8002a50:	b510      	push	{r4, lr}
 8002a52:	d506      	bpl.n	8002a62 <UART_AdvFeatureConfig+0x16>
 8002a54:	6801      	ldr	r1, [r0, #0]
 8002a56:	6a84      	ldr	r4, [r0, #40]	; 0x28
 8002a58:	684a      	ldr	r2, [r1, #4]
 8002a5a:	f422 3200 	bic.w	r2, r2, #131072	; 0x20000
 8002a5e:	4322      	orrs	r2, r4
 8002a60:	604a      	str	r2, [r1, #4]
 8002a62:	079c      	lsls	r4, r3, #30
 8002a64:	d506      	bpl.n	8002a74 <UART_AdvFeatureConfig+0x28>
 8002a66:	6801      	ldr	r1, [r0, #0]
 8002a68:	6ac4      	ldr	r4, [r0, #44]	; 0x2c
 8002a6a:	684a      	ldr	r2, [r1, #4]
 8002a6c:	f422 3280 	bic.w	r2, r2, #65536	; 0x10000
 8002a70:	4322      	orrs	r2, r4
 8002a72:	604a      	str	r2, [r1, #4]
 8002a74:	0759      	lsls	r1, r3, #29
 8002a76:	d506      	bpl.n	8002a86 <UART_AdvFeatureConfig+0x3a>
 8002a78:	6801      	ldr	r1, [r0, #0]
 8002a7a:	6b04      	ldr	r4, [r0, #48]	; 0x30
 8002a7c:	684a      	ldr	r2, [r1, #4]
 8002a7e:	f422 2280 	bic.w	r2, r2, #262144	; 0x40000
 8002a82:	4322      	orrs	r2, r4
 8002a84:	604a      	str	r2, [r1, #4]
 8002a86:	071a      	lsls	r2, r3, #28
 8002a88:	d506      	bpl.n	8002a98 <UART_AdvFeatureConfig+0x4c>
 8002a8a:	6801      	ldr	r1, [r0, #0]
 8002a8c:	6b44      	ldr	r4, [r0, #52]	; 0x34
 8002a8e:	684a      	ldr	r2, [r1, #4]
 8002a90:	f422 4200 	bic.w	r2, r2, #32768	; 0x8000
 8002a94:	4322      	orrs	r2, r4
 8002a96:	604a      	str	r2, [r1, #4]
 8002a98:	06dc      	lsls	r4, r3, #27
 8002a9a:	d506      	bpl.n	8002aaa <UART_AdvFeatureConfig+0x5e>
 8002a9c:	6801      	ldr	r1, [r0, #0]
 8002a9e:	6b84      	ldr	r4, [r0, #56]	; 0x38
 8002aa0:	688a      	ldr	r2, [r1, #8]
 8002aa2:	f422 5280 	bic.w	r2, r2, #4096	; 0x1000
 8002aa6:	4322      	orrs	r2, r4
 8002aa8:	608a      	str	r2, [r1, #8]
 8002aaa:	0699      	lsls	r1, r3, #26
 8002aac:	d506      	bpl.n	8002abc <UART_AdvFeatureConfig+0x70>
 8002aae:	6801      	ldr	r1, [r0, #0]
 8002ab0:	6bc4      	ldr	r4, [r0, #60]	; 0x3c
 8002ab2:	688a      	ldr	r2, [r1, #8]
 8002ab4:	f422 5200 	bic.w	r2, r2, #8192	; 0x2000
 8002ab8:	4322      	orrs	r2, r4
 8002aba:	608a      	str	r2, [r1, #8]
 8002abc:	065a      	lsls	r2, r3, #25
 8002abe:	d510      	bpl.n	8002ae2 <UART_AdvFeatureConfig+0x96>
 8002ac0:	6801      	ldr	r1, [r0, #0]
 8002ac2:	6c04      	ldr	r4, [r0, #64]	; 0x40
 8002ac4:	684a      	ldr	r2, [r1, #4]
 8002ac6:	f5b4 1f80 	cmp.w	r4, #1048576	; 0x100000
 8002aca:	f422 1280 	bic.w	r2, r2, #1048576	; 0x100000
 8002ace:	ea42 0204 	orr.w	r2, r2, r4
 8002ad2:	604a      	str	r2, [r1, #4]
 8002ad4:	d105      	bne.n	8002ae2 <UART_AdvFeatureConfig+0x96>
 8002ad6:	684a      	ldr	r2, [r1, #4]
 8002ad8:	6c44      	ldr	r4, [r0, #68]	; 0x44
 8002ada:	f422 02c0 	bic.w	r2, r2, #6291456	; 0x600000
 8002ade:	4322      	orrs	r2, r4
 8002ae0:	604a      	str	r2, [r1, #4]
 8002ae2:	061b      	lsls	r3, r3, #24
 8002ae4:	d506      	bpl.n	8002af4 <UART_AdvFeatureConfig+0xa8>
 8002ae6:	6802      	ldr	r2, [r0, #0]
 8002ae8:	6c81      	ldr	r1, [r0, #72]	; 0x48
 8002aea:	6853      	ldr	r3, [r2, #4]
 8002aec:	f423 2300 	bic.w	r3, r3, #524288	; 0x80000
 8002af0:	430b      	orrs	r3, r1
 8002af2:	6053      	str	r3, [r2, #4]
 8002af4:	bd10      	pop	{r4, pc}

08002af6 <UART_CheckIdleState>:
 8002af6:	b537      	push	{r0, r1, r2, r4, r5, lr}
 8002af8:	2500      	movs	r5, #0
 8002afa:	4604      	mov	r4, r0
 8002afc:	66c5      	str	r5, [r0, #108]	; 0x6c
 8002afe:	f7fd fd77 	bl	80005f0 <HAL_GetTick>
 8002b02:	6822      	ldr	r2, [r4, #0]
 8002b04:	4603      	mov	r3, r0
 8002b06:	6812      	ldr	r2, [r2, #0]
 8002b08:	0712      	lsls	r2, r2, #28
 8002b0a:	d409      	bmi.n	8002b20 <UART_CheckIdleState+0x2a>
 8002b0c:	2320      	movs	r3, #32
 8002b0e:	2000      	movs	r0, #0
 8002b10:	f884 3069 	strb.w	r3, [r4, #105]	; 0x69
 8002b14:	f884 0068 	strb.w	r0, [r4, #104]	; 0x68
 8002b18:	f884 306a 	strb.w	r3, [r4, #106]	; 0x6a
 8002b1c:	b003      	add	sp, #12
 8002b1e:	bd30      	pop	{r4, r5, pc}
 8002b20:	f06f 427e 	mvn.w	r2, #4261412864	; 0xfe000000
 8002b24:	f44f 1100 	mov.w	r1, #2097152	; 0x200000
 8002b28:	4620      	mov	r0, r4
 8002b2a:	9200      	str	r2, [sp, #0]
 8002b2c:	462a      	mov	r2, r5
 8002b2e:	f7ff fe13 	bl	8002758 <UART_WaitOnFlagUntilTimeout>
 8002b32:	2800      	cmp	r0, #0
 8002b34:	d0ea      	beq.n	8002b0c <UART_CheckIdleState+0x16>
 8002b36:	2003      	movs	r0, #3
 8002b38:	e7f0      	b.n	8002b1c <UART_CheckIdleState+0x26>

08002b3a <HAL_UART_Init>:
 8002b3a:	b510      	push	{r4, lr}
 8002b3c:	4604      	mov	r4, r0
 8002b3e:	b360      	cbz	r0, 8002b9a <HAL_UART_Init+0x60>
 8002b40:	f890 3069 	ldrb.w	r3, [r0, #105]	; 0x69
 8002b44:	f003 02ff 	and.w	r2, r3, #255	; 0xff
 8002b48:	b91b      	cbnz	r3, 8002b52 <HAL_UART_Init+0x18>
 8002b4a:	f880 2068 	strb.w	r2, [r0, #104]	; 0x68
 8002b4e:	f008 fa97 	bl	800b080 <HAL_UART_MspInit>
 8002b52:	6822      	ldr	r2, [r4, #0]
 8002b54:	2324      	movs	r3, #36	; 0x24
 8002b56:	4620      	mov	r0, r4
 8002b58:	f884 3069 	strb.w	r3, [r4, #105]	; 0x69
 8002b5c:	6813      	ldr	r3, [r2, #0]
 8002b5e:	f023 0301 	bic.w	r3, r3, #1
 8002b62:	6013      	str	r3, [r2, #0]
 8002b64:	f7ff fe2a 	bl	80027bc <UART_SetConfig>
 8002b68:	2801      	cmp	r0, #1
 8002b6a:	d016      	beq.n	8002b9a <HAL_UART_Init+0x60>
 8002b6c:	6a63      	ldr	r3, [r4, #36]	; 0x24
 8002b6e:	b113      	cbz	r3, 8002b76 <HAL_UART_Init+0x3c>
 8002b70:	4620      	mov	r0, r4
 8002b72:	f7ff ff6b 	bl	8002a4c <UART_AdvFeatureConfig>
 8002b76:	6823      	ldr	r3, [r4, #0]
 8002b78:	4620      	mov	r0, r4
 8002b7a:	685a      	ldr	r2, [r3, #4]
 8002b7c:	f422 4290 	bic.w	r2, r2, #18432	; 0x4800
 8002b80:	605a      	str	r2, [r3, #4]
 8002b82:	689a      	ldr	r2, [r3, #8]
 8002b84:	f022 022a 	bic.w	r2, r2, #42	; 0x2a
 8002b88:	609a      	str	r2, [r3, #8]
 8002b8a:	681a      	ldr	r2, [r3, #0]
 8002b8c:	f042 0201 	orr.w	r2, r2, #1
 8002b90:	e8bd 4010 	ldmia.w	sp!, {r4, lr}
 8002b94:	601a      	str	r2, [r3, #0]
 8002b96:	f7ff bfae 	b.w	8002af6 <UART_CheckIdleState>
 8002b9a:	2001      	movs	r0, #1
 8002b9c:	bd10      	pop	{r4, pc}
	...

08002ba0 <USB_CoreReset>:
 8002ba0:	4b0a      	ldr	r3, [pc, #40]	; (8002bcc <USB_CoreReset+0x2c>)
 8002ba2:	3b01      	subs	r3, #1
 8002ba4:	d101      	bne.n	8002baa <USB_CoreReset+0xa>
 8002ba6:	2003      	movs	r0, #3
 8002ba8:	4770      	bx	lr
 8002baa:	6902      	ldr	r2, [r0, #16]
 8002bac:	2a00      	cmp	r2, #0
 8002bae:	daf8      	bge.n	8002ba2 <USB_CoreReset+0x2>
 8002bb0:	6903      	ldr	r3, [r0, #16]
 8002bb2:	4a06      	ldr	r2, [pc, #24]	; (8002bcc <USB_CoreReset+0x2c>)
 8002bb4:	f043 0301 	orr.w	r3, r3, #1
 8002bb8:	6103      	str	r3, [r0, #16]
 8002bba:	3a01      	subs	r2, #1
 8002bbc:	d0f3      	beq.n	8002ba6 <USB_CoreReset+0x6>
 8002bbe:	6903      	ldr	r3, [r0, #16]
 8002bc0:	f013 0301 	ands.w	r3, r3, #1
 8002bc4:	d1f9      	bne.n	8002bba <USB_CoreReset+0x1a>
 8002bc6:	4618      	mov	r0, r3
 8002bc8:	4770      	bx	lr
 8002bca:	bf00      	nop
 8002bcc:	00030d41 	.word	0x00030d41

08002bd0 <USB_CoreInit>:
 8002bd0:	b084      	sub	sp, #16
 8002bd2:	b538      	push	{r3, r4, r5, lr}
 8002bd4:	ad05      	add	r5, sp, #20
 8002bd6:	4604      	mov	r4, r0
 8002bd8:	e885 000e 	stmia.w	r5, {r1, r2, r3}
 8002bdc:	9b0a      	ldr	r3, [sp, #40]	; 0x28
 8002bde:	2b01      	cmp	r3, #1
 8002be0:	d127      	bne.n	8002c32 <USB_CoreInit+0x62>
 8002be2:	6b83      	ldr	r3, [r0, #56]	; 0x38
 8002be4:	f423 3380 	bic.w	r3, r3, #65536	; 0x10000
 8002be8:	6383      	str	r3, [r0, #56]	; 0x38
 8002bea:	68c3      	ldr	r3, [r0, #12]
 8002bec:	f423 0384 	bic.w	r3, r3, #4325376	; 0x420000
 8002bf0:	f023 0340 	bic.w	r3, r3, #64	; 0x40
 8002bf4:	60c3      	str	r3, [r0, #12]
 8002bf6:	68c3      	ldr	r3, [r0, #12]
 8002bf8:	f423 1340 	bic.w	r3, r3, #3145728	; 0x300000
 8002bfc:	60c3      	str	r3, [r0, #12]
 8002bfe:	9b11      	ldr	r3, [sp, #68]	; 0x44
 8002c00:	2b01      	cmp	r3, #1
 8002c02:	d103      	bne.n	8002c0c <USB_CoreInit+0x3c>
 8002c04:	68c3      	ldr	r3, [r0, #12]
 8002c06:	f443 1380 	orr.w	r3, r3, #1048576	; 0x100000
 8002c0a:	60c3      	str	r3, [r0, #12]
 8002c0c:	4620      	mov	r0, r4
 8002c0e:	f7ff ffc7 	bl	8002ba0 <USB_CoreReset>
 8002c12:	9b08      	ldr	r3, [sp, #32]
 8002c14:	2b01      	cmp	r3, #1
 8002c16:	d107      	bne.n	8002c28 <USB_CoreInit+0x58>
 8002c18:	68a3      	ldr	r3, [r4, #8]
 8002c1a:	f043 0306 	orr.w	r3, r3, #6
 8002c1e:	60a3      	str	r3, [r4, #8]
 8002c20:	68a3      	ldr	r3, [r4, #8]
 8002c22:	f043 0320 	orr.w	r3, r3, #32
 8002c26:	60a3      	str	r3, [r4, #8]
 8002c28:	2000      	movs	r0, #0
 8002c2a:	e8bd 4038 	ldmia.w	sp!, {r3, r4, r5, lr}
 8002c2e:	b004      	add	sp, #16
 8002c30:	4770      	bx	lr
 8002c32:	68c3      	ldr	r3, [r0, #12]
 8002c34:	f043 0340 	orr.w	r3, r3, #64	; 0x40
 8002c38:	60c3      	str	r3, [r0, #12]
 8002c3a:	f7ff ffb1 	bl	8002ba0 <USB_CoreReset>
 8002c3e:	f44f 3380 	mov.w	r3, #65536	; 0x10000
 8002c42:	63a3      	str	r3, [r4, #56]	; 0x38
 8002c44:	e7e5      	b.n	8002c12 <USB_CoreInit+0x42>

08002c46 <USB_EnableGlobalInt>:
 8002c46:	6883      	ldr	r3, [r0, #8]
 8002c48:	f043 0301 	orr.w	r3, r3, #1
 8002c4c:	6083      	str	r3, [r0, #8]
 8002c4e:	2000      	movs	r0, #0
 8002c50:	4770      	bx	lr

08002c52 <USB_DisableGlobalInt>:
 8002c52:	6883      	ldr	r3, [r0, #8]
 8002c54:	f023 0301 	bic.w	r3, r3, #1
 8002c58:	6083      	str	r3, [r0, #8]
 8002c5a:	2000      	movs	r0, #0
 8002c5c:	4770      	bx	lr

08002c5e <USB_SetCurrentMode>:
 8002c5e:	b508      	push	{r3, lr}
 8002c60:	68c3      	ldr	r3, [r0, #12]
 8002c62:	2901      	cmp	r1, #1
 8002c64:	f023 43c0 	bic.w	r3, r3, #1610612736	; 0x60000000
 8002c68:	60c3      	str	r3, [r0, #12]
 8002c6a:	d108      	bne.n	8002c7e <USB_SetCurrentMode+0x20>
 8002c6c:	68c3      	ldr	r3, [r0, #12]
 8002c6e:	f043 5300 	orr.w	r3, r3, #536870912	; 0x20000000
 8002c72:	60c3      	str	r3, [r0, #12]
 8002c74:	2032      	movs	r0, #50	; 0x32
 8002c76:	f7fd fcc1 	bl	80005fc <HAL_Delay>
 8002c7a:	2000      	movs	r0, #0
 8002c7c:	bd08      	pop	{r3, pc}
 8002c7e:	b919      	cbnz	r1, 8002c88 <USB_SetCurrentMode+0x2a>
 8002c80:	68c3      	ldr	r3, [r0, #12]
 8002c82:	f043 4380 	orr.w	r3, r3, #1073741824	; 0x40000000
 8002c86:	e7f4      	b.n	8002c72 <USB_SetCurrentMode+0x14>
 8002c88:	2001      	movs	r0, #1
 8002c8a:	bd08      	pop	{r3, pc}

08002c8c <USB_FlushTxFifo>:
 8002c8c:	0189      	lsls	r1, r1, #6
 8002c8e:	4a07      	ldr	r2, [pc, #28]	; (8002cac <USB_FlushTxFifo+0x20>)
 8002c90:	f041 0120 	orr.w	r1, r1, #32
 8002c94:	6101      	str	r1, [r0, #16]
 8002c96:	3a01      	subs	r2, #1
 8002c98:	d005      	beq.n	8002ca6 <USB_FlushTxFifo+0x1a>
 8002c9a:	6903      	ldr	r3, [r0, #16]
 8002c9c:	f013 0320 	ands.w	r3, r3, #32
 8002ca0:	d1f9      	bne.n	8002c96 <USB_FlushTxFifo+0xa>
 8002ca2:	4618      	mov	r0, r3
 8002ca4:	4770      	bx	lr
 8002ca6:	2003      	movs	r0, #3
 8002ca8:	4770      	bx	lr
 8002caa:	bf00      	nop
 8002cac:	00030d41 	.word	0x00030d41

08002cb0 <USB_FlushRxFifo>:
 8002cb0:	2310      	movs	r3, #16
 8002cb2:	4a06      	ldr	r2, [pc, #24]	; (8002ccc <USB_FlushRxFifo+0x1c>)
 8002cb4:	6103      	str	r3, [r0, #16]
 8002cb6:	3a01      	subs	r2, #1
 8002cb8:	d005      	beq.n	8002cc6 <USB_FlushRxFifo+0x16>
 8002cba:	6903      	ldr	r3, [r0, #16]
 8002cbc:	f013 0310 	ands.w	r3, r3, #16
 8002cc0:	d1f9      	bne.n	8002cb6 <USB_FlushRxFifo+0x6>
 8002cc2:	4618      	mov	r0, r3
 8002cc4:	4770      	bx	lr
 8002cc6:	2003      	movs	r0, #3
 8002cc8:	4770      	bx	lr
 8002cca:	bf00      	nop
 8002ccc:	00030d41 	.word	0x00030d41

08002cd0 <USB_SetDevSpeed>:
 8002cd0:	f8d0 3800 	ldr.w	r3, [r0, #2048]	; 0x800
 8002cd4:	4319      	orrs	r1, r3
 8002cd6:	f8c0 1800 	str.w	r1, [r0, #2048]	; 0x800
 8002cda:	2000      	movs	r0, #0
 8002cdc:	4770      	bx	lr
	...

08002ce0 <USB_DevInit>:
 8002ce0:	b084      	sub	sp, #16
 8002ce2:	e92d 43f8 	stmdb	sp!, {r3, r4, r5, r6, r7, r8, r9, lr}
 8002ce6:	4604      	mov	r4, r0
 8002ce8:	a809      	add	r0, sp, #36	; 0x24
 8002cea:	4688      	mov	r8, r1
 8002cec:	e880 000e 	stmia.w	r0, {r1, r2, r3}
 8002cf0:	2300      	movs	r3, #0
 8002cf2:	9a0b      	ldr	r2, [sp, #44]	; 0x2c
 8002cf4:	9f0c      	ldr	r7, [sp, #48]	; 0x30
 8002cf6:	990e      	ldr	r1, [sp, #56]	; 0x38
 8002cf8:	461d      	mov	r5, r3
 8002cfa:	9e13      	ldr	r6, [sp, #76]	; 0x4c
 8002cfc:	f103 0040 	add.w	r0, r3, #64	; 0x40
 8002d00:	3301      	adds	r3, #1
 8002d02:	eb04 0080 	add.w	r0, r4, r0, lsl #2
 8002d06:	2b0f      	cmp	r3, #15
 8002d08:	6045      	str	r5, [r0, #4]
 8002d0a:	d1f7      	bne.n	8002cfc <USB_DevInit+0x1c>
 8002d0c:	6ba3      	ldr	r3, [r4, #56]	; 0x38
 8002d0e:	f443 1300 	orr.w	r3, r3, #2097152	; 0x200000
 8002d12:	63a3      	str	r3, [r4, #56]	; 0x38
 8002d14:	b95e      	cbnz	r6, 8002d2e <USB_DevInit+0x4e>
 8002d16:	6ba3      	ldr	r3, [r4, #56]	; 0x38
 8002d18:	f423 1300 	bic.w	r3, r3, #2097152	; 0x200000
 8002d1c:	63a3      	str	r3, [r4, #56]	; 0x38
 8002d1e:	6823      	ldr	r3, [r4, #0]
 8002d20:	f043 0340 	orr.w	r3, r3, #64	; 0x40
 8002d24:	6023      	str	r3, [r4, #0]
 8002d26:	6823      	ldr	r3, [r4, #0]
 8002d28:	f043 0380 	orr.w	r3, r3, #128	; 0x80
 8002d2c:	6023      	str	r3, [r4, #0]
 8002d2e:	2300      	movs	r3, #0
 8002d30:	2901      	cmp	r1, #1
 8002d32:	f504 6500 	add.w	r5, r4, #2048	; 0x800
 8002d36:	f8c4 3e00 	str.w	r3, [r4, #3584]	; 0xe00
 8002d3a:	f8d4 3800 	ldr.w	r3, [r4, #2048]	; 0x800
 8002d3e:	f8c4 3800 	str.w	r3, [r4, #2048]	; 0x800
 8002d42:	d158      	bne.n	8002df6 <USB_DevInit+0x116>
 8002d44:	2a00      	cmp	r2, #0
 8002d46:	d154      	bne.n	8002df2 <USB_DevInit+0x112>
 8002d48:	2100      	movs	r1, #0
 8002d4a:	4620      	mov	r0, r4
 8002d4c:	f7ff ffc0 	bl	8002cd0 <USB_SetDevSpeed>
 8002d50:	2110      	movs	r1, #16
 8002d52:	4620      	mov	r0, r4
 8002d54:	f7ff ff9a 	bl	8002c8c <USB_FlushTxFifo>
 8002d58:	4620      	mov	r0, r4
 8002d5a:	f7ff ffa9 	bl	8002cb0 <USB_FlushRxFifo>
 8002d5e:	2300      	movs	r3, #0
 8002d60:	f504 6210 	add.w	r2, r4, #2304	; 0x900
 8002d64:	f04f 4090 	mov.w	r0, #1207959552	; 0x48000000
 8002d68:	4619      	mov	r1, r3
 8002d6a:	f04f 6e00 	mov.w	lr, #134217728	; 0x8000000
 8002d6e:	f64f 3c7f 	movw	ip, #64383	; 0xfb7f
 8002d72:	612b      	str	r3, [r5, #16]
 8002d74:	616b      	str	r3, [r5, #20]
 8002d76:	61eb      	str	r3, [r5, #28]
 8002d78:	4543      	cmp	r3, r8
 8002d7a:	d140      	bne.n	8002dfe <USB_DevInit+0x11e>
 8002d7c:	2100      	movs	r1, #0
 8002d7e:	f504 6230 	add.w	r2, r4, #2816	; 0xb00
 8002d82:	f04f 4e90 	mov.w	lr, #1207959552	; 0x48000000
 8002d86:	f04f 6c00 	mov.w	ip, #134217728	; 0x8000000
 8002d8a:	4608      	mov	r0, r1
 8002d8c:	f64f 387f 	movw	r8, #64383	; 0xfb7f
 8002d90:	428b      	cmp	r3, r1
 8002d92:	d146      	bne.n	8002e22 <USB_DevInit+0x142>
 8002d94:	692b      	ldr	r3, [r5, #16]
 8002d96:	2f01      	cmp	r7, #1
 8002d98:	f423 7380 	bic.w	r3, r3, #256	; 0x100
 8002d9c:	612b      	str	r3, [r5, #16]
 8002d9e:	d107      	bne.n	8002db0 <USB_DevInit+0xd0>
 8002da0:	4b29      	ldr	r3, [pc, #164]	; (8002e48 <USB_DevInit+0x168>)
 8002da2:	632b      	str	r3, [r5, #48]	; 0x30
 8002da4:	6b2b      	ldr	r3, [r5, #48]	; 0x30
 8002da6:	f443 3380 	orr.w	r3, r3, #65536	; 0x10000
 8002daa:	f043 0303 	orr.w	r3, r3, #3
 8002dae:	632b      	str	r3, [r5, #48]	; 0x30
 8002db0:	2300      	movs	r3, #0
 8002db2:	61a3      	str	r3, [r4, #24]
 8002db4:	f06f 4380 	mvn.w	r3, #1073741824	; 0x40000000
 8002db8:	6163      	str	r3, [r4, #20]
 8002dba:	b91f      	cbnz	r7, 8002dc4 <USB_DevInit+0xe4>
 8002dbc:	69a3      	ldr	r3, [r4, #24]
 8002dbe:	f043 0310 	orr.w	r3, r3, #16
 8002dc2:	61a3      	str	r3, [r4, #24]
 8002dc4:	69a2      	ldr	r2, [r4, #24]
 8002dc6:	4b21      	ldr	r3, [pc, #132]	; (8002e4c <USB_DevInit+0x16c>)
 8002dc8:	4313      	orrs	r3, r2
 8002dca:	61a3      	str	r3, [r4, #24]
 8002dcc:	9b0f      	ldr	r3, [sp, #60]	; 0x3c
 8002dce:	b11b      	cbz	r3, 8002dd8 <USB_DevInit+0xf8>
 8002dd0:	69a3      	ldr	r3, [r4, #24]
 8002dd2:	f043 0308 	orr.w	r3, r3, #8
 8002dd6:	61a3      	str	r3, [r4, #24]
 8002dd8:	2e01      	cmp	r6, #1
 8002dda:	d105      	bne.n	8002de8 <USB_DevInit+0x108>
 8002ddc:	69a3      	ldr	r3, [r4, #24]
 8002dde:	f043 4380 	orr.w	r3, r3, #1073741824	; 0x40000000
 8002de2:	f043 0304 	orr.w	r3, r3, #4
 8002de6:	61a3      	str	r3, [r4, #24]
 8002de8:	2000      	movs	r0, #0
 8002dea:	e8bd 43f8 	ldmia.w	sp!, {r3, r4, r5, r6, r7, r8, r9, lr}
 8002dee:	b004      	add	sp, #16
 8002df0:	4770      	bx	lr
 8002df2:	2101      	movs	r1, #1
 8002df4:	e7a9      	b.n	8002d4a <USB_DevInit+0x6a>
 8002df6:	2903      	cmp	r1, #3
 8002df8:	d0a4      	beq.n	8002d44 <USB_DevInit+0x64>
 8002dfa:	2103      	movs	r1, #3
 8002dfc:	e7a5      	b.n	8002d4a <USB_DevInit+0x6a>
 8002dfe:	f8d2 9000 	ldr.w	r9, [r2]
 8002e02:	f1b9 0f00 	cmp.w	r9, #0
 8002e06:	da0a      	bge.n	8002e1e <USB_DevInit+0x13e>
 8002e08:	b93b      	cbnz	r3, 8002e1a <USB_DevInit+0x13a>
 8002e0a:	f8c2 e000 	str.w	lr, [r2]
 8002e0e:	6111      	str	r1, [r2, #16]
 8002e10:	3301      	adds	r3, #1
 8002e12:	f8c2 c008 	str.w	ip, [r2, #8]
 8002e16:	3220      	adds	r2, #32
 8002e18:	e7ae      	b.n	8002d78 <USB_DevInit+0x98>
 8002e1a:	6010      	str	r0, [r2, #0]
 8002e1c:	e7f7      	b.n	8002e0e <USB_DevInit+0x12e>
 8002e1e:	6011      	str	r1, [r2, #0]
 8002e20:	e7f5      	b.n	8002e0e <USB_DevInit+0x12e>
 8002e22:	f8d2 9000 	ldr.w	r9, [r2]
 8002e26:	f1b9 0f00 	cmp.w	r9, #0
 8002e2a:	da0b      	bge.n	8002e44 <USB_DevInit+0x164>
 8002e2c:	b939      	cbnz	r1, 8002e3e <USB_DevInit+0x15e>
 8002e2e:	f8c2 c000 	str.w	ip, [r2]
 8002e32:	6110      	str	r0, [r2, #16]
 8002e34:	3101      	adds	r1, #1
 8002e36:	f8c2 8008 	str.w	r8, [r2, #8]
 8002e3a:	3220      	adds	r2, #32
 8002e3c:	e7a8      	b.n	8002d90 <USB_DevInit+0xb0>
 8002e3e:	f8c2 e000 	str.w	lr, [r2]
 8002e42:	e7f6      	b.n	8002e32 <USB_DevInit+0x152>
 8002e44:	6010      	str	r0, [r2, #0]
 8002e46:	e7f4      	b.n	8002e32 <USB_DevInit+0x152>
 8002e48:	00800100 	.word	0x00800100
 8002e4c:	803c3800 	.word	0x803c3800

08002e50 <USB_GetDevSpeed>:
 8002e50:	f8d0 3808 	ldr.w	r3, [r0, #2056]	; 0x808
 8002e54:	f013 0006 	ands.w	r0, r3, #6
 8002e58:	d007      	beq.n	8002e6a <USB_GetDevSpeed+0x1a>
 8002e5a:	079b      	lsls	r3, r3, #30
 8002e5c:	d404      	bmi.n	8002e68 <USB_GetDevSpeed+0x18>
 8002e5e:	2804      	cmp	r0, #4
 8002e60:	bf14      	ite	ne
 8002e62:	2000      	movne	r0, #0
 8002e64:	2002      	moveq	r0, #2
 8002e66:	4770      	bx	lr
 8002e68:	2003      	movs	r0, #3
 8002e6a:	4770      	bx	lr

08002e6c <USB_ActivateEndpoint>:
 8002e6c:	b570      	push	{r4, r5, r6, lr}
 8002e6e:	784a      	ldrb	r2, [r1, #1]
 8002e70:	f500 6300 	add.w	r3, r0, #2048	; 0x800
 8002e74:	780c      	ldrb	r4, [r1, #0]
 8002e76:	2a01      	cmp	r2, #1
 8002e78:	69de      	ldr	r6, [r3, #28]
 8002e7a:	f004 050f 	and.w	r5, r4, #15
 8002e7e:	d11b      	bne.n	8002eb8 <USB_ActivateEndpoint+0x4c>
 8002e80:	40aa      	lsls	r2, r5
 8002e82:	eb00 1044 	add.w	r0, r0, r4, lsl #5
 8002e86:	4332      	orrs	r2, r6
 8002e88:	61da      	str	r2, [r3, #28]
 8002e8a:	f8d0 3900 	ldr.w	r3, [r0, #2304]	; 0x900
 8002e8e:	041a      	lsls	r2, r3, #16
 8002e90:	d410      	bmi.n	8002eb4 <USB_ActivateEndpoint+0x48>
 8002e92:	688b      	ldr	r3, [r1, #8]
 8002e94:	78c9      	ldrb	r1, [r1, #3]
 8002e96:	f3c3 030a 	ubfx	r3, r3, #0, #11
 8002e9a:	f8d0 2900 	ldr.w	r2, [r0, #2304]	; 0x900
 8002e9e:	f043 5380 	orr.w	r3, r3, #268435456	; 0x10000000
 8002ea2:	f443 4300 	orr.w	r3, r3, #32768	; 0x8000
 8002ea6:	ea43 4381 	orr.w	r3, r3, r1, lsl #18
 8002eaa:	ea43 5384 	orr.w	r3, r3, r4, lsl #22
 8002eae:	4313      	orrs	r3, r2
 8002eb0:	f8c0 3900 	str.w	r3, [r0, #2304]	; 0x900
 8002eb4:	2000      	movs	r0, #0
 8002eb6:	bd70      	pop	{r4, r5, r6, pc}
 8002eb8:	f44f 3280 	mov.w	r2, #65536	; 0x10000
 8002ebc:	eb00 1044 	add.w	r0, r0, r4, lsl #5
 8002ec0:	40aa      	lsls	r2, r5
 8002ec2:	4332      	orrs	r2, r6
 8002ec4:	61da      	str	r2, [r3, #28]
 8002ec6:	f8d0 3b00 	ldr.w	r3, [r0, #2816]	; 0xb00
 8002eca:	041b      	lsls	r3, r3, #16
 8002ecc:	d4f2      	bmi.n	8002eb4 <USB_ActivateEndpoint+0x48>
 8002ece:	688b      	ldr	r3, [r1, #8]
 8002ed0:	78c9      	ldrb	r1, [r1, #3]
 8002ed2:	f3c3 030a 	ubfx	r3, r3, #0, #11
 8002ed6:	f8d0 2b00 	ldr.w	r2, [r0, #2816]	; 0xb00
 8002eda:	f043 5380 	orr.w	r3, r3, #268435456	; 0x10000000
 8002ede:	f443 4300 	orr.w	r3, r3, #32768	; 0x8000
 8002ee2:	ea43 4381 	orr.w	r3, r3, r1, lsl #18
 8002ee6:	4313      	orrs	r3, r2
 8002ee8:	f8c0 3b00 	str.w	r3, [r0, #2816]	; 0xb00
 8002eec:	e7e2      	b.n	8002eb4 <USB_ActivateEndpoint+0x48>
	...

08002ef0 <USB_DeactivateEndpoint>:
 8002ef0:	b530      	push	{r4, r5, lr}
 8002ef2:	784b      	ldrb	r3, [r1, #1]
 8002ef4:	f500 6200 	add.w	r2, r0, #2048	; 0x800
 8002ef8:	780c      	ldrb	r4, [r1, #0]
 8002efa:	2b01      	cmp	r3, #1
 8002efc:	6bd1      	ldr	r1, [r2, #60]	; 0x3c
 8002efe:	f004 050f 	and.w	r5, r4, #15
 8002f02:	d110      	bne.n	8002f26 <USB_DeactivateEndpoint+0x36>
 8002f04:	40ab      	lsls	r3, r5
 8002f06:	eb00 1044 	add.w	r0, r0, r4, lsl #5
 8002f0a:	43db      	mvns	r3, r3
 8002f0c:	4019      	ands	r1, r3
 8002f0e:	63d1      	str	r1, [r2, #60]	; 0x3c
 8002f10:	69d1      	ldr	r1, [r2, #28]
 8002f12:	400b      	ands	r3, r1
 8002f14:	61d3      	str	r3, [r2, #28]
 8002f16:	4b0d      	ldr	r3, [pc, #52]	; (8002f4c <USB_DeactivateEndpoint+0x5c>)
 8002f18:	f8d0 2900 	ldr.w	r2, [r0, #2304]	; 0x900
 8002f1c:	4013      	ands	r3, r2
 8002f1e:	f8c0 3900 	str.w	r3, [r0, #2304]	; 0x900
 8002f22:	2000      	movs	r0, #0
 8002f24:	bd30      	pop	{r4, r5, pc}
 8002f26:	f44f 3380 	mov.w	r3, #65536	; 0x10000
 8002f2a:	eb00 1044 	add.w	r0, r0, r4, lsl #5
 8002f2e:	40ab      	lsls	r3, r5
 8002f30:	43db      	mvns	r3, r3
 8002f32:	4019      	ands	r1, r3
 8002f34:	63d1      	str	r1, [r2, #60]	; 0x3c
 8002f36:	69d1      	ldr	r1, [r2, #28]
 8002f38:	400b      	ands	r3, r1
 8002f3a:	61d3      	str	r3, [r2, #28]
 8002f3c:	4b04      	ldr	r3, [pc, #16]	; (8002f50 <USB_DeactivateEndpoint+0x60>)
 8002f3e:	f8d0 2b00 	ldr.w	r2, [r0, #2816]	; 0xb00
 8002f42:	4013      	ands	r3, r2
 8002f44:	f8c0 3b00 	str.w	r3, [r0, #2816]	; 0xb00
 8002f48:	e7eb      	b.n	8002f22 <USB_DeactivateEndpoint+0x32>
 8002f4a:	bf00      	nop
 8002f4c:	ec337800 	.word	0xec337800
 8002f50:	eff37800 	.word	0xeff37800

08002f54 <USB_EP0StartXfer>:
 8002f54:	b5f0      	push	{r4, r5, r6, r7, lr}
 8002f56:	784b      	ldrb	r3, [r1, #1]
 8002f58:	780c      	ldrb	r4, [r1, #0]
 8002f5a:	2b01      	cmp	r3, #1
 8002f5c:	694e      	ldr	r6, [r1, #20]
 8002f5e:	f04f 0320 	mov.w	r3, #32
 8002f62:	4f3b      	ldr	r7, [pc, #236]	; (8003050 <USB_EP0StartXfer+0xfc>)
 8002f64:	d14f      	bne.n	8003006 <USB_EP0StartXfer+0xb2>
 8002f66:	fb13 0304 	smlabb	r3, r3, r4, r0
 8002f6a:	bb26      	cbnz	r6, 8002fb6 <USB_EP0StartXfer+0x62>
 8002f6c:	f8d3 5910 	ldr.w	r5, [r3, #2320]	; 0x910
 8002f70:	2a01      	cmp	r2, #1
 8002f72:	f025 55ff 	bic.w	r5, r5, #534773760	; 0x1fe00000
 8002f76:	f425 15c0 	bic.w	r5, r5, #1572864	; 0x180000
 8002f7a:	f8c3 5910 	str.w	r5, [r3, #2320]	; 0x910
 8002f7e:	f8d3 5910 	ldr.w	r5, [r3, #2320]	; 0x910
 8002f82:	f445 2500 	orr.w	r5, r5, #524288	; 0x80000
 8002f86:	f8c3 5910 	str.w	r5, [r3, #2320]	; 0x910
 8002f8a:	f8d3 5910 	ldr.w	r5, [r3, #2320]	; 0x910
 8002f8e:	ea07 0705 	and.w	r7, r7, r5
 8002f92:	f8c3 7910 	str.w	r7, [r3, #2320]	; 0x910
 8002f96:	d104      	bne.n	8002fa2 <USB_EP0StartXfer+0x4e>
 8002f98:	eb00 1344 	add.w	r3, r0, r4, lsl #5
 8002f9c:	690a      	ldr	r2, [r1, #16]
 8002f9e:	f8c3 2914 	str.w	r2, [r3, #2324]	; 0x914
 8002fa2:	eb00 1044 	add.w	r0, r0, r4, lsl #5
 8002fa6:	f8d0 2900 	ldr.w	r2, [r0, #2304]	; 0x900
 8002faa:	f042 4204 	orr.w	r2, r2, #2214592512	; 0x84000000
 8002fae:	f8c0 2900 	str.w	r2, [r0, #2304]	; 0x900
 8002fb2:	2000      	movs	r0, #0
 8002fb4:	bdf0      	pop	{r4, r5, r6, r7, pc}
 8002fb6:	f503 6310 	add.w	r3, r3, #2304	; 0x900
 8002fba:	691d      	ldr	r5, [r3, #16]
 8002fbc:	402f      	ands	r7, r5
 8002fbe:	611f      	str	r7, [r3, #16]
 8002fc0:	691d      	ldr	r5, [r3, #16]
 8002fc2:	f025 55ff 	bic.w	r5, r5, #534773760	; 0x1fe00000
 8002fc6:	f425 15c0 	bic.w	r5, r5, #1572864	; 0x180000
 8002fca:	611d      	str	r5, [r3, #16]
 8002fcc:	688d      	ldr	r5, [r1, #8]
 8002fce:	42ae      	cmp	r6, r5
 8002fd0:	bf88      	it	hi
 8002fd2:	614d      	strhi	r5, [r1, #20]
 8002fd4:	2a01      	cmp	r2, #1
 8002fd6:	691d      	ldr	r5, [r3, #16]
 8002fd8:	694e      	ldr	r6, [r1, #20]
 8002fda:	f445 2500 	orr.w	r5, r5, #524288	; 0x80000
 8002fde:	611d      	str	r5, [r3, #16]
 8002fe0:	f3c6 0512 	ubfx	r5, r6, #0, #19
 8002fe4:	691f      	ldr	r7, [r3, #16]
 8002fe6:	ea45 0507 	orr.w	r5, r5, r7
 8002fea:	611d      	str	r5, [r3, #16]
 8002fec:	d0d4      	beq.n	8002f98 <USB_EP0StartXfer+0x44>
 8002fee:	2e00      	cmp	r6, #0
 8002ff0:	d0d7      	beq.n	8002fa2 <USB_EP0StartXfer+0x4e>
 8002ff2:	f004 050f 	and.w	r5, r4, #15
 8002ff6:	2301      	movs	r3, #1
 8002ff8:	f8d0 1834 	ldr.w	r1, [r0, #2100]	; 0x834
 8002ffc:	40ab      	lsls	r3, r5
 8002ffe:	430b      	orrs	r3, r1
 8003000:	f8c0 3834 	str.w	r3, [r0, #2100]	; 0x834
 8003004:	e7cd      	b.n	8002fa2 <USB_EP0StartXfer+0x4e>
 8003006:	fb13 0004 	smlabb	r0, r3, r4, r0
 800300a:	f500 6330 	add.w	r3, r0, #2816	; 0xb00
 800300e:	691c      	ldr	r4, [r3, #16]
 8003010:	4027      	ands	r7, r4
 8003012:	611f      	str	r7, [r3, #16]
 8003014:	691c      	ldr	r4, [r3, #16]
 8003016:	f024 54ff 	bic.w	r4, r4, #534773760	; 0x1fe00000
 800301a:	f424 14c0 	bic.w	r4, r4, #1572864	; 0x180000
 800301e:	611c      	str	r4, [r3, #16]
 8003020:	688c      	ldr	r4, [r1, #8]
 8003022:	b106      	cbz	r6, 8003026 <USB_EP0StartXfer+0xd2>
 8003024:	614c      	str	r4, [r1, #20]
 8003026:	691d      	ldr	r5, [r3, #16]
 8003028:	f3c4 0412 	ubfx	r4, r4, #0, #19
 800302c:	2a01      	cmp	r2, #1
 800302e:	f445 2500 	orr.w	r5, r5, #524288	; 0x80000
 8003032:	611d      	str	r5, [r3, #16]
 8003034:	691d      	ldr	r5, [r3, #16]
 8003036:	ea44 0405 	orr.w	r4, r4, r5
 800303a:	611c      	str	r4, [r3, #16]
 800303c:	d101      	bne.n	8003042 <USB_EP0StartXfer+0xee>
 800303e:	68ca      	ldr	r2, [r1, #12]
 8003040:	615a      	str	r2, [r3, #20]
 8003042:	f8d0 3b00 	ldr.w	r3, [r0, #2816]	; 0xb00
 8003046:	f043 4304 	orr.w	r3, r3, #2214592512	; 0x84000000
 800304a:	f8c0 3b00 	str.w	r3, [r0, #2816]	; 0xb00
 800304e:	e7b0      	b.n	8002fb2 <USB_EP0StartXfer+0x5e>
 8003050:	fff80000 	.word	0xfff80000

08003054 <USB_WritePacket>:
 8003054:	b510      	push	{r4, lr}
 8003056:	f89d 4008 	ldrb.w	r4, [sp, #8]
 800305a:	b94c      	cbnz	r4, 8003070 <USB_WritePacket+0x1c>
 800305c:	3303      	adds	r3, #3
 800305e:	eb00 3002 	add.w	r0, r0, r2, lsl #12
 8003062:	f023 0303 	bic.w	r3, r3, #3
 8003066:	f500 5080 	add.w	r0, r0, #4096	; 0x1000
 800306a:	440b      	add	r3, r1
 800306c:	4299      	cmp	r1, r3
 800306e:	d101      	bne.n	8003074 <USB_WritePacket+0x20>
 8003070:	2000      	movs	r0, #0
 8003072:	bd10      	pop	{r4, pc}
 8003074:	f851 2b04 	ldr.w	r2, [r1], #4
 8003078:	6002      	str	r2, [r0, #0]
 800307a:	e7f7      	b.n	800306c <USB_WritePacket+0x18>

0800307c <USB_EPStartXfer>:
 800307c:	b5f7      	push	{r0, r1, r2, r4, r5, r6, r7, lr}
 800307e:	784b      	ldrb	r3, [r1, #1]
 8003080:	2420      	movs	r4, #32
 8003082:	780e      	ldrb	r6, [r1, #0]
 8003084:	2b01      	cmp	r3, #1
 8003086:	4f64      	ldr	r7, [pc, #400]	; (8003218 <USB_EPStartXfer+0x19c>)
 8003088:	694b      	ldr	r3, [r1, #20]
 800308a:	fb14 0406 	smlabb	r4, r4, r6, r0
 800308e:	d17b      	bne.n	8003188 <USB_EPStartXfer+0x10c>
 8003090:	2b00      	cmp	r3, #0
 8003092:	d13e      	bne.n	8003112 <USB_EPStartXfer+0x96>
 8003094:	f504 6510 	add.w	r5, r4, #2304	; 0x900
 8003098:	f8d4 4910 	ldr.w	r4, [r4, #2320]	; 0x910
 800309c:	f024 54ff 	bic.w	r4, r4, #534773760	; 0x1fe00000
 80030a0:	f424 14c0 	bic.w	r4, r4, #1572864	; 0x180000
 80030a4:	612c      	str	r4, [r5, #16]
 80030a6:	692c      	ldr	r4, [r5, #16]
 80030a8:	f444 2400 	orr.w	r4, r4, #524288	; 0x80000
 80030ac:	612c      	str	r4, [r5, #16]
 80030ae:	692c      	ldr	r4, [r5, #16]
 80030b0:	4027      	ands	r7, r4
 80030b2:	612f      	str	r7, [r5, #16]
 80030b4:	2a01      	cmp	r2, #1
 80030b6:	d156      	bne.n	8003166 <USB_EPStartXfer+0xea>
 80030b8:	eb00 1446 	add.w	r4, r0, r6, lsl #5
 80030bc:	690d      	ldr	r5, [r1, #16]
 80030be:	f8c4 5914 	str.w	r5, [r4, #2324]	; 0x914
 80030c2:	78cf      	ldrb	r7, [r1, #3]
 80030c4:	2f01      	cmp	r7, #1
 80030c6:	d110      	bne.n	80030ea <USB_EPStartXfer+0x6e>
 80030c8:	f8d0 4808 	ldr.w	r4, [r0, #2056]	; 0x808
 80030cc:	f414 7f80 	tst.w	r4, #256	; 0x100
 80030d0:	f04f 0420 	mov.w	r4, #32
 80030d4:	fb14 0406 	smlabb	r4, r4, r6, r0
 80030d8:	f8d4 5900 	ldr.w	r5, [r4, #2304]	; 0x900
 80030dc:	bf0c      	ite	eq
 80030de:	f045 5500 	orreq.w	r5, r5, #536870912	; 0x20000000
 80030e2:	f045 5580 	orrne.w	r5, r5, #268435456	; 0x10000000
 80030e6:	f8c4 5900 	str.w	r5, [r4, #2304]	; 0x900
 80030ea:	eb00 1446 	add.w	r4, r0, r6, lsl #5
 80030ee:	2f01      	cmp	r7, #1
 80030f0:	f8d4 5900 	ldr.w	r5, [r4, #2304]	; 0x900
 80030f4:	f045 4504 	orr.w	r5, r5, #2214592512	; 0x84000000
 80030f8:	f8c4 5900 	str.w	r5, [r4, #2304]	; 0x900
 80030fc:	d106      	bne.n	800310c <USB_EPStartXfer+0x90>
 80030fe:	780c      	ldrb	r4, [r1, #0]
 8003100:	b29b      	uxth	r3, r3
 8003102:	9200      	str	r2, [sp, #0]
 8003104:	4622      	mov	r2, r4
 8003106:	68c9      	ldr	r1, [r1, #12]
 8003108:	f7ff ffa4 	bl	8003054 <USB_WritePacket>
 800310c:	2000      	movs	r0, #0
 800310e:	b003      	add	sp, #12
 8003110:	bdf0      	pop	{r4, r5, r6, r7, pc}
 8003112:	f8d4 5910 	ldr.w	r5, [r4, #2320]	; 0x910
 8003116:	f504 6410 	add.w	r4, r4, #2304	; 0x900
 800311a:	402f      	ands	r7, r5
 800311c:	6127      	str	r7, [r4, #16]
 800311e:	6925      	ldr	r5, [r4, #16]
 8003120:	688f      	ldr	r7, [r1, #8]
 8003122:	f025 55ff 	bic.w	r5, r5, #534773760	; 0x1fe00000
 8003126:	f425 15c0 	bic.w	r5, r5, #1572864	; 0x180000
 800312a:	6125      	str	r5, [r4, #16]
 800312c:	19dd      	adds	r5, r3, r7
 800312e:	f8d4 e010 	ldr.w	lr, [r4, #16]
 8003132:	3d01      	subs	r5, #1
 8003134:	fbb5 f7f7 	udiv	r7, r5, r7
 8003138:	4d38      	ldr	r5, [pc, #224]	; (800321c <USB_EPStartXfer+0x1a0>)
 800313a:	ea05 45c7 	and.w	r5, r5, r7, lsl #19
 800313e:	ea45 050e 	orr.w	r5, r5, lr
 8003142:	6125      	str	r5, [r4, #16]
 8003144:	f3c3 0512 	ubfx	r5, r3, #0, #19
 8003148:	6927      	ldr	r7, [r4, #16]
 800314a:	433d      	orrs	r5, r7
 800314c:	6125      	str	r5, [r4, #16]
 800314e:	78cd      	ldrb	r5, [r1, #3]
 8003150:	2d01      	cmp	r5, #1
 8003152:	d15e      	bne.n	8003212 <USB_EPStartXfer+0x196>
 8003154:	6925      	ldr	r5, [r4, #16]
 8003156:	f025 45c0 	bic.w	r5, r5, #1610612736	; 0x60000000
 800315a:	6125      	str	r5, [r4, #16]
 800315c:	6925      	ldr	r5, [r4, #16]
 800315e:	f045 5500 	orr.w	r5, r5, #536870912	; 0x20000000
 8003162:	6125      	str	r5, [r4, #16]
 8003164:	e7a6      	b.n	80030b4 <USB_EPStartXfer+0x38>
 8003166:	78cc      	ldrb	r4, [r1, #3]
 8003168:	2c01      	cmp	r4, #1
 800316a:	d0aa      	beq.n	80030c2 <USB_EPStartXfer+0x46>
 800316c:	2b00      	cmp	r3, #0
 800316e:	d0a8      	beq.n	80030c2 <USB_EPStartXfer+0x46>
 8003170:	780c      	ldrb	r4, [r1, #0]
 8003172:	f8d0 e834 	ldr.w	lr, [r0, #2100]	; 0x834
 8003176:	f004 050f 	and.w	r5, r4, #15
 800317a:	2401      	movs	r4, #1
 800317c:	40ac      	lsls	r4, r5
 800317e:	ea44 040e 	orr.w	r4, r4, lr
 8003182:	f8c0 4834 	str.w	r4, [r0, #2100]	; 0x834
 8003186:	e79c      	b.n	80030c2 <USB_EPStartXfer+0x46>
 8003188:	f504 6630 	add.w	r6, r4, #2816	; 0xb00
 800318c:	6935      	ldr	r5, [r6, #16]
 800318e:	402f      	ands	r7, r5
 8003190:	6137      	str	r7, [r6, #16]
 8003192:	6935      	ldr	r5, [r6, #16]
 8003194:	f025 55ff 	bic.w	r5, r5, #534773760	; 0x1fe00000
 8003198:	f425 15c0 	bic.w	r5, r5, #1572864	; 0x180000
 800319c:	6135      	str	r5, [r6, #16]
 800319e:	688d      	ldr	r5, [r1, #8]
 80031a0:	bb1b      	cbnz	r3, 80031ea <USB_EPStartXfer+0x16e>
 80031a2:	6933      	ldr	r3, [r6, #16]
 80031a4:	f3c5 0512 	ubfx	r5, r5, #0, #19
 80031a8:	431d      	orrs	r5, r3
 80031aa:	6135      	str	r5, [r6, #16]
 80031ac:	6933      	ldr	r3, [r6, #16]
 80031ae:	f443 2300 	orr.w	r3, r3, #524288	; 0x80000
 80031b2:	6133      	str	r3, [r6, #16]
 80031b4:	2a01      	cmp	r2, #1
 80031b6:	d101      	bne.n	80031bc <USB_EPStartXfer+0x140>
 80031b8:	68cb      	ldr	r3, [r1, #12]
 80031ba:	6173      	str	r3, [r6, #20]
 80031bc:	78cb      	ldrb	r3, [r1, #3]
 80031be:	2b01      	cmp	r3, #1
 80031c0:	d10c      	bne.n	80031dc <USB_EPStartXfer+0x160>
 80031c2:	f8d0 3808 	ldr.w	r3, [r0, #2056]	; 0x808
 80031c6:	f413 7f80 	tst.w	r3, #256	; 0x100
 80031ca:	f8d4 3b00 	ldr.w	r3, [r4, #2816]	; 0xb00
 80031ce:	bf0c      	ite	eq
 80031d0:	f043 5300 	orreq.w	r3, r3, #536870912	; 0x20000000
 80031d4:	f043 5380 	orrne.w	r3, r3, #268435456	; 0x10000000
 80031d8:	f8c4 3b00 	str.w	r3, [r4, #2816]	; 0xb00
 80031dc:	f8d4 3b00 	ldr.w	r3, [r4, #2816]	; 0xb00
 80031e0:	f043 4304 	orr.w	r3, r3, #2214592512	; 0x84000000
 80031e4:	f8c4 3b00 	str.w	r3, [r4, #2816]	; 0xb00
 80031e8:	e790      	b.n	800310c <USB_EPStartXfer+0x90>
 80031ea:	442b      	add	r3, r5
 80031ec:	4f0b      	ldr	r7, [pc, #44]	; (800321c <USB_EPStartXfer+0x1a0>)
 80031ee:	f8d6 e010 	ldr.w	lr, [r6, #16]
 80031f2:	3b01      	subs	r3, #1
 80031f4:	fbb3 f3f5 	udiv	r3, r3, r5
 80031f8:	ea07 47c3 	and.w	r7, r7, r3, lsl #19
 80031fc:	b29b      	uxth	r3, r3
 80031fe:	ea47 070e 	orr.w	r7, r7, lr
 8003202:	435d      	muls	r5, r3
 8003204:	6137      	str	r7, [r6, #16]
 8003206:	f3c5 0512 	ubfx	r5, r5, #0, #19
 800320a:	6937      	ldr	r7, [r6, #16]
 800320c:	433d      	orrs	r5, r7
 800320e:	6135      	str	r5, [r6, #16]
 8003210:	e7d0      	b.n	80031b4 <USB_EPStartXfer+0x138>
 8003212:	2a01      	cmp	r2, #1
 8003214:	d1aa      	bne.n	800316c <USB_EPStartXfer+0xf0>
 8003216:	e74f      	b.n	80030b8 <USB_EPStartXfer+0x3c>
 8003218:	fff80000 	.word	0xfff80000
 800321c:	1ff80000 	.word	0x1ff80000

08003220 <USB_ReadPacket>:
 8003220:	3203      	adds	r2, #3
 8003222:	f500 5080 	add.w	r0, r0, #4096	; 0x1000
 8003226:	f022 0203 	bic.w	r2, r2, #3
 800322a:	440a      	add	r2, r1
 800322c:	4291      	cmp	r1, r2
 800322e:	d101      	bne.n	8003234 <USB_ReadPacket+0x14>
 8003230:	4608      	mov	r0, r1
 8003232:	4770      	bx	lr
 8003234:	6803      	ldr	r3, [r0, #0]
 8003236:	f841 3b04 	str.w	r3, [r1], #4
 800323a:	e7f7      	b.n	800322c <USB_ReadPacket+0xc>

0800323c <USB_EPSetStall>:
 800323c:	784b      	ldrb	r3, [r1, #1]
 800323e:	780a      	ldrb	r2, [r1, #0]
 8003240:	2b01      	cmp	r3, #1
 8003242:	f04f 0320 	mov.w	r3, #32
 8003246:	fb13 0002 	smlabb	r0, r3, r2, r0
 800324a:	d112      	bne.n	8003272 <USB_EPSetStall+0x36>
 800324c:	f8d0 3900 	ldr.w	r3, [r0, #2304]	; 0x900
 8003250:	2b00      	cmp	r3, #0
 8003252:	db06      	blt.n	8003262 <USB_EPSetStall+0x26>
 8003254:	b12a      	cbz	r2, 8003262 <USB_EPSetStall+0x26>
 8003256:	f8d0 3900 	ldr.w	r3, [r0, #2304]	; 0x900
 800325a:	f023 4380 	bic.w	r3, r3, #1073741824	; 0x40000000
 800325e:	f8c0 3900 	str.w	r3, [r0, #2304]	; 0x900
 8003262:	f8d0 3900 	ldr.w	r3, [r0, #2304]	; 0x900
 8003266:	f443 1300 	orr.w	r3, r3, #2097152	; 0x200000
 800326a:	f8c0 3900 	str.w	r3, [r0, #2304]	; 0x900
 800326e:	2000      	movs	r0, #0
 8003270:	4770      	bx	lr
 8003272:	f8d0 3b00 	ldr.w	r3, [r0, #2816]	; 0xb00
 8003276:	2b00      	cmp	r3, #0
 8003278:	db06      	blt.n	8003288 <USB_EPSetStall+0x4c>
 800327a:	b12a      	cbz	r2, 8003288 <USB_EPSetStall+0x4c>
 800327c:	f8d0 3b00 	ldr.w	r3, [r0, #2816]	; 0xb00
 8003280:	f023 4380 	bic.w	r3, r3, #1073741824	; 0x40000000
 8003284:	f8c0 3b00 	str.w	r3, [r0, #2816]	; 0xb00
 8003288:	f8d0 3b00 	ldr.w	r3, [r0, #2816]	; 0xb00
 800328c:	f443 1300 	orr.w	r3, r3, #2097152	; 0x200000
 8003290:	f8c0 3b00 	str.w	r3, [r0, #2816]	; 0xb00
 8003294:	e7eb      	b.n	800326e <USB_EPSetStall+0x32>

08003296 <USB_EPClearStall>:
 8003296:	784b      	ldrb	r3, [r1, #1]
 8003298:	780a      	ldrb	r2, [r1, #0]
 800329a:	2b01      	cmp	r3, #1
 800329c:	f04f 0320 	mov.w	r3, #32
 80032a0:	fb13 0002 	smlabb	r0, r3, r2, r0
 80032a4:	d111      	bne.n	80032ca <USB_EPClearStall+0x34>
 80032a6:	f8d0 3900 	ldr.w	r3, [r0, #2304]	; 0x900
 80032aa:	f423 1300 	bic.w	r3, r3, #2097152	; 0x200000
 80032ae:	f8c0 3900 	str.w	r3, [r0, #2304]	; 0x900
 80032b2:	78cb      	ldrb	r3, [r1, #3]
 80032b4:	3b02      	subs	r3, #2
 80032b6:	2b01      	cmp	r3, #1
 80032b8:	d805      	bhi.n	80032c6 <USB_EPClearStall+0x30>
 80032ba:	f8d0 3900 	ldr.w	r3, [r0, #2304]	; 0x900
 80032be:	f043 5380 	orr.w	r3, r3, #268435456	; 0x10000000
 80032c2:	f8c0 3900 	str.w	r3, [r0, #2304]	; 0x900
 80032c6:	2000      	movs	r0, #0
 80032c8:	4770      	bx	lr
 80032ca:	f8d0 3b00 	ldr.w	r3, [r0, #2816]	; 0xb00
 80032ce:	f423 1300 	bic.w	r3, r3, #2097152	; 0x200000
 80032d2:	f8c0 3b00 	str.w	r3, [r0, #2816]	; 0xb00
 80032d6:	78cb      	ldrb	r3, [r1, #3]
 80032d8:	3b02      	subs	r3, #2
 80032da:	2b01      	cmp	r3, #1
 80032dc:	d8f3      	bhi.n	80032c6 <USB_EPClearStall+0x30>
 80032de:	f8d0 3b00 	ldr.w	r3, [r0, #2816]	; 0xb00
 80032e2:	f043 5380 	orr.w	r3, r3, #268435456	; 0x10000000
 80032e6:	f8c0 3b00 	str.w	r3, [r0, #2816]	; 0xb00
 80032ea:	e7ec      	b.n	80032c6 <USB_EPClearStall+0x30>

080032ec <USB_SetDevAddress>:
 80032ec:	f8d0 3800 	ldr.w	r3, [r0, #2048]	; 0x800
 80032f0:	0109      	lsls	r1, r1, #4
 80032f2:	f423 63fe 	bic.w	r3, r3, #2032	; 0x7f0
 80032f6:	f401 61fe 	and.w	r1, r1, #2032	; 0x7f0
 80032fa:	f8c0 3800 	str.w	r3, [r0, #2048]	; 0x800
 80032fe:	f8d0 3800 	ldr.w	r3, [r0, #2048]	; 0x800
 8003302:	4319      	orrs	r1, r3
 8003304:	f8c0 1800 	str.w	r1, [r0, #2048]	; 0x800
 8003308:	2000      	movs	r0, #0
 800330a:	4770      	bx	lr

0800330c <USB_DevConnect>:
 800330c:	b508      	push	{r3, lr}
 800330e:	f8d0 3804 	ldr.w	r3, [r0, #2052]	; 0x804
 8003312:	f023 0302 	bic.w	r3, r3, #2
 8003316:	f8c0 3804 	str.w	r3, [r0, #2052]	; 0x804
 800331a:	2003      	movs	r0, #3
 800331c:	f7fd f96e 	bl	80005fc <HAL_Delay>
 8003320:	2000      	movs	r0, #0
 8003322:	bd08      	pop	{r3, pc}

08003324 <USB_DevDisconnect>:
 8003324:	b508      	push	{r3, lr}
 8003326:	f8d0 3804 	ldr.w	r3, [r0, #2052]	; 0x804
 800332a:	f043 0302 	orr.w	r3, r3, #2
 800332e:	f8c0 3804 	str.w	r3, [r0, #2052]	; 0x804
 8003332:	2003      	movs	r0, #3
 8003334:	f7fd f962 	bl	80005fc <HAL_Delay>
 8003338:	2000      	movs	r0, #0
 800333a:	bd08      	pop	{r3, pc}

0800333c <USB_ReadInterrupts>:
 800333c:	6942      	ldr	r2, [r0, #20]
 800333e:	6980      	ldr	r0, [r0, #24]
 8003340:	4010      	ands	r0, r2
 8003342:	4770      	bx	lr

08003344 <USB_ReadDevAllOutEpInterrupt>:
 8003344:	f8d0 3818 	ldr.w	r3, [r0, #2072]	; 0x818
 8003348:	f500 6000 	add.w	r0, r0, #2048	; 0x800
 800334c:	69c0      	ldr	r0, [r0, #28]
 800334e:	4018      	ands	r0, r3
 8003350:	0c00      	lsrs	r0, r0, #16
 8003352:	4770      	bx	lr

08003354 <USB_ReadDevAllInEpInterrupt>:
 8003354:	f8d0 3818 	ldr.w	r3, [r0, #2072]	; 0x818
 8003358:	f500 6000 	add.w	r0, r0, #2048	; 0x800
 800335c:	69c0      	ldr	r0, [r0, #28]
 800335e:	4018      	ands	r0, r3
 8003360:	b280      	uxth	r0, r0
 8003362:	4770      	bx	lr

08003364 <USB_ReadDevOutEPInterrupt>:
 8003364:	eb00 1141 	add.w	r1, r0, r1, lsl #5
 8003368:	f500 6000 	add.w	r0, r0, #2048	; 0x800
 800336c:	f8d1 2b08 	ldr.w	r2, [r1, #2824]	; 0xb08
 8003370:	6940      	ldr	r0, [r0, #20]
 8003372:	4010      	ands	r0, r2
 8003374:	4770      	bx	lr

08003376 <USB_ReadDevInEPInterrupt>:
 8003376:	b510      	push	{r4, lr}
 8003378:	f8d0 4810 	ldr.w	r4, [r0, #2064]	; 0x810
 800337c:	f8d0 3834 	ldr.w	r3, [r0, #2100]	; 0x834
 8003380:	eb00 1041 	add.w	r0, r0, r1, lsl #5
 8003384:	f001 010f 	and.w	r1, r1, #15
 8003388:	f500 6010 	add.w	r0, r0, #2304	; 0x900
 800338c:	40cb      	lsrs	r3, r1
 800338e:	6880      	ldr	r0, [r0, #8]
 8003390:	01db      	lsls	r3, r3, #7
 8003392:	b2db      	uxtb	r3, r3
 8003394:	4323      	orrs	r3, r4
 8003396:	4018      	ands	r0, r3
 8003398:	bd10      	pop	{r4, pc}

0800339a <USB_GetMode>:
 800339a:	6940      	ldr	r0, [r0, #20]
 800339c:	f000 0001 	and.w	r0, r0, #1
 80033a0:	4770      	bx	lr

080033a2 <USB_ActivateSetup>:
 80033a2:	f8d0 3900 	ldr.w	r3, [r0, #2304]	; 0x900
 80033a6:	f423 63ff 	bic.w	r3, r3, #2040	; 0x7f8
 80033aa:	f023 0307 	bic.w	r3, r3, #7
 80033ae:	f8c0 3900 	str.w	r3, [r0, #2304]	; 0x900
 80033b2:	f500 6300 	add.w	r3, r0, #2048	; 0x800
 80033b6:	689a      	ldr	r2, [r3, #8]
 80033b8:	f002 0206 	and.w	r2, r2, #6
 80033bc:	2a04      	cmp	r2, #4
 80033be:	d105      	bne.n	80033cc <USB_ActivateSetup+0x2a>
 80033c0:	f8d0 2900 	ldr.w	r2, [r0, #2304]	; 0x900
 80033c4:	f042 0203 	orr.w	r2, r2, #3
 80033c8:	f8c0 2900 	str.w	r2, [r0, #2304]	; 0x900
 80033cc:	685a      	ldr	r2, [r3, #4]
 80033ce:	2000      	movs	r0, #0
 80033d0:	f442 7280 	orr.w	r2, r2, #256	; 0x100
 80033d4:	605a      	str	r2, [r3, #4]
 80033d6:	4770      	bx	lr

080033d8 <USB_EP0_OutStart>:
 80033d8:	b510      	push	{r4, lr}
 80033da:	2400      	movs	r4, #0
 80033dc:	2901      	cmp	r1, #1
 80033de:	f8c0 4b10 	str.w	r4, [r0, #2832]	; 0xb10
 80033e2:	f8d0 4b10 	ldr.w	r4, [r0, #2832]	; 0xb10
 80033e6:	f444 2400 	orr.w	r4, r4, #524288	; 0x80000
 80033ea:	f8c0 4b10 	str.w	r4, [r0, #2832]	; 0xb10
 80033ee:	f8d0 4b10 	ldr.w	r4, [r0, #2832]	; 0xb10
 80033f2:	f044 0418 	orr.w	r4, r4, #24
 80033f6:	f8c0 4b10 	str.w	r4, [r0, #2832]	; 0xb10
 80033fa:	f8d0 4b10 	ldr.w	r4, [r0, #2832]	; 0xb10
 80033fe:	f044 44c0 	orr.w	r4, r4, #1610612736	; 0x60000000
 8003402:	f8c0 4b10 	str.w	r4, [r0, #2832]	; 0xb10
 8003406:	d105      	bne.n	8003414 <USB_EP0_OutStart+0x3c>
 8003408:	f04f 2380 	mov.w	r3, #2147516416	; 0x80008000
 800340c:	f8c0 2b14 	str.w	r2, [r0, #2836]	; 0xb14
 8003410:	f8c0 3b00 	str.w	r3, [r0, #2816]	; 0xb00
 8003414:	2000      	movs	r0, #0
 8003416:	bd10      	pop	{r4, pc}

08003418 <USBD_CDC_EP0_RxReady>:
 8003418:	f8d0 3294 	ldr.w	r3, [r0, #660]	; 0x294
 800341c:	b510      	push	{r4, lr}
 800341e:	f8d0 4290 	ldr.w	r4, [r0, #656]	; 0x290
 8003422:	b15b      	cbz	r3, 800343c <USBD_CDC_EP0_RxReady+0x24>
 8003424:	f894 0200 	ldrb.w	r0, [r4, #512]	; 0x200
 8003428:	28ff      	cmp	r0, #255	; 0xff
 800342a:	d007      	beq.n	800343c <USBD_CDC_EP0_RxReady+0x24>
 800342c:	689b      	ldr	r3, [r3, #8]
 800342e:	4621      	mov	r1, r4
 8003430:	f894 2201 	ldrb.w	r2, [r4, #513]	; 0x201
 8003434:	4798      	blx	r3
 8003436:	23ff      	movs	r3, #255	; 0xff
 8003438:	f884 3200 	strb.w	r3, [r4, #512]	; 0x200
 800343c:	2000      	movs	r0, #0
 800343e:	bd10      	pop	{r4, pc}

08003440 <USBD_CDC_GetFSCfgDesc>:
 8003440:	2343      	movs	r3, #67	; 0x43
 8003442:	8003      	strh	r3, [r0, #0]
 8003444:	4800      	ldr	r0, [pc, #0]	; (8003448 <USBD_CDC_GetFSCfgDesc+0x8>)
 8003446:	4770      	bx	lr
 8003448:	2000003c 	.word	0x2000003c

0800344c <USBD_CDC_GetHSCfgDesc>:
 800344c:	2343      	movs	r3, #67	; 0x43
 800344e:	8003      	strh	r3, [r0, #0]
 8003450:	4800      	ldr	r0, [pc, #0]	; (8003454 <USBD_CDC_GetHSCfgDesc+0x8>)
 8003452:	4770      	bx	lr
 8003454:	20000080 	.word	0x20000080

08003458 <USBD_CDC_GetOtherSpeedCfgDesc>:
 8003458:	2343      	movs	r3, #67	; 0x43
 800345a:	8003      	strh	r3, [r0, #0]
 800345c:	4800      	ldr	r0, [pc, #0]	; (8003460 <USBD_CDC_GetOtherSpeedCfgDesc+0x8>)
 800345e:	4770      	bx	lr
 8003460:	200000d0 	.word	0x200000d0

08003464 <USBD_CDC_GetDeviceQualifierDescriptor>:
 8003464:	230a      	movs	r3, #10
 8003466:	8003      	strh	r3, [r0, #0]
 8003468:	4800      	ldr	r0, [pc, #0]	; (800346c <USBD_CDC_GetDeviceQualifierDescriptor+0x8>)
 800346a:	4770      	bx	lr
 800346c:	200000c4 	.word	0x200000c4

08003470 <USBD_CDC_DataOut>:
 8003470:	b538      	push	{r3, r4, r5, lr}
 8003472:	4605      	mov	r5, r0
 8003474:	f8d0 4290 	ldr.w	r4, [r0, #656]	; 0x290
 8003478:	f008 f896 	bl	800b5a8 <USBD_LL_GetRxDataSize>
 800347c:	f8d5 3290 	ldr.w	r3, [r5, #656]	; 0x290
 8003480:	f8c4 020c 	str.w	r0, [r4, #524]	; 0x20c
 8003484:	b14b      	cbz	r3, 800349a <USBD_CDC_DataOut+0x2a>
 8003486:	f8d5 3294 	ldr.w	r3, [r5, #660]	; 0x294
 800348a:	f504 7103 	add.w	r1, r4, #524	; 0x20c
 800348e:	f8d4 0204 	ldr.w	r0, [r4, #516]	; 0x204
 8003492:	68db      	ldr	r3, [r3, #12]
 8003494:	4798      	blx	r3
 8003496:	2000      	movs	r0, #0
 8003498:	bd38      	pop	{r3, r4, r5, pc}
 800349a:	2002      	movs	r0, #2
 800349c:	bd38      	pop	{r3, r4, r5, pc}

0800349e <USBD_CDC_DataIn>:
 800349e:	b5f8      	push	{r3, r4, r5, r6, r7, lr}
 80034a0:	f8d0 6290 	ldr.w	r6, [r0, #656]	; 0x290
 80034a4:	b1d6      	cbz	r6, 80034dc <USBD_CDC_DataIn+0x3e>
 80034a6:	2314      	movs	r3, #20
 80034a8:	fb03 0301 	mla	r3, r3, r1, r0
 80034ac:	69dd      	ldr	r5, [r3, #28]
 80034ae:	b18d      	cbz	r5, 80034d4 <USBD_CDC_DataIn+0x36>
 80034b0:	f8d0 4298 	ldr.w	r4, [r0, #664]	; 0x298
 80034b4:	271c      	movs	r7, #28
 80034b6:	fb07 4201 	mla	r2, r7, r1, r4
 80034ba:	6c52      	ldr	r2, [r2, #68]	; 0x44
 80034bc:	fbb5 f4f2 	udiv	r4, r5, r2
 80034c0:	fb02 5414 	mls	r4, r2, r4, r5
 80034c4:	b934      	cbnz	r4, 80034d4 <USBD_CDC_DataIn+0x36>
 80034c6:	61dc      	str	r4, [r3, #28]
 80034c8:	4622      	mov	r2, r4
 80034ca:	4623      	mov	r3, r4
 80034cc:	f008 f850 	bl	800b570 <USBD_LL_Transmit>
 80034d0:	4620      	mov	r0, r4
 80034d2:	bdf8      	pop	{r3, r4, r5, r6, r7, pc}
 80034d4:	2000      	movs	r0, #0
 80034d6:	f8c6 0214 	str.w	r0, [r6, #532]	; 0x214
 80034da:	bdf8      	pop	{r3, r4, r5, r6, r7, pc}
 80034dc:	2002      	movs	r0, #2
 80034de:	bdf8      	pop	{r3, r4, r5, r6, r7, pc}

080034e0 <USBD_CDC_Setup>:
 80034e0:	e92d 43f7 	stmdb	sp!, {r0, r1, r2, r4, r5, r6, r7, r8, r9, lr}
 80034e4:	780a      	ldrb	r2, [r1, #0]
 80034e6:	f04f 0800 	mov.w	r8, #0
 80034ea:	4605      	mov	r5, r0
 80034ec:	460e      	mov	r6, r1
 80034ee:	f012 0460 	ands.w	r4, r2, #96	; 0x60
 80034f2:	f8d0 7290 	ldr.w	r7, [r0, #656]	; 0x290
 80034f6:	f88d 8005 	strb.w	r8, [sp, #5]
 80034fa:	f8ad 8006 	strh.w	r8, [sp, #6]
 80034fe:	d028      	beq.n	8003552 <USBD_CDC_Setup+0x72>
 8003500:	2c20      	cmp	r4, #32
 8003502:	d147      	bne.n	8003594 <USBD_CDC_Setup+0xb4>
 8003504:	88cc      	ldrh	r4, [r1, #6]
 8003506:	784b      	ldrb	r3, [r1, #1]
 8003508:	b1e4      	cbz	r4, 8003544 <USBD_CDC_Setup+0x64>
 800350a:	0612      	lsls	r2, r2, #24
 800350c:	d511      	bpl.n	8003532 <USBD_CDC_Setup+0x52>
 800350e:	f8d0 2294 	ldr.w	r2, [r0, #660]	; 0x294
 8003512:	4639      	mov	r1, r7
 8003514:	4618      	mov	r0, r3
 8003516:	f8d2 9008 	ldr.w	r9, [r2, #8]
 800351a:	4622      	mov	r2, r4
 800351c:	47c8      	blx	r9
 800351e:	88f2      	ldrh	r2, [r6, #6]
 8003520:	4639      	mov	r1, r7
 8003522:	4628      	mov	r0, r5
 8003524:	f000 fc52 	bl	8003dcc <USBD_CtlSendData>
 8003528:	4644      	mov	r4, r8
 800352a:	4620      	mov	r0, r4
 800352c:	b003      	add	sp, #12
 800352e:	e8bd 83f0 	ldmia.w	sp!, {r4, r5, r6, r7, r8, r9, pc}
 8003532:	f887 3200 	strb.w	r3, [r7, #512]	; 0x200
 8003536:	4622      	mov	r2, r4
 8003538:	f887 4201 	strb.w	r4, [r7, #513]	; 0x201
 800353c:	4639      	mov	r1, r7
 800353e:	f000 fc5a 	bl	8003df6 <USBD_CtlPrepareRx>
 8003542:	e7f1      	b.n	8003528 <USBD_CDC_Setup+0x48>
 8003544:	f8d0 2294 	ldr.w	r2, [r0, #660]	; 0x294
 8003548:	4618      	mov	r0, r3
 800354a:	6895      	ldr	r5, [r2, #8]
 800354c:	4622      	mov	r2, r4
 800354e:	47a8      	blx	r5
 8003550:	e7eb      	b.n	800352a <USBD_CDC_Setup+0x4a>
 8003552:	784f      	ldrb	r7, [r1, #1]
 8003554:	2f0a      	cmp	r7, #10
 8003556:	d00d      	beq.n	8003574 <USBD_CDC_Setup+0x94>
 8003558:	2f0b      	cmp	r7, #11
 800355a:	d015      	beq.n	8003588 <USBD_CDC_Setup+0xa8>
 800355c:	b9d7      	cbnz	r7, 8003594 <USBD_CDC_Setup+0xb4>
 800355e:	f890 3274 	ldrb.w	r3, [r0, #628]	; 0x274
 8003562:	2b03      	cmp	r3, #3
 8003564:	d114      	bne.n	8003590 <USBD_CDC_Setup+0xb0>
 8003566:	2202      	movs	r2, #2
 8003568:	f10d 0106 	add.w	r1, sp, #6
 800356c:	f000 fc2e 	bl	8003dcc <USBD_CtlSendData>
 8003570:	463c      	mov	r4, r7
 8003572:	e7da      	b.n	800352a <USBD_CDC_Setup+0x4a>
 8003574:	f890 3274 	ldrb.w	r3, [r0, #628]	; 0x274
 8003578:	2b03      	cmp	r3, #3
 800357a:	d109      	bne.n	8003590 <USBD_CDC_Setup+0xb0>
 800357c:	2201      	movs	r2, #1
 800357e:	f10d 0105 	add.w	r1, sp, #5
 8003582:	f000 fc23 	bl	8003dcc <USBD_CtlSendData>
 8003586:	e7d0      	b.n	800352a <USBD_CDC_Setup+0x4a>
 8003588:	f890 3274 	ldrb.w	r3, [r0, #628]	; 0x274
 800358c:	2b03      	cmp	r3, #3
 800358e:	d0cc      	beq.n	800352a <USBD_CDC_Setup+0x4a>
 8003590:	4631      	mov	r1, r6
 8003592:	4628      	mov	r0, r5
 8003594:	f000 fbf3 	bl	8003d7e <USBD_CtlError>
 8003598:	2402      	movs	r4, #2
 800359a:	e7c6      	b.n	800352a <USBD_CDC_Setup+0x4a>

0800359c <USBD_CDC_DeInit>:
 800359c:	b538      	push	{r3, r4, r5, lr}
 800359e:	4604      	mov	r4, r0
 80035a0:	2500      	movs	r5, #0
 80035a2:	2181      	movs	r1, #129	; 0x81
 80035a4:	f007 ff98 	bl	800b4d8 <USBD_LL_CloseEP>
 80035a8:	2101      	movs	r1, #1
 80035aa:	62e5      	str	r5, [r4, #44]	; 0x2c
 80035ac:	4620      	mov	r0, r4
 80035ae:	f007 ff93 	bl	800b4d8 <USBD_LL_CloseEP>
 80035b2:	f8c4 5158 	str.w	r5, [r4, #344]	; 0x158
 80035b6:	2182      	movs	r1, #130	; 0x82
 80035b8:	4620      	mov	r0, r4
 80035ba:	f007 ff8d 	bl	800b4d8 <USBD_LL_CloseEP>
 80035be:	f8d4 3290 	ldr.w	r3, [r4, #656]	; 0x290
 80035c2:	6425      	str	r5, [r4, #64]	; 0x40
 80035c4:	b14b      	cbz	r3, 80035da <USBD_CDC_DeInit+0x3e>
 80035c6:	f8d4 3294 	ldr.w	r3, [r4, #660]	; 0x294
 80035ca:	685b      	ldr	r3, [r3, #4]
 80035cc:	4798      	blx	r3
 80035ce:	f8d4 0290 	ldr.w	r0, [r4, #656]	; 0x290
 80035d2:	f008 f8cf 	bl	800b774 <free>
 80035d6:	f8c4 5290 	str.w	r5, [r4, #656]	; 0x290
 80035da:	2000      	movs	r0, #0
 80035dc:	bd38      	pop	{r3, r4, r5, pc}

080035de <USBD_CDC_Init>:
 80035de:	7c03      	ldrb	r3, [r0, #16]
 80035e0:	e92d 41f0 	stmdb	sp!, {r4, r5, r6, r7, r8, lr}
 80035e4:	4604      	mov	r4, r0
 80035e6:	bbcb      	cbnz	r3, 800365c <USBD_CDC_Init+0x7e>
 80035e8:	f44f 7300 	mov.w	r3, #512	; 0x200
 80035ec:	2202      	movs	r2, #2
 80035ee:	2181      	movs	r1, #129	; 0x81
 80035f0:	2501      	movs	r5, #1
 80035f2:	f007 ff61 	bl	800b4b8 <USBD_LL_OpenEP>
 80035f6:	f44f 7300 	mov.w	r3, #512	; 0x200
 80035fa:	62e5      	str	r5, [r4, #44]	; 0x2c
 80035fc:	4629      	mov	r1, r5
 80035fe:	2202      	movs	r2, #2
 8003600:	4620      	mov	r0, r4
 8003602:	f007 ff59 	bl	800b4b8 <USBD_LL_OpenEP>
 8003606:	f8c4 5158 	str.w	r5, [r4, #344]	; 0x158
 800360a:	2501      	movs	r5, #1
 800360c:	2308      	movs	r3, #8
 800360e:	2203      	movs	r2, #3
 8003610:	2182      	movs	r1, #130	; 0x82
 8003612:	4620      	mov	r0, r4
 8003614:	f007 ff50 	bl	800b4b8 <USBD_LL_OpenEP>
 8003618:	6425      	str	r5, [r4, #64]	; 0x40
 800361a:	f44f 7007 	mov.w	r0, #540	; 0x21c
 800361e:	f008 f8a1 	bl	800b764 <malloc>
 8003622:	4606      	mov	r6, r0
 8003624:	f8c4 0290 	str.w	r0, [r4, #656]	; 0x290
 8003628:	b358      	cbz	r0, 8003682 <USBD_CDC_Init+0xa4>
 800362a:	f8d4 3294 	ldr.w	r3, [r4, #660]	; 0x294
 800362e:	2700      	movs	r7, #0
 8003630:	681b      	ldr	r3, [r3, #0]
 8003632:	4798      	blx	r3
 8003634:	f894 8010 	ldrb.w	r8, [r4, #16]
 8003638:	f8c6 7214 	str.w	r7, [r6, #532]	; 0x214
 800363c:	f8c6 7218 	str.w	r7, [r6, #536]	; 0x218
 8003640:	f1b8 0f00 	cmp.w	r8, #0
 8003644:	d113      	bne.n	800366e <USBD_CDC_Init+0x90>
 8003646:	f44f 7300 	mov.w	r3, #512	; 0x200
 800364a:	f8d6 2204 	ldr.w	r2, [r6, #516]	; 0x204
 800364e:	4629      	mov	r1, r5
 8003650:	4620      	mov	r0, r4
 8003652:	f007 ff9b 	bl	800b58c <USBD_LL_PrepareReceive>
 8003656:	4640      	mov	r0, r8
 8003658:	e8bd 81f0 	ldmia.w	sp!, {r4, r5, r6, r7, r8, pc}
 800365c:	2501      	movs	r5, #1
 800365e:	2340      	movs	r3, #64	; 0x40
 8003660:	2202      	movs	r2, #2
 8003662:	2181      	movs	r1, #129	; 0x81
 8003664:	f007 ff28 	bl	800b4b8 <USBD_LL_OpenEP>
 8003668:	62e5      	str	r5, [r4, #44]	; 0x2c
 800366a:	2340      	movs	r3, #64	; 0x40
 800366c:	e7c6      	b.n	80035fc <USBD_CDC_Init+0x1e>
 800366e:	2340      	movs	r3, #64	; 0x40
 8003670:	f8d6 2204 	ldr.w	r2, [r6, #516]	; 0x204
 8003674:	4629      	mov	r1, r5
 8003676:	4620      	mov	r0, r4
 8003678:	f007 ff88 	bl	800b58c <USBD_LL_PrepareReceive>
 800367c:	4638      	mov	r0, r7
 800367e:	e8bd 81f0 	ldmia.w	sp!, {r4, r5, r6, r7, r8, pc}
 8003682:	4628      	mov	r0, r5
 8003684:	e8bd 81f0 	ldmia.w	sp!, {r4, r5, r6, r7, r8, pc}

08003688 <USBD_CDC_RegisterInterface>:
 8003688:	b119      	cbz	r1, 8003692 <USBD_CDC_RegisterInterface+0xa>
 800368a:	f8c0 1294 	str.w	r1, [r0, #660]	; 0x294
 800368e:	2000      	movs	r0, #0
 8003690:	4770      	bx	lr
 8003692:	2002      	movs	r0, #2
 8003694:	4770      	bx	lr

08003696 <USBD_CDC_SetTxBuffer>:
 8003696:	f8d0 3290 	ldr.w	r3, [r0, #656]	; 0x290
 800369a:	2000      	movs	r0, #0
 800369c:	f8c3 1208 	str.w	r1, [r3, #520]	; 0x208
 80036a0:	f8c3 2210 	str.w	r2, [r3, #528]	; 0x210
 80036a4:	4770      	bx	lr

080036a6 <USBD_CDC_SetRxBuffer>:
 80036a6:	f8d0 3290 	ldr.w	r3, [r0, #656]	; 0x290
 80036aa:	2000      	movs	r0, #0
 80036ac:	f8c3 1204 	str.w	r1, [r3, #516]	; 0x204
 80036b0:	4770      	bx	lr

080036b2 <USBD_CDC_TransmitPacket>:
 80036b2:	f8d0 2290 	ldr.w	r2, [r0, #656]	; 0x290
 80036b6:	b510      	push	{r4, lr}
 80036b8:	b182      	cbz	r2, 80036dc <USBD_CDC_TransmitPacket+0x2a>
 80036ba:	f8d2 4214 	ldr.w	r4, [r2, #532]	; 0x214
 80036be:	2301      	movs	r3, #1
 80036c0:	b974      	cbnz	r4, 80036e0 <USBD_CDC_TransmitPacket+0x2e>
 80036c2:	f8c2 3214 	str.w	r3, [r2, #532]	; 0x214
 80036c6:	2181      	movs	r1, #129	; 0x81
 80036c8:	f8d2 3210 	ldr.w	r3, [r2, #528]	; 0x210
 80036cc:	f8d2 2208 	ldr.w	r2, [r2, #520]	; 0x208
 80036d0:	6303      	str	r3, [r0, #48]	; 0x30
 80036d2:	b29b      	uxth	r3, r3
 80036d4:	f007 ff4c 	bl	800b570 <USBD_LL_Transmit>
 80036d8:	4620      	mov	r0, r4
 80036da:	bd10      	pop	{r4, pc}
 80036dc:	2002      	movs	r0, #2
 80036de:	bd10      	pop	{r4, pc}
 80036e0:	4618      	mov	r0, r3
 80036e2:	bd10      	pop	{r4, pc}

080036e4 <USBD_CDC_ReceivePacket>:
 80036e4:	f8d0 2290 	ldr.w	r2, [r0, #656]	; 0x290
 80036e8:	b510      	push	{r4, lr}
 80036ea:	b162      	cbz	r2, 8003706 <USBD_CDC_ReceivePacket+0x22>
 80036ec:	7c04      	ldrb	r4, [r0, #16]
 80036ee:	b944      	cbnz	r4, 8003702 <USBD_CDC_ReceivePacket+0x1e>
 80036f0:	f44f 7300 	mov.w	r3, #512	; 0x200
 80036f4:	f8d2 2204 	ldr.w	r2, [r2, #516]	; 0x204
 80036f8:	2101      	movs	r1, #1
 80036fa:	f007 ff47 	bl	800b58c <USBD_LL_PrepareReceive>
 80036fe:	2000      	movs	r0, #0
 8003700:	bd10      	pop	{r4, pc}
 8003702:	2340      	movs	r3, #64	; 0x40
 8003704:	e7f6      	b.n	80036f4 <USBD_CDC_ReceivePacket+0x10>
 8003706:	2002      	movs	r0, #2
 8003708:	bd10      	pop	{r4, pc}

0800370a <USBD_Init>:
 800370a:	b508      	push	{r3, lr}
 800370c:	b180      	cbz	r0, 8003730 <USBD_Init+0x26>
 800370e:	f8d0 328c 	ldr.w	r3, [r0, #652]	; 0x28c
 8003712:	b113      	cbz	r3, 800371a <USBD_Init+0x10>
 8003714:	2300      	movs	r3, #0
 8003716:	f8c0 328c 	str.w	r3, [r0, #652]	; 0x28c
 800371a:	b109      	cbz	r1, 8003720 <USBD_Init+0x16>
 800371c:	f8c0 1288 	str.w	r1, [r0, #648]	; 0x288
 8003720:	2301      	movs	r3, #1
 8003722:	7002      	strb	r2, [r0, #0]
 8003724:	f880 3274 	strb.w	r3, [r0, #628]	; 0x274
 8003728:	f007 fe84 	bl	800b434 <USBD_LL_Init>
 800372c:	2000      	movs	r0, #0
 800372e:	bd08      	pop	{r3, pc}
 8003730:	2002      	movs	r0, #2
 8003732:	bd08      	pop	{r3, pc}

08003734 <USBD_RegisterClass>:
 8003734:	b119      	cbz	r1, 800373e <USBD_RegisterClass+0xa>
 8003736:	f8c0 128c 	str.w	r1, [r0, #652]	; 0x28c
 800373a:	2000      	movs	r0, #0
 800373c:	4770      	bx	lr
 800373e:	2002      	movs	r0, #2
 8003740:	4770      	bx	lr

08003742 <USBD_Start>:
 8003742:	b508      	push	{r3, lr}
 8003744:	f007 feaa 	bl	800b49c <USBD_LL_Start>
 8003748:	2000      	movs	r0, #0
 800374a:	bd08      	pop	{r3, pc}

0800374c <USBD_SetClassConfig>:
 800374c:	b508      	push	{r3, lr}
 800374e:	f8d0 328c 	ldr.w	r3, [r0, #652]	; 0x28c
 8003752:	b90b      	cbnz	r3, 8003758 <USBD_SetClassConfig+0xc>
 8003754:	2002      	movs	r0, #2
 8003756:	bd08      	pop	{r3, pc}
 8003758:	681b      	ldr	r3, [r3, #0]
 800375a:	4798      	blx	r3
 800375c:	2800      	cmp	r0, #0
 800375e:	d1f9      	bne.n	8003754 <USBD_SetClassConfig+0x8>
 8003760:	bd08      	pop	{r3, pc}

08003762 <USBD_ClrClassConfig>:
 8003762:	b508      	push	{r3, lr}
 8003764:	f8d0 328c 	ldr.w	r3, [r0, #652]	; 0x28c
 8003768:	685b      	ldr	r3, [r3, #4]
 800376a:	4798      	blx	r3
 800376c:	2000      	movs	r0, #0
 800376e:	bd08      	pop	{r3, pc}

08003770 <USBD_LL_SetupStage>:
 8003770:	b538      	push	{r3, r4, r5, lr}
 8003772:	f500 7520 	add.w	r5, r0, #640	; 0x280
 8003776:	4604      	mov	r4, r0
 8003778:	4628      	mov	r0, r5
 800377a:	f000 faec 	bl	8003d56 <USBD_ParseSetupRequest>
 800377e:	2301      	movs	r3, #1
 8003780:	f894 1280 	ldrb.w	r1, [r4, #640]	; 0x280
 8003784:	f8c4 326c 	str.w	r3, [r4, #620]	; 0x26c
 8003788:	f8b4 3286 	ldrh.w	r3, [r4, #646]	; 0x286
 800378c:	f8c4 3270 	str.w	r3, [r4, #624]	; 0x270
 8003790:	f001 031f 	and.w	r3, r1, #31
 8003794:	2b01      	cmp	r3, #1
 8003796:	d00e      	beq.n	80037b6 <USBD_LL_SetupStage+0x46>
 8003798:	d307      	bcc.n	80037aa <USBD_LL_SetupStage+0x3a>
 800379a:	2b02      	cmp	r3, #2
 800379c:	d010      	beq.n	80037c0 <USBD_LL_SetupStage+0x50>
 800379e:	f001 0180 	and.w	r1, r1, #128	; 0x80
 80037a2:	4620      	mov	r0, r4
 80037a4:	f007 fea6 	bl	800b4f4 <USBD_LL_StallEP>
 80037a8:	e003      	b.n	80037b2 <USBD_LL_SetupStage+0x42>
 80037aa:	4629      	mov	r1, r5
 80037ac:	4620      	mov	r0, r4
 80037ae:	f000 f901 	bl	80039b4 <USBD_StdDevReq>
 80037b2:	2000      	movs	r0, #0
 80037b4:	bd38      	pop	{r3, r4, r5, pc}
 80037b6:	4629      	mov	r1, r5
 80037b8:	4620      	mov	r0, r4
 80037ba:	f000 fa1d 	bl	8003bf8 <USBD_StdItfReq>
 80037be:	e7f8      	b.n	80037b2 <USBD_LL_SetupStage+0x42>
 80037c0:	4629      	mov	r1, r5
 80037c2:	4620      	mov	r0, r4
 80037c4:	f000 fa3d 	bl	8003c42 <USBD_StdEPReq>
 80037c8:	e7f3      	b.n	80037b2 <USBD_LL_SetupStage+0x42>

080037ca <USBD_LL_DataOutStage>:
 80037ca:	b570      	push	{r4, r5, r6, lr}
 80037cc:	4605      	mov	r5, r0
 80037ce:	4616      	mov	r6, r2
 80037d0:	bb39      	cbnz	r1, 8003822 <USBD_LL_DataOutStage+0x58>
 80037d2:	f8d0 326c 	ldr.w	r3, [r0, #620]	; 0x26c
 80037d6:	2b03      	cmp	r3, #3
 80037d8:	d11e      	bne.n	8003818 <USBD_LL_DataOutStage+0x4e>
 80037da:	f8d0 314c 	ldr.w	r3, [r0, #332]	; 0x14c
 80037de:	f8d0 2150 	ldr.w	r2, [r0, #336]	; 0x150
 80037e2:	4293      	cmp	r3, r2
 80037e4:	d90b      	bls.n	80037fe <USBD_LL_DataOutStage+0x34>
 80037e6:	1a9b      	subs	r3, r3, r2
 80037e8:	4631      	mov	r1, r6
 80037ea:	429a      	cmp	r2, r3
 80037ec:	f8c0 314c 	str.w	r3, [r0, #332]	; 0x14c
 80037f0:	bf8c      	ite	hi
 80037f2:	b29a      	uxthhi	r2, r3
 80037f4:	b292      	uxthls	r2, r2
 80037f6:	f000 fb0d 	bl	8003e14 <USBD_CtlContinueRx>
 80037fa:	2000      	movs	r0, #0
 80037fc:	bd70      	pop	{r4, r5, r6, pc}
 80037fe:	f8d0 328c 	ldr.w	r3, [r0, #652]	; 0x28c
 8003802:	691b      	ldr	r3, [r3, #16]
 8003804:	b123      	cbz	r3, 8003810 <USBD_LL_DataOutStage+0x46>
 8003806:	f890 2274 	ldrb.w	r2, [r0, #628]	; 0x274
 800380a:	2a03      	cmp	r2, #3
 800380c:	d100      	bne.n	8003810 <USBD_LL_DataOutStage+0x46>
 800380e:	4798      	blx	r3
 8003810:	4628      	mov	r0, r5
 8003812:	f000 fb07 	bl	8003e24 <USBD_CtlSendStatus>
 8003816:	e7f0      	b.n	80037fa <USBD_LL_DataOutStage+0x30>
 8003818:	2b05      	cmp	r3, #5
 800381a:	d1ee      	bne.n	80037fa <USBD_LL_DataOutStage+0x30>
 800381c:	f007 fe6a 	bl	800b4f4 <USBD_LL_StallEP>
 8003820:	e7eb      	b.n	80037fa <USBD_LL_DataOutStage+0x30>
 8003822:	f8d0 328c 	ldr.w	r3, [r0, #652]	; 0x28c
 8003826:	699b      	ldr	r3, [r3, #24]
 8003828:	b12b      	cbz	r3, 8003836 <USBD_LL_DataOutStage+0x6c>
 800382a:	f890 2274 	ldrb.w	r2, [r0, #628]	; 0x274
 800382e:	2a03      	cmp	r2, #3
 8003830:	d101      	bne.n	8003836 <USBD_LL_DataOutStage+0x6c>
 8003832:	4798      	blx	r3
 8003834:	e7e1      	b.n	80037fa <USBD_LL_DataOutStage+0x30>
 8003836:	2002      	movs	r0, #2
 8003838:	bd70      	pop	{r4, r5, r6, pc}

0800383a <USBD_LL_DataInStage>:
 800383a:	b570      	push	{r4, r5, r6, lr}
 800383c:	4613      	mov	r3, r2
 800383e:	4604      	mov	r4, r0
 8003840:	460e      	mov	r6, r1
 8003842:	2900      	cmp	r1, #0
 8003844:	d147      	bne.n	80038d6 <USBD_LL_DataInStage+0x9c>
 8003846:	f8d0 226c 	ldr.w	r2, [r0, #620]	; 0x26c
 800384a:	2a02      	cmp	r2, #2
 800384c:	d13c      	bne.n	80038c8 <USBD_LL_DataInStage+0x8e>
 800384e:	6a05      	ldr	r5, [r0, #32]
 8003850:	6a42      	ldr	r2, [r0, #36]	; 0x24
 8003852:	4295      	cmp	r5, r2
 8003854:	d913      	bls.n	800387e <USBD_LL_DataInStage+0x44>
 8003856:	1aaa      	subs	r2, r5, r2
 8003858:	4619      	mov	r1, r3
 800385a:	6202      	str	r2, [r0, #32]
 800385c:	b292      	uxth	r2, r2
 800385e:	f000 fac2 	bl	8003de6 <USBD_CtlContinueSendData>
 8003862:	4633      	mov	r3, r6
 8003864:	461a      	mov	r2, r3
 8003866:	4619      	mov	r1, r3
 8003868:	4620      	mov	r0, r4
 800386a:	f007 fe8f 	bl	800b58c <USBD_LL_PrepareReceive>
 800386e:	f894 3278 	ldrb.w	r3, [r4, #632]	; 0x278
 8003872:	2000      	movs	r0, #0
 8003874:	2b01      	cmp	r3, #1
 8003876:	d13a      	bne.n	80038ee <USBD_LL_DataInStage+0xb4>
 8003878:	f884 0278 	strb.w	r0, [r4, #632]	; 0x278
 800387c:	bd70      	pop	{r4, r5, r6, pc}
 800387e:	69c3      	ldr	r3, [r0, #28]
 8003880:	fbb3 f5f2 	udiv	r5, r3, r2
 8003884:	fb02 3515 	mls	r5, r2, r5, r3
 8003888:	b965      	cbnz	r5, 80038a4 <USBD_LL_DataInStage+0x6a>
 800388a:	429a      	cmp	r2, r3
 800388c:	d80a      	bhi.n	80038a4 <USBD_LL_DataInStage+0x6a>
 800388e:	f8d0 2270 	ldr.w	r2, [r0, #624]	; 0x270
 8003892:	4293      	cmp	r3, r2
 8003894:	d206      	bcs.n	80038a4 <USBD_LL_DataInStage+0x6a>
 8003896:	462a      	mov	r2, r5
 8003898:	f000 faa5 	bl	8003de6 <USBD_CtlContinueSendData>
 800389c:	f8c4 5270 	str.w	r5, [r4, #624]	; 0x270
 80038a0:	462b      	mov	r3, r5
 80038a2:	e7df      	b.n	8003864 <USBD_LL_DataInStage+0x2a>
 80038a4:	f8d4 328c 	ldr.w	r3, [r4, #652]	; 0x28c
 80038a8:	68db      	ldr	r3, [r3, #12]
 80038aa:	b12b      	cbz	r3, 80038b8 <USBD_LL_DataInStage+0x7e>
 80038ac:	f894 2274 	ldrb.w	r2, [r4, #628]	; 0x274
 80038b0:	2a03      	cmp	r2, #3
 80038b2:	d101      	bne.n	80038b8 <USBD_LL_DataInStage+0x7e>
 80038b4:	4620      	mov	r0, r4
 80038b6:	4798      	blx	r3
 80038b8:	2180      	movs	r1, #128	; 0x80
 80038ba:	4620      	mov	r0, r4
 80038bc:	f007 fe1a 	bl	800b4f4 <USBD_LL_StallEP>
 80038c0:	4620      	mov	r0, r4
 80038c2:	f000 faba 	bl	8003e3a <USBD_CtlReceiveStatus>
 80038c6:	e7d2      	b.n	800386e <USBD_LL_DataInStage+0x34>
 80038c8:	f032 0304 	bics.w	r3, r2, #4
 80038cc:	d1cf      	bne.n	800386e <USBD_LL_DataInStage+0x34>
 80038ce:	2180      	movs	r1, #128	; 0x80
 80038d0:	f007 fe10 	bl	800b4f4 <USBD_LL_StallEP>
 80038d4:	e7cb      	b.n	800386e <USBD_LL_DataInStage+0x34>
 80038d6:	f8d0 328c 	ldr.w	r3, [r0, #652]	; 0x28c
 80038da:	695b      	ldr	r3, [r3, #20]
 80038dc:	b133      	cbz	r3, 80038ec <USBD_LL_DataInStage+0xb2>
 80038de:	f890 2274 	ldrb.w	r2, [r0, #628]	; 0x274
 80038e2:	2a03      	cmp	r2, #3
 80038e4:	d102      	bne.n	80038ec <USBD_LL_DataInStage+0xb2>
 80038e6:	4798      	blx	r3
 80038e8:	2000      	movs	r0, #0
 80038ea:	bd70      	pop	{r4, r5, r6, pc}
 80038ec:	2002      	movs	r0, #2
 80038ee:	bd70      	pop	{r4, r5, r6, pc}

080038f0 <USBD_LL_Reset>:
 80038f0:	2200      	movs	r2, #0
 80038f2:	2340      	movs	r3, #64	; 0x40
 80038f4:	b570      	push	{r4, r5, r6, lr}
 80038f6:	4604      	mov	r4, r0
 80038f8:	2501      	movs	r5, #1
 80038fa:	2640      	movs	r6, #64	; 0x40
 80038fc:	4611      	mov	r1, r2
 80038fe:	f007 fddb 	bl	800b4b8 <USBD_LL_OpenEP>
 8003902:	2180      	movs	r1, #128	; 0x80
 8003904:	4633      	mov	r3, r6
 8003906:	f8c4 5144 	str.w	r5, [r4, #324]	; 0x144
 800390a:	f8c4 6150 	str.w	r6, [r4, #336]	; 0x150
 800390e:	2200      	movs	r2, #0
 8003910:	4620      	mov	r0, r4
 8003912:	f007 fdd1 	bl	800b4b8 <USBD_LL_OpenEP>
 8003916:	2100      	movs	r1, #0
 8003918:	f8d4 3290 	ldr.w	r3, [r4, #656]	; 0x290
 800391c:	61a5      	str	r5, [r4, #24]
 800391e:	6266      	str	r6, [r4, #36]	; 0x24
 8003920:	f884 5274 	strb.w	r5, [r4, #628]	; 0x274
 8003924:	f8c4 126c 	str.w	r1, [r4, #620]	; 0x26c
 8003928:	6061      	str	r1, [r4, #4]
 800392a:	f8c4 127c 	str.w	r1, [r4, #636]	; 0x27c
 800392e:	b123      	cbz	r3, 800393a <USBD_LL_Reset+0x4a>
 8003930:	f8d4 328c 	ldr.w	r3, [r4, #652]	; 0x28c
 8003934:	4620      	mov	r0, r4
 8003936:	685b      	ldr	r3, [r3, #4]
 8003938:	4798      	blx	r3
 800393a:	2000      	movs	r0, #0
 800393c:	bd70      	pop	{r4, r5, r6, pc}

0800393e <USBD_LL_SetSpeed>:
 800393e:	7401      	strb	r1, [r0, #16]
 8003940:	2000      	movs	r0, #0
 8003942:	4770      	bx	lr

08003944 <USBD_LL_Suspend>:
 8003944:	f890 3274 	ldrb.w	r3, [r0, #628]	; 0x274
 8003948:	f880 3275 	strb.w	r3, [r0, #629]	; 0x275
 800394c:	2304      	movs	r3, #4
 800394e:	f880 3274 	strb.w	r3, [r0, #628]	; 0x274
 8003952:	2000      	movs	r0, #0
 8003954:	4770      	bx	lr

08003956 <USBD_LL_Resume>:
 8003956:	f890 3275 	ldrb.w	r3, [r0, #629]	; 0x275
 800395a:	f880 3274 	strb.w	r3, [r0, #628]	; 0x274
 800395e:	2000      	movs	r0, #0
 8003960:	4770      	bx	lr

08003962 <USBD_LL_SOF>:
 8003962:	b508      	push	{r3, lr}
 8003964:	f890 2274 	ldrb.w	r2, [r0, #628]	; 0x274
 8003968:	2a03      	cmp	r2, #3
 800396a:	d104      	bne.n	8003976 <USBD_LL_SOF+0x14>
 800396c:	f8d0 328c 	ldr.w	r3, [r0, #652]	; 0x28c
 8003970:	69db      	ldr	r3, [r3, #28]
 8003972:	b103      	cbz	r3, 8003976 <USBD_LL_SOF+0x14>
 8003974:	4798      	blx	r3
 8003976:	2000      	movs	r0, #0
 8003978:	bd08      	pop	{r3, pc}

0800397a <USBD_LL_IsoINIncomplete>:
 800397a:	2000      	movs	r0, #0
 800397c:	4770      	bx	lr

0800397e <USBD_LL_IsoOUTIncomplete>:
 800397e:	2000      	movs	r0, #0
 8003980:	4770      	bx	lr

08003982 <USBD_LL_DevConnected>:
 8003982:	2000      	movs	r0, #0
 8003984:	4770      	bx	lr

08003986 <USBD_LL_DevDisconnected>:
 8003986:	2201      	movs	r2, #1
 8003988:	7901      	ldrb	r1, [r0, #4]
 800398a:	b508      	push	{r3, lr}
 800398c:	f880 2274 	strb.w	r2, [r0, #628]	; 0x274
 8003990:	f8d0 228c 	ldr.w	r2, [r0, #652]	; 0x28c
 8003994:	6852      	ldr	r2, [r2, #4]
 8003996:	4790      	blx	r2
 8003998:	2000      	movs	r0, #0
 800399a:	bd08      	pop	{r3, pc}

0800399c <USBD_CtlError.constprop.1>:
 800399c:	b510      	push	{r4, lr}
 800399e:	4604      	mov	r4, r0
 80039a0:	2180      	movs	r1, #128	; 0x80
 80039a2:	f007 fda7 	bl	800b4f4 <USBD_LL_StallEP>
 80039a6:	2100      	movs	r1, #0
 80039a8:	4620      	mov	r0, r4
 80039aa:	e8bd 4010 	ldmia.w	sp!, {r4, lr}
 80039ae:	f007 bda1 	b.w	800b4f4 <USBD_LL_StallEP>
	...

080039b4 <USBD_StdDevReq>:
 80039b4:	b537      	push	{r0, r1, r2, r4, r5, lr}
 80039b6:	780b      	ldrb	r3, [r1, #0]
 80039b8:	4604      	mov	r4, r0
 80039ba:	460d      	mov	r5, r1
 80039bc:	f003 0360 	and.w	r3, r3, #96	; 0x60
 80039c0:	2b20      	cmp	r3, #32
 80039c2:	d014      	beq.n	80039ee <USBD_StdDevReq+0x3a>
 80039c4:	2b40      	cmp	r3, #64	; 0x40
 80039c6:	d012      	beq.n	80039ee <USBD_StdDevReq+0x3a>
 80039c8:	2b00      	cmp	r3, #0
 80039ca:	f040 8095 	bne.w	8003af8 <USBD_StdDevReq+0x144>
 80039ce:	784b      	ldrb	r3, [r1, #1]
 80039d0:	2b09      	cmp	r3, #9
 80039d2:	f200 8090 	bhi.w	8003af6 <USBD_StdDevReq+0x142>
 80039d6:	e8df f013 	tbh	[pc, r3, lsl #1]
 80039da:	00e7      	.short	0x00e7
 80039dc:	008e0101 	.word	0x008e0101
 80039e0:	008e00fa 	.word	0x008e00fa
 80039e4:	00130082 	.word	0x00130082
 80039e8:	00d2008e 	.word	0x00d2008e
 80039ec:	00a0      	.short	0x00a0
 80039ee:	f8d4 328c 	ldr.w	r3, [r4, #652]	; 0x28c
 80039f2:	4629      	mov	r1, r5
 80039f4:	4620      	mov	r0, r4
 80039f6:	689b      	ldr	r3, [r3, #8]
 80039f8:	4798      	blx	r3
 80039fa:	2000      	movs	r0, #0
 80039fc:	b003      	add	sp, #12
 80039fe:	bd30      	pop	{r4, r5, pc}
 8003a00:	884b      	ldrh	r3, [r1, #2]
 8003a02:	0a1a      	lsrs	r2, r3, #8
 8003a04:	3a01      	subs	r2, #1
 8003a06:	2a0e      	cmp	r2, #14
 8003a08:	d875      	bhi.n	8003af6 <USBD_StdDevReq+0x142>
 8003a0a:	e8df f002 	tbb	[pc, r2]
 8003a0e:	2824      	.short	0x2824
 8003a10:	55747435 	.word	0x55747435
 8003a14:	7474745e 	.word	0x7474745e
 8003a18:	74747474 	.word	0x74747474
 8003a1c:	08          	.byte	0x08
 8003a1d:	00          	.byte	0x00
 8003a1e:	f8d0 3288 	ldr.w	r3, [r0, #648]	; 0x288
 8003a22:	69db      	ldr	r3, [r3, #28]
 8003a24:	f10d 0106 	add.w	r1, sp, #6
 8003a28:	7c20      	ldrb	r0, [r4, #16]
 8003a2a:	4798      	blx	r3
 8003a2c:	f8bd 2006 	ldrh.w	r2, [sp, #6]
 8003a30:	b152      	cbz	r2, 8003a48 <USBD_StdDevReq+0x94>
 8003a32:	88eb      	ldrh	r3, [r5, #6]
 8003a34:	b143      	cbz	r3, 8003a48 <USBD_StdDevReq+0x94>
 8003a36:	429a      	cmp	r2, r3
 8003a38:	4601      	mov	r1, r0
 8003a3a:	4620      	mov	r0, r4
 8003a3c:	bf28      	it	cs
 8003a3e:	461a      	movcs	r2, r3
 8003a40:	f8ad 2006 	strh.w	r2, [sp, #6]
 8003a44:	f000 f9c2 	bl	8003dcc <USBD_CtlSendData>
 8003a48:	88eb      	ldrh	r3, [r5, #6]
 8003a4a:	2b00      	cmp	r3, #0
 8003a4c:	d1d5      	bne.n	80039fa <USBD_StdDevReq+0x46>
 8003a4e:	4620      	mov	r0, r4
 8003a50:	f000 f9e8 	bl	8003e24 <USBD_CtlSendStatus>
 8003a54:	e7d1      	b.n	80039fa <USBD_StdDevReq+0x46>
 8003a56:	f8d0 3288 	ldr.w	r3, [r0, #648]	; 0x288
 8003a5a:	681b      	ldr	r3, [r3, #0]
 8003a5c:	e7e2      	b.n	8003a24 <USBD_StdDevReq+0x70>
 8003a5e:	7c02      	ldrb	r2, [r0, #16]
 8003a60:	f8d0 328c 	ldr.w	r3, [r0, #652]	; 0x28c
 8003a64:	b932      	cbnz	r2, 8003a74 <USBD_StdDevReq+0xc0>
 8003a66:	6a9b      	ldr	r3, [r3, #40]	; 0x28
 8003a68:	f10d 0006 	add.w	r0, sp, #6
 8003a6c:	4798      	blx	r3
 8003a6e:	2302      	movs	r3, #2
 8003a70:	7043      	strb	r3, [r0, #1]
 8003a72:	e7db      	b.n	8003a2c <USBD_StdDevReq+0x78>
 8003a74:	6adb      	ldr	r3, [r3, #44]	; 0x2c
 8003a76:	e7f7      	b.n	8003a68 <USBD_StdDevReq+0xb4>
 8003a78:	b2db      	uxtb	r3, r3
 8003a7a:	2b05      	cmp	r3, #5
 8003a7c:	d83b      	bhi.n	8003af6 <USBD_StdDevReq+0x142>
 8003a7e:	e8df f003 	tbb	[pc, r3]
 8003a82:	0703      	.short	0x0703
 8003a84:	17130f0b 	.word	0x17130f0b
 8003a88:	f8d0 3288 	ldr.w	r3, [r0, #648]	; 0x288
 8003a8c:	685b      	ldr	r3, [r3, #4]
 8003a8e:	e7c9      	b.n	8003a24 <USBD_StdDevReq+0x70>
 8003a90:	f8d0 3288 	ldr.w	r3, [r0, #648]	; 0x288
 8003a94:	689b      	ldr	r3, [r3, #8]
 8003a96:	e7c5      	b.n	8003a24 <USBD_StdDevReq+0x70>
 8003a98:	f8d0 3288 	ldr.w	r3, [r0, #648]	; 0x288
 8003a9c:	68db      	ldr	r3, [r3, #12]
 8003a9e:	e7c1      	b.n	8003a24 <USBD_StdDevReq+0x70>
 8003aa0:	f8d0 3288 	ldr.w	r3, [r0, #648]	; 0x288
 8003aa4:	691b      	ldr	r3, [r3, #16]
 8003aa6:	e7bd      	b.n	8003a24 <USBD_StdDevReq+0x70>
 8003aa8:	f8d0 3288 	ldr.w	r3, [r0, #648]	; 0x288
 8003aac:	695b      	ldr	r3, [r3, #20]
 8003aae:	e7b9      	b.n	8003a24 <USBD_StdDevReq+0x70>
 8003ab0:	f8d0 3288 	ldr.w	r3, [r0, #648]	; 0x288
 8003ab4:	699b      	ldr	r3, [r3, #24]
 8003ab6:	e7b5      	b.n	8003a24 <USBD_StdDevReq+0x70>
 8003ab8:	7c03      	ldrb	r3, [r0, #16]
 8003aba:	b9e3      	cbnz	r3, 8003af6 <USBD_StdDevReq+0x142>
 8003abc:	f8d0 328c 	ldr.w	r3, [r0, #652]	; 0x28c
 8003ac0:	f10d 0006 	add.w	r0, sp, #6
 8003ac4:	6b5b      	ldr	r3, [r3, #52]	; 0x34
 8003ac6:	4798      	blx	r3
 8003ac8:	e7b0      	b.n	8003a2c <USBD_StdDevReq+0x78>
 8003aca:	7c03      	ldrb	r3, [r0, #16]
 8003acc:	b99b      	cbnz	r3, 8003af6 <USBD_StdDevReq+0x142>
 8003ace:	f8d0 328c 	ldr.w	r3, [r0, #652]	; 0x28c
 8003ad2:	f10d 0006 	add.w	r0, sp, #6
 8003ad6:	6b1b      	ldr	r3, [r3, #48]	; 0x30
 8003ad8:	4798      	blx	r3
 8003ada:	2307      	movs	r3, #7
 8003adc:	e7c8      	b.n	8003a70 <USBD_StdDevReq+0xbc>
 8003ade:	888b      	ldrh	r3, [r1, #4]
 8003ae0:	b94b      	cbnz	r3, 8003af6 <USBD_StdDevReq+0x142>
 8003ae2:	88cb      	ldrh	r3, [r1, #6]
 8003ae4:	b93b      	cbnz	r3, 8003af6 <USBD_StdDevReq+0x142>
 8003ae6:	884d      	ldrh	r5, [r1, #2]
 8003ae8:	2d7f      	cmp	r5, #127	; 0x7f
 8003aea:	d804      	bhi.n	8003af6 <USBD_StdDevReq+0x142>
 8003aec:	f890 3274 	ldrb.w	r3, [r0, #628]	; 0x274
 8003af0:	b2e9      	uxtb	r1, r5
 8003af2:	2b03      	cmp	r3, #3
 8003af4:	d103      	bne.n	8003afe <USBD_StdDevReq+0x14a>
 8003af6:	4620      	mov	r0, r4
 8003af8:	f7ff ff50 	bl	800399c <USBD_CtlError.constprop.1>
 8003afc:	e77d      	b.n	80039fa <USBD_StdDevReq+0x46>
 8003afe:	f880 1276 	strb.w	r1, [r0, #630]	; 0x276
 8003b02:	f007 fd27 	bl	800b554 <USBD_LL_SetUSBAddress>
 8003b06:	4620      	mov	r0, r4
 8003b08:	f000 f98c 	bl	8003e24 <USBD_CtlSendStatus>
 8003b0c:	b11d      	cbz	r5, 8003b16 <USBD_StdDevReq+0x162>
 8003b0e:	2302      	movs	r3, #2
 8003b10:	f884 3274 	strb.w	r3, [r4, #628]	; 0x274
 8003b14:	e771      	b.n	80039fa <USBD_StdDevReq+0x46>
 8003b16:	2301      	movs	r3, #1
 8003b18:	e7fa      	b.n	8003b10 <USBD_StdDevReq+0x15c>
 8003b1a:	7889      	ldrb	r1, [r1, #2]
 8003b1c:	4d35      	ldr	r5, [pc, #212]	; (8003bf4 <USBD_StdDevReq+0x240>)
 8003b1e:	2901      	cmp	r1, #1
 8003b20:	7029      	strb	r1, [r5, #0]
 8003b22:	d8e8      	bhi.n	8003af6 <USBD_StdDevReq+0x142>
 8003b24:	f890 3274 	ldrb.w	r3, [r0, #628]	; 0x274
 8003b28:	2b02      	cmp	r3, #2
 8003b2a:	d008      	beq.n	8003b3e <USBD_StdDevReq+0x18a>
 8003b2c:	2b03      	cmp	r3, #3
 8003b2e:	d014      	beq.n	8003b5a <USBD_StdDevReq+0x1a6>
 8003b30:	f7ff ff34 	bl	800399c <USBD_CtlError.constprop.1>
 8003b34:	7829      	ldrb	r1, [r5, #0]
 8003b36:	4620      	mov	r0, r4
 8003b38:	f7ff fe13 	bl	8003762 <USBD_ClrClassConfig>
 8003b3c:	e75d      	b.n	80039fa <USBD_StdDevReq+0x46>
 8003b3e:	2900      	cmp	r1, #0
 8003b40:	d085      	beq.n	8003a4e <USBD_StdDevReq+0x9a>
 8003b42:	2101      	movs	r1, #1
 8003b44:	2303      	movs	r3, #3
 8003b46:	6041      	str	r1, [r0, #4]
 8003b48:	f880 3274 	strb.w	r3, [r0, #628]	; 0x274
 8003b4c:	4620      	mov	r0, r4
 8003b4e:	f7ff fdfd 	bl	800374c <USBD_SetClassConfig>
 8003b52:	2802      	cmp	r0, #2
 8003b54:	f47f af7b 	bne.w	8003a4e <USBD_StdDevReq+0x9a>
 8003b58:	e7cd      	b.n	8003af6 <USBD_StdDevReq+0x142>
 8003b5a:	b931      	cbnz	r1, 8003b6a <USBD_StdDevReq+0x1b6>
 8003b5c:	2302      	movs	r3, #2
 8003b5e:	6041      	str	r1, [r0, #4]
 8003b60:	f880 3274 	strb.w	r3, [r0, #628]	; 0x274
 8003b64:	f7ff fdfd 	bl	8003762 <USBD_ClrClassConfig>
 8003b68:	e771      	b.n	8003a4e <USBD_StdDevReq+0x9a>
 8003b6a:	6841      	ldr	r1, [r0, #4]
 8003b6c:	2901      	cmp	r1, #1
 8003b6e:	f43f af6e 	beq.w	8003a4e <USBD_StdDevReq+0x9a>
 8003b72:	b2c9      	uxtb	r1, r1
 8003b74:	f7ff fdf5 	bl	8003762 <USBD_ClrClassConfig>
 8003b78:	7829      	ldrb	r1, [r5, #0]
 8003b7a:	6061      	str	r1, [r4, #4]
 8003b7c:	e7e6      	b.n	8003b4c <USBD_StdDevReq+0x198>
 8003b7e:	88ca      	ldrh	r2, [r1, #6]
 8003b80:	2a01      	cmp	r2, #1
 8003b82:	d1b8      	bne.n	8003af6 <USBD_StdDevReq+0x142>
 8003b84:	f890 3274 	ldrb.w	r3, [r0, #628]	; 0x274
 8003b88:	2b00      	cmp	r3, #0
 8003b8a:	d0b4      	beq.n	8003af6 <USBD_StdDevReq+0x142>
 8003b8c:	2b02      	cmp	r3, #2
 8003b8e:	d903      	bls.n	8003b98 <USBD_StdDevReq+0x1e4>
 8003b90:	2b03      	cmp	r3, #3
 8003b92:	d1b0      	bne.n	8003af6 <USBD_StdDevReq+0x142>
 8003b94:	1d01      	adds	r1, r0, #4
 8003b96:	e003      	b.n	8003ba0 <USBD_StdDevReq+0x1ec>
 8003b98:	4601      	mov	r1, r0
 8003b9a:	2300      	movs	r3, #0
 8003b9c:	f841 3f08 	str.w	r3, [r1, #8]!
 8003ba0:	4620      	mov	r0, r4
 8003ba2:	f000 f913 	bl	8003dcc <USBD_CtlSendData>
 8003ba6:	e728      	b.n	80039fa <USBD_StdDevReq+0x46>
 8003ba8:	f890 3274 	ldrb.w	r3, [r0, #628]	; 0x274
 8003bac:	3b01      	subs	r3, #1
 8003bae:	2b02      	cmp	r3, #2
 8003bb0:	d8a1      	bhi.n	8003af6 <USBD_StdDevReq+0x142>
 8003bb2:	88cb      	ldrh	r3, [r1, #6]
 8003bb4:	2b02      	cmp	r3, #2
 8003bb6:	d19e      	bne.n	8003af6 <USBD_StdDevReq+0x142>
 8003bb8:	2301      	movs	r3, #1
 8003bba:	60c3      	str	r3, [r0, #12]
 8003bbc:	f8d0 327c 	ldr.w	r3, [r0, #636]	; 0x27c
 8003bc0:	b10b      	cbz	r3, 8003bc6 <USBD_StdDevReq+0x212>
 8003bc2:	2303      	movs	r3, #3
 8003bc4:	60c3      	str	r3, [r0, #12]
 8003bc6:	2202      	movs	r2, #2
 8003bc8:	f104 010c 	add.w	r1, r4, #12
 8003bcc:	e7e8      	b.n	8003ba0 <USBD_StdDevReq+0x1ec>
 8003bce:	884b      	ldrh	r3, [r1, #2]
 8003bd0:	2b01      	cmp	r3, #1
 8003bd2:	f47f af12 	bne.w	80039fa <USBD_StdDevReq+0x46>
 8003bd6:	f8c4 327c 	str.w	r3, [r4, #636]	; 0x27c
 8003bda:	e738      	b.n	8003a4e <USBD_StdDevReq+0x9a>
 8003bdc:	f890 3274 	ldrb.w	r3, [r0, #628]	; 0x274
 8003be0:	3b01      	subs	r3, #1
 8003be2:	2b02      	cmp	r3, #2
 8003be4:	d887      	bhi.n	8003af6 <USBD_StdDevReq+0x142>
 8003be6:	884b      	ldrh	r3, [r1, #2]
 8003be8:	2b01      	cmp	r3, #1
 8003bea:	f47f af06 	bne.w	80039fa <USBD_StdDevReq+0x46>
 8003bee:	2300      	movs	r3, #0
 8003bf0:	e7f1      	b.n	8003bd6 <USBD_StdDevReq+0x222>
 8003bf2:	bf00      	nop
 8003bf4:	200001f4 	.word	0x200001f4

08003bf8 <USBD_StdItfReq>:
 8003bf8:	b538      	push	{r3, r4, r5, lr}
 8003bfa:	780b      	ldrb	r3, [r1, #0]
 8003bfc:	4604      	mov	r4, r0
 8003bfe:	460d      	mov	r5, r1
 8003c00:	f003 0360 	and.w	r3, r3, #96	; 0x60
 8003c04:	2b20      	cmp	r3, #32
 8003c06:	d002      	beq.n	8003c0e <USBD_StdItfReq+0x16>
 8003c08:	2b40      	cmp	r3, #64	; 0x40
 8003c0a:	d000      	beq.n	8003c0e <USBD_StdItfReq+0x16>
 8003c0c:	b9b3      	cbnz	r3, 8003c3c <USBD_StdItfReq+0x44>
 8003c0e:	f894 3274 	ldrb.w	r3, [r4, #628]	; 0x274
 8003c12:	3b01      	subs	r3, #1
 8003c14:	2b02      	cmp	r3, #2
 8003c16:	d810      	bhi.n	8003c3a <USBD_StdItfReq+0x42>
 8003c18:	792b      	ldrb	r3, [r5, #4]
 8003c1a:	2b01      	cmp	r3, #1
 8003c1c:	d80d      	bhi.n	8003c3a <USBD_StdItfReq+0x42>
 8003c1e:	f8d4 328c 	ldr.w	r3, [r4, #652]	; 0x28c
 8003c22:	4629      	mov	r1, r5
 8003c24:	4620      	mov	r0, r4
 8003c26:	689b      	ldr	r3, [r3, #8]
 8003c28:	4798      	blx	r3
 8003c2a:	88eb      	ldrh	r3, [r5, #6]
 8003c2c:	b91b      	cbnz	r3, 8003c36 <USBD_StdItfReq+0x3e>
 8003c2e:	b910      	cbnz	r0, 8003c36 <USBD_StdItfReq+0x3e>
 8003c30:	4620      	mov	r0, r4
 8003c32:	f000 f8f7 	bl	8003e24 <USBD_CtlSendStatus>
 8003c36:	2000      	movs	r0, #0
 8003c38:	bd38      	pop	{r3, r4, r5, pc}
 8003c3a:	4620      	mov	r0, r4
 8003c3c:	f7ff feae 	bl	800399c <USBD_CtlError.constprop.1>
 8003c40:	e7f9      	b.n	8003c36 <USBD_StdItfReq+0x3e>

08003c42 <USBD_StdEPReq>:
 8003c42:	b538      	push	{r3, r4, r5, lr}
 8003c44:	780a      	ldrb	r2, [r1, #0]
 8003c46:	4604      	mov	r4, r0
 8003c48:	460b      	mov	r3, r1
 8003c4a:	f002 0260 	and.w	r2, r2, #96	; 0x60
 8003c4e:	2a20      	cmp	r2, #32
 8003c50:	d013      	beq.n	8003c7a <USBD_StdEPReq+0x38>
 8003c52:	2a40      	cmp	r2, #64	; 0x40
 8003c54:	d011      	beq.n	8003c7a <USBD_StdEPReq+0x38>
 8003c56:	b96a      	cbnz	r2, 8003c74 <USBD_StdEPReq+0x32>
 8003c58:	785d      	ldrb	r5, [r3, #1]
 8003c5a:	888a      	ldrh	r2, [r1, #4]
 8003c5c:	2d01      	cmp	r5, #1
 8003c5e:	b2d1      	uxtb	r1, r2
 8003c60:	d01f      	beq.n	8003ca2 <USBD_StdEPReq+0x60>
 8003c62:	d335      	bcc.n	8003cd0 <USBD_StdEPReq+0x8e>
 8003c64:	2d03      	cmp	r5, #3
 8003c66:	d105      	bne.n	8003c74 <USBD_StdEPReq+0x32>
 8003c68:	f890 2274 	ldrb.w	r2, [r0, #628]	; 0x274
 8003c6c:	2a02      	cmp	r2, #2
 8003c6e:	d026      	beq.n	8003cbe <USBD_StdEPReq+0x7c>
 8003c70:	2a03      	cmp	r2, #3
 8003c72:	d00a      	beq.n	8003c8a <USBD_StdEPReq+0x48>
 8003c74:	f7ff fe92 	bl	800399c <USBD_CtlError.constprop.1>
 8003c78:	e005      	b.n	8003c86 <USBD_StdEPReq+0x44>
 8003c7a:	f8d4 228c 	ldr.w	r2, [r4, #652]	; 0x28c
 8003c7e:	4619      	mov	r1, r3
 8003c80:	4620      	mov	r0, r4
 8003c82:	6892      	ldr	r2, [r2, #8]
 8003c84:	4790      	blx	r2
 8003c86:	2000      	movs	r0, #0
 8003c88:	bd38      	pop	{r3, r4, r5, pc}
 8003c8a:	885a      	ldrh	r2, [r3, #2]
 8003c8c:	b92a      	cbnz	r2, 8003c9a <USBD_StdEPReq+0x58>
 8003c8e:	064a      	lsls	r2, r1, #25
 8003c90:	d003      	beq.n	8003c9a <USBD_StdEPReq+0x58>
 8003c92:	88db      	ldrh	r3, [r3, #6]
 8003c94:	b90b      	cbnz	r3, 8003c9a <USBD_StdEPReq+0x58>
 8003c96:	f007 fc2d 	bl	800b4f4 <USBD_LL_StallEP>
 8003c9a:	4620      	mov	r0, r4
 8003c9c:	f000 f8c2 	bl	8003e24 <USBD_CtlSendStatus>
 8003ca0:	e7f1      	b.n	8003c86 <USBD_StdEPReq+0x44>
 8003ca2:	f890 2274 	ldrb.w	r2, [r0, #628]	; 0x274
 8003ca6:	2a02      	cmp	r2, #2
 8003ca8:	d009      	beq.n	8003cbe <USBD_StdEPReq+0x7c>
 8003caa:	2a03      	cmp	r2, #3
 8003cac:	d1e2      	bne.n	8003c74 <USBD_StdEPReq+0x32>
 8003cae:	885b      	ldrh	r3, [r3, #2]
 8003cb0:	2b00      	cmp	r3, #0
 8003cb2:	d1e8      	bne.n	8003c86 <USBD_StdEPReq+0x44>
 8003cb4:	064d      	lsls	r5, r1, #25
 8003cb6:	d0f0      	beq.n	8003c9a <USBD_StdEPReq+0x58>
 8003cb8:	f007 fc2a 	bl	800b510 <USBD_LL_ClearStallEP>
 8003cbc:	e7ed      	b.n	8003c9a <USBD_StdEPReq+0x58>
 8003cbe:	064b      	lsls	r3, r1, #25
 8003cc0:	d017      	beq.n	8003cf2 <USBD_StdEPReq+0xb0>
 8003cc2:	f007 fc17 	bl	800b4f4 <USBD_LL_StallEP>
 8003cc6:	2180      	movs	r1, #128	; 0x80
 8003cc8:	4620      	mov	r0, r4
 8003cca:	f007 fc13 	bl	800b4f4 <USBD_LL_StallEP>
 8003cce:	e7da      	b.n	8003c86 <USBD_StdEPReq+0x44>
 8003cd0:	f890 3274 	ldrb.w	r3, [r0, #628]	; 0x274
 8003cd4:	2b02      	cmp	r3, #2
 8003cd6:	d00e      	beq.n	8003cf6 <USBD_StdEPReq+0xb4>
 8003cd8:	2b03      	cmp	r3, #3
 8003cda:	d1cb      	bne.n	8003c74 <USBD_StdEPReq+0x32>
 8003cdc:	f012 0f80 	tst.w	r2, #128	; 0x80
 8003ce0:	f04f 0314 	mov.w	r3, #20
 8003ce4:	f001 020f 	and.w	r2, r1, #15
 8003ce8:	fb03 0202 	mla	r2, r3, r2, r0
 8003cec:	d014      	beq.n	8003d18 <USBD_StdEPReq+0xd6>
 8003cee:	6992      	ldr	r2, [r2, #24]
 8003cf0:	b9ea      	cbnz	r2, 8003d2e <USBD_StdEPReq+0xec>
 8003cf2:	4620      	mov	r0, r4
 8003cf4:	e7be      	b.n	8003c74 <USBD_StdEPReq+0x32>
 8003cf6:	0649      	lsls	r1, r1, #25
 8003cf8:	d1fb      	bne.n	8003cf2 <USBD_StdEPReq+0xb0>
 8003cfa:	0613      	lsls	r3, r2, #24
 8003cfc:	f04f 0300 	mov.w	r3, #0
 8003d00:	f04f 0202 	mov.w	r2, #2
 8003d04:	bf4c      	ite	mi
 8003d06:	f100 0114 	addmi.w	r1, r0, #20
 8003d0a:	f500 71a0 	addpl.w	r1, r0, #320	; 0x140
 8003d0e:	600b      	str	r3, [r1, #0]
 8003d10:	4620      	mov	r0, r4
 8003d12:	f000 f85b 	bl	8003dcc <USBD_CtlSendData>
 8003d16:	e7b6      	b.n	8003c86 <USBD_StdEPReq+0x44>
 8003d18:	f8d2 2144 	ldr.w	r2, [r2, #324]	; 0x144
 8003d1c:	2a00      	cmp	r2, #0
 8003d1e:	d0e8      	beq.n	8003cf2 <USBD_StdEPReq+0xb0>
 8003d20:	f001 057f 	and.w	r5, r1, #127	; 0x7f
 8003d24:	fb03 0505 	mla	r5, r3, r5, r0
 8003d28:	f505 75a0 	add.w	r5, r5, #320	; 0x140
 8003d2c:	e004      	b.n	8003d38 <USBD_StdEPReq+0xf6>
 8003d2e:	f001 057f 	and.w	r5, r1, #127	; 0x7f
 8003d32:	fb05 3503 	mla	r5, r5, r3, r3
 8003d36:	4405      	add	r5, r0
 8003d38:	f011 037f 	ands.w	r3, r1, #127	; 0x7f
 8003d3c:	d103      	bne.n	8003d46 <USBD_StdEPReq+0x104>
 8003d3e:	602b      	str	r3, [r5, #0]
 8003d40:	2202      	movs	r2, #2
 8003d42:	4629      	mov	r1, r5
 8003d44:	e7e4      	b.n	8003d10 <USBD_StdEPReq+0xce>
 8003d46:	4620      	mov	r0, r4
 8003d48:	f007 fbf0 	bl	800b52c <USBD_LL_IsStallEP>
 8003d4c:	b108      	cbz	r0, 8003d52 <USBD_StdEPReq+0x110>
 8003d4e:	2301      	movs	r3, #1
 8003d50:	e7f5      	b.n	8003d3e <USBD_StdEPReq+0xfc>
 8003d52:	6028      	str	r0, [r5, #0]
 8003d54:	e7f4      	b.n	8003d40 <USBD_StdEPReq+0xfe>

08003d56 <USBD_ParseSetupRequest>:
 8003d56:	780b      	ldrb	r3, [r1, #0]
 8003d58:	7003      	strb	r3, [r0, #0]
 8003d5a:	784b      	ldrb	r3, [r1, #1]
 8003d5c:	7043      	strb	r3, [r0, #1]
 8003d5e:	78ca      	ldrb	r2, [r1, #3]
 8003d60:	788b      	ldrb	r3, [r1, #2]
 8003d62:	eb03 2302 	add.w	r3, r3, r2, lsl #8
 8003d66:	8043      	strh	r3, [r0, #2]
 8003d68:	794a      	ldrb	r2, [r1, #5]
 8003d6a:	790b      	ldrb	r3, [r1, #4]
 8003d6c:	eb03 2302 	add.w	r3, r3, r2, lsl #8
 8003d70:	8083      	strh	r3, [r0, #4]
 8003d72:	79ca      	ldrb	r2, [r1, #7]
 8003d74:	798b      	ldrb	r3, [r1, #6]
 8003d76:	eb03 2302 	add.w	r3, r3, r2, lsl #8
 8003d7a:	80c3      	strh	r3, [r0, #6]
 8003d7c:	4770      	bx	lr

08003d7e <USBD_CtlError>:
 8003d7e:	b510      	push	{r4, lr}
 8003d80:	4604      	mov	r4, r0
 8003d82:	2180      	movs	r1, #128	; 0x80
 8003d84:	f007 fbb6 	bl	800b4f4 <USBD_LL_StallEP>
 8003d88:	2100      	movs	r1, #0
 8003d8a:	4620      	mov	r0, r4
 8003d8c:	e8bd 4010 	ldmia.w	sp!, {r4, lr}
 8003d90:	f007 bbb0 	b.w	800b4f4 <USBD_LL_StallEP>

08003d94 <USBD_GetString>:
 8003d94:	b530      	push	{r4, r5, lr}
 8003d96:	b188      	cbz	r0, 8003dbc <USBD_GetString+0x28>
 8003d98:	4605      	mov	r5, r0
 8003d9a:	1a2b      	subs	r3, r5, r0
 8003d9c:	f815 4b01 	ldrb.w	r4, [r5], #1
 8003da0:	b2db      	uxtb	r3, r3
 8003da2:	2c00      	cmp	r4, #0
 8003da4:	d1f9      	bne.n	8003d9a <USBD_GetString+0x6>
 8003da6:	3301      	adds	r3, #1
 8003da8:	3801      	subs	r0, #1
 8003daa:	005b      	lsls	r3, r3, #1
 8003dac:	8013      	strh	r3, [r2, #0]
 8003dae:	700b      	strb	r3, [r1, #0]
 8003db0:	2303      	movs	r3, #3
 8003db2:	704b      	strb	r3, [r1, #1]
 8003db4:	2302      	movs	r3, #2
 8003db6:	f810 5f01 	ldrb.w	r5, [r0, #1]!
 8003dba:	b905      	cbnz	r5, 8003dbe <USBD_GetString+0x2a>
 8003dbc:	bd30      	pop	{r4, r5, pc}
 8003dbe:	1c5a      	adds	r2, r3, #1
 8003dc0:	54cd      	strb	r5, [r1, r3]
 8003dc2:	3302      	adds	r3, #2
 8003dc4:	b2d2      	uxtb	r2, r2
 8003dc6:	b2db      	uxtb	r3, r3
 8003dc8:	548c      	strb	r4, [r1, r2]
 8003dca:	e7f4      	b.n	8003db6 <USBD_GetString+0x22>

08003dcc <USBD_CtlSendData>:
 8003dcc:	4613      	mov	r3, r2
 8003dce:	2202      	movs	r2, #2
 8003dd0:	b510      	push	{r4, lr}
 8003dd2:	f8c0 226c 	str.w	r2, [r0, #620]	; 0x26c
 8003dd6:	460a      	mov	r2, r1
 8003dd8:	61c3      	str	r3, [r0, #28]
 8003dda:	2100      	movs	r1, #0
 8003ddc:	6203      	str	r3, [r0, #32]
 8003dde:	f007 fbc7 	bl	800b570 <USBD_LL_Transmit>
 8003de2:	2000      	movs	r0, #0
 8003de4:	bd10      	pop	{r4, pc}

08003de6 <USBD_CtlContinueSendData>:
 8003de6:	b508      	push	{r3, lr}
 8003de8:	4613      	mov	r3, r2
 8003dea:	460a      	mov	r2, r1
 8003dec:	2100      	movs	r1, #0
 8003dee:	f007 fbbf 	bl	800b570 <USBD_LL_Transmit>
 8003df2:	2000      	movs	r0, #0
 8003df4:	bd08      	pop	{r3, pc}

08003df6 <USBD_CtlPrepareRx>:
 8003df6:	4613      	mov	r3, r2
 8003df8:	2203      	movs	r2, #3
 8003dfa:	b510      	push	{r4, lr}
 8003dfc:	f8c0 226c 	str.w	r2, [r0, #620]	; 0x26c
 8003e00:	460a      	mov	r2, r1
 8003e02:	f8c0 3148 	str.w	r3, [r0, #328]	; 0x148
 8003e06:	2100      	movs	r1, #0
 8003e08:	f8c0 314c 	str.w	r3, [r0, #332]	; 0x14c
 8003e0c:	f007 fbbe 	bl	800b58c <USBD_LL_PrepareReceive>
 8003e10:	2000      	movs	r0, #0
 8003e12:	bd10      	pop	{r4, pc}

08003e14 <USBD_CtlContinueRx>:
 8003e14:	b508      	push	{r3, lr}
 8003e16:	4613      	mov	r3, r2
 8003e18:	460a      	mov	r2, r1
 8003e1a:	2100      	movs	r1, #0
 8003e1c:	f007 fbb6 	bl	800b58c <USBD_LL_PrepareReceive>
 8003e20:	2000      	movs	r0, #0
 8003e22:	bd08      	pop	{r3, pc}

08003e24 <USBD_CtlSendStatus>:
 8003e24:	b508      	push	{r3, lr}
 8003e26:	2304      	movs	r3, #4
 8003e28:	f8c0 326c 	str.w	r3, [r0, #620]	; 0x26c
 8003e2c:	2300      	movs	r3, #0
 8003e2e:	461a      	mov	r2, r3
 8003e30:	4619      	mov	r1, r3
 8003e32:	f007 fb9d 	bl	800b570 <USBD_LL_Transmit>
 8003e36:	2000      	movs	r0, #0
 8003e38:	bd08      	pop	{r3, pc}

08003e3a <USBD_CtlReceiveStatus>:
 8003e3a:	b508      	push	{r3, lr}
 8003e3c:	2305      	movs	r3, #5
 8003e3e:	f8c0 326c 	str.w	r3, [r0, #620]	; 0x26c
 8003e42:	2300      	movs	r3, #0
 8003e44:	461a      	mov	r2, r3
 8003e46:	4619      	mov	r1, r3
 8003e48:	f007 fba0 	bl	800b58c <USBD_LL_PrepareReceive>
 8003e4c:	2000      	movs	r0, #0
 8003e4e:	bd08      	pop	{r3, pc}

08003e50 <osKernelStart>:
 8003e50:	b508      	push	{r3, lr}
 8003e52:	f001 f8ad 	bl	8004fb0 <vTaskStartScheduler>
 8003e56:	2000      	movs	r0, #0
 8003e58:	bd08      	pop	{r3, pc}

08003e5a <osKernelSysTick>:
 8003e5a:	f3ef 8305 	mrs	r3, IPSR
 8003e5e:	b10b      	cbz	r3, 8003e64 <osKernelSysTick+0xa>
 8003e60:	f001 b8f4 	b.w	800504c <xTaskGetTickCountFromISR>
 8003e64:	f001 b8ec 	b.w	8005040 <xTaskGetTickCount>

08003e68 <osThreadCreate>:
 8003e68:	b530      	push	{r4, r5, lr}
 8003e6a:	f9b0 4008 	ldrsh.w	r4, [r0, #8]
 8003e6e:	b085      	sub	sp, #20
 8003e70:	8a02      	ldrh	r2, [r0, #16]
 8003e72:	460b      	mov	r3, r1
 8003e74:	2c84      	cmp	r4, #132	; 0x84
 8003e76:	e890 0022 	ldmia.w	r0, {r1, r5}
 8003e7a:	bf14      	ite	ne
 8003e7c:	3403      	addne	r4, #3
 8003e7e:	2400      	moveq	r4, #0
 8003e80:	a803      	add	r0, sp, #12
 8003e82:	9400      	str	r4, [sp, #0]
 8003e84:	9001      	str	r0, [sp, #4]
 8003e86:	4628      	mov	r0, r5
 8003e88:	f000 ffc2 	bl	8004e10 <xTaskCreate>
 8003e8c:	2801      	cmp	r0, #1
 8003e8e:	bf0c      	ite	eq
 8003e90:	9803      	ldreq	r0, [sp, #12]
 8003e92:	2000      	movne	r0, #0
 8003e94:	b005      	add	sp, #20
 8003e96:	bd30      	pop	{r4, r5, pc}

08003e98 <osDelay>:
 8003e98:	2800      	cmp	r0, #0
 8003e9a:	bf08      	it	eq
 8003e9c:	2001      	moveq	r0, #1
 8003e9e:	b508      	push	{r3, lr}
 8003ea0:	f001 f9ea 	bl	8005278 <vTaskDelay>
 8003ea4:	2000      	movs	r0, #0
 8003ea6:	bd08      	pop	{r3, pc}

08003ea8 <osMutexCreate>:
 8003ea8:	2001      	movs	r0, #1
 8003eaa:	f000 bd53 	b.w	8004954 <xQueueCreateMutex>
	...

08003eb0 <osMutexWait>:
 8003eb0:	b513      	push	{r0, r1, r4, lr}
 8003eb2:	2400      	movs	r4, #0
 8003eb4:	460a      	mov	r2, r1
 8003eb6:	9401      	str	r4, [sp, #4]
 8003eb8:	b1e8      	cbz	r0, 8003ef6 <osMutexWait+0x46>
 8003eba:	f3ef 8305 	mrs	r3, IPSR
 8003ebe:	b1a3      	cbz	r3, 8003eea <osMutexWait+0x3a>
 8003ec0:	aa01      	add	r2, sp, #4
 8003ec2:	4621      	mov	r1, r4
 8003ec4:	f000 feea 	bl	8004c9c <xQueueReceiveFromISR>
 8003ec8:	2801      	cmp	r0, #1
 8003eca:	d002      	beq.n	8003ed2 <osMutexWait+0x22>
 8003ecc:	20ff      	movs	r0, #255	; 0xff
 8003ece:	b002      	add	sp, #8
 8003ed0:	bd10      	pop	{r4, pc}
 8003ed2:	9b01      	ldr	r3, [sp, #4]
 8003ed4:	b13b      	cbz	r3, 8003ee6 <osMutexWait+0x36>
 8003ed6:	f04f 5280 	mov.w	r2, #268435456	; 0x10000000
 8003eda:	4b08      	ldr	r3, [pc, #32]	; (8003efc <osMutexWait+0x4c>)
 8003edc:	601a      	str	r2, [r3, #0]
 8003ede:	f3bf 8f4f 	dsb	sy
 8003ee2:	f3bf 8f6f 	isb	sy
 8003ee6:	2000      	movs	r0, #0
 8003ee8:	e7f1      	b.n	8003ece <osMutexWait+0x1e>
 8003eea:	4619      	mov	r1, r3
 8003eec:	f000 fe0c 	bl	8004b08 <xQueueGenericReceive>
 8003ef0:	2801      	cmp	r0, #1
 8003ef2:	d1eb      	bne.n	8003ecc <osMutexWait+0x1c>
 8003ef4:	e7f7      	b.n	8003ee6 <osMutexWait+0x36>
 8003ef6:	2080      	movs	r0, #128	; 0x80
 8003ef8:	e7e9      	b.n	8003ece <osMutexWait+0x1e>
 8003efa:	bf00      	nop
 8003efc:	e000ed04 	.word	0xe000ed04

08003f00 <osSemaphoreCreate>:
 8003f00:	2901      	cmp	r1, #1
 8003f02:	4608      	mov	r0, r1
 8003f04:	b510      	push	{r4, lr}
 8003f06:	d10c      	bne.n	8003f22 <osSemaphoreCreate+0x22>
 8003f08:	2203      	movs	r2, #3
 8003f0a:	2100      	movs	r1, #0
 8003f0c:	f000 fc40 	bl	8004790 <xQueueGenericCreate>
 8003f10:	4604      	mov	r4, r0
 8003f12:	b120      	cbz	r0, 8003f1e <osSemaphoreCreate+0x1e>
 8003f14:	2300      	movs	r3, #0
 8003f16:	461a      	mov	r2, r3
 8003f18:	4619      	mov	r1, r3
 8003f1a:	f000 fc5d 	bl	80047d8 <xQueueGenericSend>
 8003f1e:	4620      	mov	r0, r4
 8003f20:	bd10      	pop	{r4, pc}
 8003f22:	2400      	movs	r4, #0
 8003f24:	e7fb      	b.n	8003f1e <osSemaphoreCreate+0x1e>
	...

08003f28 <osSemaphoreWait>:
 8003f28:	b513      	push	{r0, r1, r4, lr}
 8003f2a:	2400      	movs	r4, #0
 8003f2c:	460a      	mov	r2, r1
 8003f2e:	9401      	str	r4, [sp, #4]
 8003f30:	b1e8      	cbz	r0, 8003f6e <osSemaphoreWait+0x46>
 8003f32:	f3ef 8305 	mrs	r3, IPSR
 8003f36:	b1a3      	cbz	r3, 8003f62 <osSemaphoreWait+0x3a>
 8003f38:	aa01      	add	r2, sp, #4
 8003f3a:	4621      	mov	r1, r4
 8003f3c:	f000 feae 	bl	8004c9c <xQueueReceiveFromISR>
 8003f40:	2801      	cmp	r0, #1
 8003f42:	d002      	beq.n	8003f4a <osSemaphoreWait+0x22>
 8003f44:	20ff      	movs	r0, #255	; 0xff
 8003f46:	b002      	add	sp, #8
 8003f48:	bd10      	pop	{r4, pc}
 8003f4a:	9b01      	ldr	r3, [sp, #4]
 8003f4c:	b13b      	cbz	r3, 8003f5e <osSemaphoreWait+0x36>
 8003f4e:	f04f 5280 	mov.w	r2, #268435456	; 0x10000000
 8003f52:	4b08      	ldr	r3, [pc, #32]	; (8003f74 <osSemaphoreWait+0x4c>)
 8003f54:	601a      	str	r2, [r3, #0]
 8003f56:	f3bf 8f4f 	dsb	sy
 8003f5a:	f3bf 8f6f 	isb	sy
 8003f5e:	2000      	movs	r0, #0
 8003f60:	e7f1      	b.n	8003f46 <osSemaphoreWait+0x1e>
 8003f62:	4619      	mov	r1, r3
 8003f64:	f000 fdd0 	bl	8004b08 <xQueueGenericReceive>
 8003f68:	2801      	cmp	r0, #1
 8003f6a:	d1eb      	bne.n	8003f44 <osSemaphoreWait+0x1c>
 8003f6c:	e7f7      	b.n	8003f5e <osSemaphoreWait+0x36>
 8003f6e:	2080      	movs	r0, #128	; 0x80
 8003f70:	e7e9      	b.n	8003f46 <osSemaphoreWait+0x1e>
 8003f72:	bf00      	nop
 8003f74:	e000ed04 	.word	0xe000ed04

08003f78 <osSemaphoreRelease>:
 8003f78:	b513      	push	{r0, r1, r4, lr}
 8003f7a:	2400      	movs	r4, #0
 8003f7c:	9401      	str	r4, [sp, #4]
 8003f7e:	f3ef 8305 	mrs	r3, IPSR
 8003f82:	b193      	cbz	r3, 8003faa <osSemaphoreRelease+0x32>
 8003f84:	a901      	add	r1, sp, #4
 8003f86:	f000 fd61 	bl	8004a4c <xQueueGiveFromISR>
 8003f8a:	2801      	cmp	r0, #1
 8003f8c:	d113      	bne.n	8003fb6 <osSemaphoreRelease+0x3e>
 8003f8e:	9b01      	ldr	r3, [sp, #4]
 8003f90:	b913      	cbnz	r3, 8003f98 <osSemaphoreRelease+0x20>
 8003f92:	2000      	movs	r0, #0
 8003f94:	b002      	add	sp, #8
 8003f96:	bd10      	pop	{r4, pc}
 8003f98:	f04f 5280 	mov.w	r2, #268435456	; 0x10000000
 8003f9c:	4b07      	ldr	r3, [pc, #28]	; (8003fbc <osSemaphoreRelease+0x44>)
 8003f9e:	601a      	str	r2, [r3, #0]
 8003fa0:	f3bf 8f4f 	dsb	sy
 8003fa4:	f3bf 8f6f 	isb	sy
 8003fa8:	e7f3      	b.n	8003f92 <osSemaphoreRelease+0x1a>
 8003faa:	461a      	mov	r2, r3
 8003fac:	4619      	mov	r1, r3
 8003fae:	f000 fc13 	bl	80047d8 <xQueueGenericSend>
 8003fb2:	2801      	cmp	r0, #1
 8003fb4:	d0ed      	beq.n	8003f92 <osSemaphoreRelease+0x1a>
 8003fb6:	20ff      	movs	r0, #255	; 0xff
 8003fb8:	e7ec      	b.n	8003f94 <osSemaphoreRelease+0x1c>
 8003fba:	bf00      	nop
 8003fbc:	e000ed04 	.word	0xe000ed04

08003fc0 <osMutexRelease>:
 8003fc0:	f7ff bfda 	b.w	8003f78 <osSemaphoreRelease>

08003fc4 <osMessageCreate>:
 8003fc4:	2200      	movs	r2, #0
 8003fc6:	c803      	ldmia	r0, {r0, r1}
 8003fc8:	f000 bbe2 	b.w	8004790 <xQueueGenericCreate>

08003fcc <osMessagePut>:
 8003fcc:	b51f      	push	{r0, r1, r2, r3, r4, lr}
 8003fce:	2400      	movs	r4, #0
 8003fd0:	9101      	str	r1, [sp, #4]
 8003fd2:	9403      	str	r4, [sp, #12]
 8003fd4:	42a2      	cmp	r2, r4
 8003fd6:	bf08      	it	eq
 8003fd8:	2201      	moveq	r2, #1
 8003fda:	f3ef 8305 	mrs	r3, IPSR
 8003fde:	b1ab      	cbz	r3, 800400c <osMessagePut+0x40>
 8003fe0:	4623      	mov	r3, r4
 8003fe2:	aa03      	add	r2, sp, #12
 8003fe4:	a901      	add	r1, sp, #4
 8003fe6:	f000 fcc7 	bl	8004978 <xQueueGenericSendFromISR>
 8003fea:	2801      	cmp	r0, #1
 8003fec:	d002      	beq.n	8003ff4 <osMessagePut+0x28>
 8003fee:	20ff      	movs	r0, #255	; 0xff
 8003ff0:	b004      	add	sp, #16
 8003ff2:	bd10      	pop	{r4, pc}
 8003ff4:	9b03      	ldr	r3, [sp, #12]
 8003ff6:	b13b      	cbz	r3, 8004008 <osMessagePut+0x3c>
 8003ff8:	f04f 5280 	mov.w	r2, #268435456	; 0x10000000
 8003ffc:	4b06      	ldr	r3, [pc, #24]	; (8004018 <osMessagePut+0x4c>)
 8003ffe:	601a      	str	r2, [r3, #0]
 8004000:	f3bf 8f4f 	dsb	sy
 8004004:	f3bf 8f6f 	isb	sy
 8004008:	2000      	movs	r0, #0
 800400a:	e7f1      	b.n	8003ff0 <osMessagePut+0x24>
 800400c:	a901      	add	r1, sp, #4
 800400e:	f000 fbe3 	bl	80047d8 <xQueueGenericSend>
 8004012:	2801      	cmp	r0, #1
 8004014:	d1eb      	bne.n	8003fee <osMessagePut+0x22>
 8004016:	e7f7      	b.n	8004008 <osMessagePut+0x3c>
 8004018:	e000ed04 	.word	0xe000ed04

0800401c <osMessageGet>:
 800401c:	b5f0      	push	{r4, r5, r6, r7, lr}
 800401e:	2600      	movs	r6, #0
 8004020:	b085      	sub	sp, #20
 8004022:	4604      	mov	r4, r0
 8004024:	4617      	mov	r7, r2
 8004026:	4608      	mov	r0, r1
 8004028:	9103      	str	r1, [sp, #12]
 800402a:	9602      	str	r6, [sp, #8]
 800402c:	ad01      	add	r5, sp, #4
 800402e:	b911      	cbnz	r1, 8004036 <osMessageGet+0x1a>
 8004030:	2380      	movs	r3, #128	; 0x80
 8004032:	9301      	str	r3, [sp, #4]
 8004034:	e016      	b.n	8004064 <osMessageGet+0x48>
 8004036:	9600      	str	r6, [sp, #0]
 8004038:	f3ef 8305 	mrs	r3, IPSR
 800403c:	b1cb      	cbz	r3, 8004072 <osMessageGet+0x56>
 800403e:	466a      	mov	r2, sp
 8004040:	a902      	add	r1, sp, #8
 8004042:	f000 fe2b 	bl	8004c9c <xQueueReceiveFromISR>
 8004046:	2801      	cmp	r0, #1
 8004048:	bf0a      	itet	eq
 800404a:	2310      	moveq	r3, #16
 800404c:	9601      	strne	r6, [sp, #4]
 800404e:	9301      	streq	r3, [sp, #4]
 8004050:	9b00      	ldr	r3, [sp, #0]
 8004052:	b13b      	cbz	r3, 8004064 <osMessageGet+0x48>
 8004054:	f04f 5280 	mov.w	r2, #268435456	; 0x10000000
 8004058:	4b0c      	ldr	r3, [pc, #48]	; (800408c <osMessageGet+0x70>)
 800405a:	601a      	str	r2, [r3, #0]
 800405c:	f3bf 8f4f 	dsb	sy
 8004060:	f3bf 8f6f 	isb	sy
 8004064:	e895 0007 	ldmia.w	r5, {r0, r1, r2}
 8004068:	e884 0007 	stmia.w	r4, {r0, r1, r2}
 800406c:	4620      	mov	r0, r4
 800406e:	b005      	add	sp, #20
 8004070:	bdf0      	pop	{r4, r5, r6, r7, pc}
 8004072:	a902      	add	r1, sp, #8
 8004074:	f000 fd48 	bl	8004b08 <xQueueGenericReceive>
 8004078:	2801      	cmp	r0, #1
 800407a:	d101      	bne.n	8004080 <osMessageGet+0x64>
 800407c:	2310      	movs	r3, #16
 800407e:	e7d8      	b.n	8004032 <osMessageGet+0x16>
 8004080:	2f00      	cmp	r7, #0
 8004082:	bf0c      	ite	eq
 8004084:	2300      	moveq	r3, #0
 8004086:	2340      	movne	r3, #64	; 0x40
 8004088:	e7d3      	b.n	8004032 <osMessageGet+0x16>
 800408a:	bf00      	nop
 800408c:	e000ed04 	.word	0xe000ed04

08004090 <osSystickHandler>:
 8004090:	b508      	push	{r3, lr}
 8004092:	f001 fa41 	bl	8005518 <xTaskGetSchedulerState>
 8004096:	2801      	cmp	r0, #1
 8004098:	d003      	beq.n	80040a2 <osSystickHandler+0x12>
 800409a:	e8bd 4008 	ldmia.w	sp!, {r3, lr}
 800409e:	f000 b911 	b.w	80042c4 <xPortSysTickHandler>
 80040a2:	bd08      	pop	{r3, pc}

080040a4 <vListInitialise>:
 80040a4:	f100 0308 	add.w	r3, r0, #8
 80040a8:	f04f 32ff 	mov.w	r2, #4294967295
 80040ac:	6043      	str	r3, [r0, #4]
 80040ae:	60c3      	str	r3, [r0, #12]
 80040b0:	6103      	str	r3, [r0, #16]
 80040b2:	2300      	movs	r3, #0
 80040b4:	6082      	str	r2, [r0, #8]
 80040b6:	6003      	str	r3, [r0, #0]
 80040b8:	4770      	bx	lr

080040ba <vListInitialiseItem>:
 80040ba:	2300      	movs	r3, #0
 80040bc:	6103      	str	r3, [r0, #16]
 80040be:	4770      	bx	lr

080040c0 <vListInsertEnd>:
 80040c0:	6843      	ldr	r3, [r0, #4]
 80040c2:	689a      	ldr	r2, [r3, #8]
 80040c4:	604b      	str	r3, [r1, #4]
 80040c6:	608a      	str	r2, [r1, #8]
 80040c8:	689a      	ldr	r2, [r3, #8]
 80040ca:	6051      	str	r1, [r2, #4]
 80040cc:	6099      	str	r1, [r3, #8]
 80040ce:	6803      	ldr	r3, [r0, #0]
 80040d0:	6108      	str	r0, [r1, #16]
 80040d2:	3301      	adds	r3, #1
 80040d4:	6003      	str	r3, [r0, #0]
 80040d6:	4770      	bx	lr

080040d8 <vListInsert>:
 80040d8:	680a      	ldr	r2, [r1, #0]
 80040da:	1c53      	adds	r3, r2, #1
 80040dc:	b530      	push	{r4, r5, lr}
 80040de:	d10a      	bne.n	80040f6 <vListInsert+0x1e>
 80040e0:	6903      	ldr	r3, [r0, #16]
 80040e2:	685a      	ldr	r2, [r3, #4]
 80040e4:	604a      	str	r2, [r1, #4]
 80040e6:	6091      	str	r1, [r2, #8]
 80040e8:	608b      	str	r3, [r1, #8]
 80040ea:	6059      	str	r1, [r3, #4]
 80040ec:	6803      	ldr	r3, [r0, #0]
 80040ee:	6108      	str	r0, [r1, #16]
 80040f0:	3301      	adds	r3, #1
 80040f2:	6003      	str	r3, [r0, #0]
 80040f4:	bd30      	pop	{r4, r5, pc}
 80040f6:	f100 0308 	add.w	r3, r0, #8
 80040fa:	685c      	ldr	r4, [r3, #4]
 80040fc:	6825      	ldr	r5, [r4, #0]
 80040fe:	42aa      	cmp	r2, r5
 8004100:	d3ef      	bcc.n	80040e2 <vListInsert+0xa>
 8004102:	4623      	mov	r3, r4
 8004104:	e7f9      	b.n	80040fa <vListInsert+0x22>

08004106 <uxListRemove>:
 8004106:	6841      	ldr	r1, [r0, #4]
 8004108:	6882      	ldr	r2, [r0, #8]
 800410a:	6903      	ldr	r3, [r0, #16]
 800410c:	608a      	str	r2, [r1, #8]
 800410e:	6882      	ldr	r2, [r0, #8]
 8004110:	6051      	str	r1, [r2, #4]
 8004112:	6859      	ldr	r1, [r3, #4]
 8004114:	4288      	cmp	r0, r1
 8004116:	bf08      	it	eq
 8004118:	605a      	streq	r2, [r3, #4]
 800411a:	2200      	movs	r2, #0
 800411c:	6102      	str	r2, [r0, #16]
 800411e:	6818      	ldr	r0, [r3, #0]
 8004120:	3801      	subs	r0, #1
 8004122:	6018      	str	r0, [r3, #0]
 8004124:	4770      	bx	lr
	...

08004128 <prvTaskExitError>:
 8004128:	4b0c      	ldr	r3, [pc, #48]	; (800415c <prvTaskExitError+0x34>)
 800412a:	681b      	ldr	r3, [r3, #0]
 800412c:	3301      	adds	r3, #1
 800412e:	d00a      	beq.n	8004146 <prvTaskExitError+0x1e>
 8004130:	f04f 0350 	mov.w	r3, #80	; 0x50
 8004134:	b672      	cpsid	i
 8004136:	f383 8811 	msr	BASEPRI, r3
 800413a:	f3bf 8f6f 	isb	sy
 800413e:	f3bf 8f4f 	dsb	sy
 8004142:	b662      	cpsie	i
 8004144:	e7fe      	b.n	8004144 <prvTaskExitError+0x1c>
 8004146:	f04f 0350 	mov.w	r3, #80	; 0x50
 800414a:	b672      	cpsid	i
 800414c:	f383 8811 	msr	BASEPRI, r3
 8004150:	f3bf 8f6f 	isb	sy
 8004154:	f3bf 8f4f 	dsb	sy
 8004158:	b662      	cpsie	i
 800415a:	e7fe      	b.n	800415a <prvTaskExitError+0x32>
 800415c:	20000114 	.word	0x20000114

08004160 <prvPortStartFirstTask>:
 8004160:	4806      	ldr	r0, [pc, #24]	; (800417c <prvPortStartFirstTask+0x1c>)
 8004162:	6800      	ldr	r0, [r0, #0]
 8004164:	6800      	ldr	r0, [r0, #0]
 8004166:	f380 8808 	msr	MSP, r0
 800416a:	b662      	cpsie	i
 800416c:	b661      	cpsie	f
 800416e:	f3bf 8f4f 	dsb	sy
 8004172:	f3bf 8f6f 	isb	sy
 8004176:	df00      	svc	0
 8004178:	bf00      	nop
 800417a:	0000      	.short	0x0000
 800417c:	e000ed08 	.word	0xe000ed08

08004180 <vPortEnableVFP>:
 8004180:	f8df 000c 	ldr.w	r0, [pc, #12]	; 8004190 <vPortEnableVFP+0x10>
 8004184:	6801      	ldr	r1, [r0, #0]
 8004186:	f441 0170 	orr.w	r1, r1, #15728640	; 0xf00000
 800418a:	6001      	str	r1, [r0, #0]
 800418c:	4770      	bx	lr
 800418e:	0000      	.short	0x0000
 8004190:	e000ed88 	.word	0xe000ed88

08004194 <pxPortInitialiseStack>:
 8004194:	f04f 7380 	mov.w	r3, #16777216	; 0x1000000
 8004198:	f021 0101 	bic.w	r1, r1, #1
 800419c:	f840 2c20 	str.w	r2, [r0, #-32]
 80041a0:	3844      	subs	r0, #68	; 0x44
 80041a2:	6403      	str	r3, [r0, #64]	; 0x40
 80041a4:	4b03      	ldr	r3, [pc, #12]	; (80041b4 <pxPortInitialiseStack+0x20>)
 80041a6:	63c1      	str	r1, [r0, #60]	; 0x3c
 80041a8:	6383      	str	r3, [r0, #56]	; 0x38
 80041aa:	f06f 0302 	mvn.w	r3, #2
 80041ae:	6203      	str	r3, [r0, #32]
 80041b0:	4770      	bx	lr
 80041b2:	bf00      	nop
 80041b4:	08004129 	.word	0x08004129
	...

080041c0 <SVC_Handler>:
 80041c0:	4b07      	ldr	r3, [pc, #28]	; (80041e0 <pxCurrentTCBConst2>)
 80041c2:	6819      	ldr	r1, [r3, #0]
 80041c4:	6808      	ldr	r0, [r1, #0]
 80041c6:	e8b0 4ff0 	ldmia.w	r0!, {r4, r5, r6, r7, r8, r9, sl, fp, lr}
 80041ca:	f380 8809 	msr	PSP, r0
 80041ce:	f3bf 8f6f 	isb	sy
 80041d2:	f04f 0000 	mov.w	r0, #0
 80041d6:	f380 8811 	msr	BASEPRI, r0
 80041da:	4770      	bx	lr
 80041dc:	f3af 8000 	nop.w

080041e0 <pxCurrentTCBConst2>:
 80041e0:	20003e14 	.word	0x20003e14

080041e4 <vPortEnterCritical>:
 80041e4:	f04f 0350 	mov.w	r3, #80	; 0x50
 80041e8:	b672      	cpsid	i
 80041ea:	f383 8811 	msr	BASEPRI, r3
 80041ee:	f3bf 8f6f 	isb	sy
 80041f2:	f3bf 8f4f 	dsb	sy
 80041f6:	b662      	cpsie	i
 80041f8:	4a0b      	ldr	r2, [pc, #44]	; (8004228 <vPortEnterCritical+0x44>)
 80041fa:	6813      	ldr	r3, [r2, #0]
 80041fc:	3301      	adds	r3, #1
 80041fe:	2b01      	cmp	r3, #1
 8004200:	6013      	str	r3, [r2, #0]
 8004202:	d10f      	bne.n	8004224 <vPortEnterCritical+0x40>
 8004204:	4b09      	ldr	r3, [pc, #36]	; (800422c <vPortEnterCritical+0x48>)
 8004206:	681b      	ldr	r3, [r3, #0]
 8004208:	f013 0fff 	tst.w	r3, #255	; 0xff
 800420c:	d00a      	beq.n	8004224 <vPortEnterCritical+0x40>
 800420e:	f04f 0350 	mov.w	r3, #80	; 0x50
 8004212:	b672      	cpsid	i
 8004214:	f383 8811 	msr	BASEPRI, r3
 8004218:	f3bf 8f6f 	isb	sy
 800421c:	f3bf 8f4f 	dsb	sy
 8004220:	b662      	cpsie	i
 8004222:	e7fe      	b.n	8004222 <vPortEnterCritical+0x3e>
 8004224:	4770      	bx	lr
 8004226:	bf00      	nop
 8004228:	20000114 	.word	0x20000114
 800422c:	e000ed04 	.word	0xe000ed04

08004230 <vPortExitCritical>:
 8004230:	4a09      	ldr	r2, [pc, #36]	; (8004258 <vPortExitCritical+0x28>)
 8004232:	6813      	ldr	r3, [r2, #0]
 8004234:	b953      	cbnz	r3, 800424c <vPortExitCritical+0x1c>
 8004236:	f04f 0350 	mov.w	r3, #80	; 0x50
 800423a:	b672      	cpsid	i
 800423c:	f383 8811 	msr	BASEPRI, r3
 8004240:	f3bf 8f6f 	isb	sy
 8004244:	f3bf 8f4f 	dsb	sy
 8004248:	b662      	cpsie	i
 800424a:	e7fe      	b.n	800424a <vPortExitCritical+0x1a>
 800424c:	3b01      	subs	r3, #1
 800424e:	6013      	str	r3, [r2, #0]
 8004250:	b90b      	cbnz	r3, 8004256 <vPortExitCritical+0x26>
 8004252:	f383 8811 	msr	BASEPRI, r3
 8004256:	4770      	bx	lr
 8004258:	20000114 	.word	0x20000114
 800425c:	00000000 	.word	0x00000000

08004260 <PendSV_Handler>:
 8004260:	f3ef 8009 	mrs	r0, PSP
 8004264:	f3bf 8f6f 	isb	sy
 8004268:	4b15      	ldr	r3, [pc, #84]	; (80042c0 <pxCurrentTCBConst>)
 800426a:	681a      	ldr	r2, [r3, #0]
 800426c:	f01e 0f10 	tst.w	lr, #16
 8004270:	bf08      	it	eq
 8004272:	ed20 8a10 	vstmdbeq	r0!, {s16-s31}
 8004276:	e920 4ff0 	stmdb	r0!, {r4, r5, r6, r7, r8, r9, sl, fp, lr}
 800427a:	6010      	str	r0, [r2, #0]
 800427c:	f84d 3d04 	str.w	r3, [sp, #-4]!
 8004280:	f04f 0050 	mov.w	r0, #80	; 0x50
 8004284:	b672      	cpsid	i
 8004286:	f380 8811 	msr	BASEPRI, r0
 800428a:	f3bf 8f4f 	dsb	sy
 800428e:	f3bf 8f6f 	isb	sy
 8004292:	b662      	cpsie	i
 8004294:	f001 f850 	bl	8005338 <vTaskSwitchContext>
 8004298:	f04f 0000 	mov.w	r0, #0
 800429c:	f380 8811 	msr	BASEPRI, r0
 80042a0:	bc08      	pop	{r3}
 80042a2:	6819      	ldr	r1, [r3, #0]
 80042a4:	6808      	ldr	r0, [r1, #0]
 80042a6:	e8b0 4ff0 	ldmia.w	r0!, {r4, r5, r6, r7, r8, r9, sl, fp, lr}
 80042aa:	f01e 0f10 	tst.w	lr, #16
 80042ae:	bf08      	it	eq
 80042b0:	ecb0 8a10 	vldmiaeq	r0!, {s16-s31}
 80042b4:	f380 8809 	msr	PSP, r0
 80042b8:	f3bf 8f6f 	isb	sy
 80042bc:	4770      	bx	lr
 80042be:	bf00      	nop

080042c0 <pxCurrentTCBConst>:
 80042c0:	20003e14 	.word	0x20003e14

080042c4 <xPortSysTickHandler>:
 80042c4:	b508      	push	{r3, lr}
 80042c6:	f04f 0350 	mov.w	r3, #80	; 0x50
 80042ca:	b672      	cpsid	i
 80042cc:	f383 8811 	msr	BASEPRI, r3
 80042d0:	f3bf 8f6f 	isb	sy
 80042d4:	f3bf 8f4f 	dsb	sy
 80042d8:	b662      	cpsie	i
 80042da:	f000 febf 	bl	800505c <xTaskIncrementTick>
 80042de:	b118      	cbz	r0, 80042e8 <xPortSysTickHandler+0x24>
 80042e0:	f04f 5280 	mov.w	r2, #268435456	; 0x10000000
 80042e4:	4b02      	ldr	r3, [pc, #8]	; (80042f0 <xPortSysTickHandler+0x2c>)
 80042e6:	601a      	str	r2, [r3, #0]
 80042e8:	2300      	movs	r3, #0
 80042ea:	f383 8811 	msr	BASEPRI, r3
 80042ee:	bd08      	pop	{r3, pc}
 80042f0:	e000ed04 	.word	0xe000ed04

080042f4 <vPortSetupTimerInterrupt>:
 80042f4:	4b06      	ldr	r3, [pc, #24]	; (8004310 <vPortSetupTimerInterrupt+0x1c>)
 80042f6:	f44f 727a 	mov.w	r2, #1000	; 0x3e8
 80042fa:	681b      	ldr	r3, [r3, #0]
 80042fc:	fbb3 f3f2 	udiv	r3, r3, r2
 8004300:	4a04      	ldr	r2, [pc, #16]	; (8004314 <vPortSetupTimerInterrupt+0x20>)
 8004302:	3b01      	subs	r3, #1
 8004304:	6013      	str	r3, [r2, #0]
 8004306:	2207      	movs	r2, #7
 8004308:	4b03      	ldr	r3, [pc, #12]	; (8004318 <vPortSetupTimerInterrupt+0x24>)
 800430a:	601a      	str	r2, [r3, #0]
 800430c:	4770      	bx	lr
 800430e:	bf00      	nop
 8004310:	2000011c 	.word	0x2000011c
 8004314:	e000e014 	.word	0xe000e014
 8004318:	e000e010 	.word	0xe000e010

0800431c <xPortStartScheduler>:
 800431c:	4b23      	ldr	r3, [pc, #140]	; (80043ac <xPortStartScheduler+0x90>)
 800431e:	b513      	push	{r0, r1, r4, lr}
 8004320:	781a      	ldrb	r2, [r3, #0]
 8004322:	2100      	movs	r1, #0
 8004324:	b2d2      	uxtb	r2, r2
 8004326:	9201      	str	r2, [sp, #4]
 8004328:	22ff      	movs	r2, #255	; 0xff
 800432a:	701a      	strb	r2, [r3, #0]
 800432c:	781b      	ldrb	r3, [r3, #0]
 800432e:	4a20      	ldr	r2, [pc, #128]	; (80043b0 <xPortStartScheduler+0x94>)
 8004330:	b2db      	uxtb	r3, r3
 8004332:	f88d 3003 	strb.w	r3, [sp, #3]
 8004336:	f89d 3003 	ldrb.w	r3, [sp, #3]
 800433a:	f003 0350 	and.w	r3, r3, #80	; 0x50
 800433e:	7013      	strb	r3, [r2, #0]
 8004340:	2207      	movs	r2, #7
 8004342:	4b1c      	ldr	r3, [pc, #112]	; (80043b4 <xPortStartScheduler+0x98>)
 8004344:	601a      	str	r2, [r3, #0]
 8004346:	f89d 0003 	ldrb.w	r0, [sp, #3]
 800434a:	1e54      	subs	r4, r2, #1
 800434c:	0600      	lsls	r0, r0, #24
 800434e:	d423      	bmi.n	8004398 <xPortStartScheduler+0x7c>
 8004350:	b101      	cbz	r1, 8004354 <xPortStartScheduler+0x38>
 8004352:	601a      	str	r2, [r3, #0]
 8004354:	681a      	ldr	r2, [r3, #0]
 8004356:	0212      	lsls	r2, r2, #8
 8004358:	f402 62e0 	and.w	r2, r2, #1792	; 0x700
 800435c:	601a      	str	r2, [r3, #0]
 800435e:	9b01      	ldr	r3, [sp, #4]
 8004360:	4a12      	ldr	r2, [pc, #72]	; (80043ac <xPortStartScheduler+0x90>)
 8004362:	b2db      	uxtb	r3, r3
 8004364:	7013      	strb	r3, [r2, #0]
 8004366:	4b14      	ldr	r3, [pc, #80]	; (80043b8 <xPortStartScheduler+0x9c>)
 8004368:	681a      	ldr	r2, [r3, #0]
 800436a:	f442 0270 	orr.w	r2, r2, #15728640	; 0xf00000
 800436e:	601a      	str	r2, [r3, #0]
 8004370:	681a      	ldr	r2, [r3, #0]
 8004372:	f042 4270 	orr.w	r2, r2, #4026531840	; 0xf0000000
 8004376:	601a      	str	r2, [r3, #0]
 8004378:	f7ff ffbc 	bl	80042f4 <vPortSetupTimerInterrupt>
 800437c:	2200      	movs	r2, #0
 800437e:	4b0f      	ldr	r3, [pc, #60]	; (80043bc <xPortStartScheduler+0xa0>)
 8004380:	601a      	str	r2, [r3, #0]
 8004382:	f7ff fefd 	bl	8004180 <vPortEnableVFP>
 8004386:	4a0e      	ldr	r2, [pc, #56]	; (80043c0 <xPortStartScheduler+0xa4>)
 8004388:	6813      	ldr	r3, [r2, #0]
 800438a:	f043 4340 	orr.w	r3, r3, #3221225472	; 0xc0000000
 800438e:	6013      	str	r3, [r2, #0]
 8004390:	f7ff fee6 	bl	8004160 <prvPortStartFirstTask>
 8004394:	f7ff fec8 	bl	8004128 <prvTaskExitError>
 8004398:	f89d 2003 	ldrb.w	r2, [sp, #3]
 800439c:	2101      	movs	r1, #1
 800439e:	0052      	lsls	r2, r2, #1
 80043a0:	b2d2      	uxtb	r2, r2
 80043a2:	f88d 2003 	strb.w	r2, [sp, #3]
 80043a6:	4622      	mov	r2, r4
 80043a8:	e7cd      	b.n	8004346 <xPortStartScheduler+0x2a>
 80043aa:	bf00      	nop
 80043ac:	e000e400 	.word	0xe000e400
 80043b0:	200001f5 	.word	0x200001f5
 80043b4:	200001f8 	.word	0x200001f8
 80043b8:	e000ed20 	.word	0xe000ed20
 80043bc:	20000114 	.word	0x20000114
 80043c0:	e000ef34 	.word	0xe000ef34

080043c4 <vPortValidateInterruptPriority>:
 80043c4:	f3ef 8305 	mrs	r3, IPSR
 80043c8:	2b0f      	cmp	r3, #15
 80043ca:	d910      	bls.n	80043ee <vPortValidateInterruptPriority+0x2a>
 80043cc:	4a12      	ldr	r2, [pc, #72]	; (8004418 <vPortValidateInterruptPriority+0x54>)
 80043ce:	5c9b      	ldrb	r3, [r3, r2]
 80043d0:	4a12      	ldr	r2, [pc, #72]	; (800441c <vPortValidateInterruptPriority+0x58>)
 80043d2:	7812      	ldrb	r2, [r2, #0]
 80043d4:	429a      	cmp	r2, r3
 80043d6:	d90a      	bls.n	80043ee <vPortValidateInterruptPriority+0x2a>
 80043d8:	f04f 0350 	mov.w	r3, #80	; 0x50
 80043dc:	b672      	cpsid	i
 80043de:	f383 8811 	msr	BASEPRI, r3
 80043e2:	f3bf 8f6f 	isb	sy
 80043e6:	f3bf 8f4f 	dsb	sy
 80043ea:	b662      	cpsie	i
 80043ec:	e7fe      	b.n	80043ec <vPortValidateInterruptPriority+0x28>
 80043ee:	4b0c      	ldr	r3, [pc, #48]	; (8004420 <vPortValidateInterruptPriority+0x5c>)
 80043f0:	4a0c      	ldr	r2, [pc, #48]	; (8004424 <vPortValidateInterruptPriority+0x60>)
 80043f2:	681b      	ldr	r3, [r3, #0]
 80043f4:	6812      	ldr	r2, [r2, #0]
 80043f6:	f403 63e0 	and.w	r3, r3, #1792	; 0x700
 80043fa:	4293      	cmp	r3, r2
 80043fc:	d90a      	bls.n	8004414 <vPortValidateInterruptPriority+0x50>
 80043fe:	f04f 0350 	mov.w	r3, #80	; 0x50
 8004402:	b672      	cpsid	i
 8004404:	f383 8811 	msr	BASEPRI, r3
 8004408:	f3bf 8f6f 	isb	sy
 800440c:	f3bf 8f4f 	dsb	sy
 8004410:	b662      	cpsie	i
 8004412:	e7fe      	b.n	8004412 <vPortValidateInterruptPriority+0x4e>
 8004414:	4770      	bx	lr
 8004416:	bf00      	nop
 8004418:	e000e3f0 	.word	0xe000e3f0
 800441c:	200001f5 	.word	0x200001f5
 8004420:	e000ed0c 	.word	0xe000ed0c
 8004424:	200001f8 	.word	0x200001f8

08004428 <prvInsertBlockIntoFreeList>:
 8004428:	4b0f      	ldr	r3, [pc, #60]	; (8004468 <prvInsertBlockIntoFreeList+0x40>)
 800442a:	b510      	push	{r4, lr}
 800442c:	681a      	ldr	r2, [r3, #0]
 800442e:	4282      	cmp	r2, r0
 8004430:	d318      	bcc.n	8004464 <prvInsertBlockIntoFreeList+0x3c>
 8004432:	685c      	ldr	r4, [r3, #4]
 8004434:	1919      	adds	r1, r3, r4
 8004436:	4288      	cmp	r0, r1
 8004438:	bf01      	itttt	eq
 800443a:	6841      	ldreq	r1, [r0, #4]
 800443c:	4618      	moveq	r0, r3
 800443e:	1909      	addeq	r1, r1, r4
 8004440:	6059      	streq	r1, [r3, #4]
 8004442:	6844      	ldr	r4, [r0, #4]
 8004444:	1901      	adds	r1, r0, r4
 8004446:	428a      	cmp	r2, r1
 8004448:	d107      	bne.n	800445a <prvInsertBlockIntoFreeList+0x32>
 800444a:	4908      	ldr	r1, [pc, #32]	; (800446c <prvInsertBlockIntoFreeList+0x44>)
 800444c:	6809      	ldr	r1, [r1, #0]
 800444e:	428a      	cmp	r2, r1
 8004450:	bf1f      	itttt	ne
 8004452:	6851      	ldrne	r1, [r2, #4]
 8004454:	6812      	ldrne	r2, [r2, #0]
 8004456:	1909      	addne	r1, r1, r4
 8004458:	6041      	strne	r1, [r0, #4]
 800445a:	4298      	cmp	r0, r3
 800445c:	6002      	str	r2, [r0, #0]
 800445e:	bf18      	it	ne
 8004460:	6018      	strne	r0, [r3, #0]
 8004462:	bd10      	pop	{r4, pc}
 8004464:	4613      	mov	r3, r2
 8004466:	e7e1      	b.n	800442c <prvInsertBlockIntoFreeList+0x4>
 8004468:	20003e0c 	.word	0x20003e0c
 800446c:	200001fc 	.word	0x200001fc

08004470 <pvPortMalloc>:
 8004470:	e92d 41f0 	stmdb	sp!, {r4, r5, r6, r7, r8, lr}
 8004474:	4604      	mov	r4, r0
 8004476:	f000 fddb 	bl	8005030 <vTaskSuspendAll>
 800447a:	4940      	ldr	r1, [pc, #256]	; (800457c <pvPortMalloc+0x10c>)
 800447c:	4d40      	ldr	r5, [pc, #256]	; (8004580 <pvPortMalloc+0x110>)
 800447e:	680b      	ldr	r3, [r1, #0]
 8004480:	bb0b      	cbnz	r3, 80044c6 <pvPortMalloc+0x56>
 8004482:	4a40      	ldr	r2, [pc, #256]	; (8004584 <pvPortMalloc+0x114>)
 8004484:	0756      	lsls	r6, r2, #29
 8004486:	4e40      	ldr	r6, [pc, #256]	; (8004588 <pvPortMalloc+0x118>)
 8004488:	bf1b      	ittet	ne
 800448a:	1dd0      	addne	r0, r2, #7
 800448c:	f502 5370 	addne.w	r3, r2, #15360	; 0x3c00
 8004490:	f44f 5370 	moveq.w	r3, #15360	; 0x3c00
 8004494:	f020 0007 	bicne.w	r0, r0, #7
 8004498:	bf1c      	itt	ne
 800449a:	4602      	movne	r2, r0
 800449c:	1a1b      	subne	r3, r3, r0
 800449e:	2000      	movs	r0, #0
 80044a0:	4413      	add	r3, r2
 80044a2:	6032      	str	r2, [r6, #0]
 80044a4:	6070      	str	r0, [r6, #4]
 80044a6:	3b08      	subs	r3, #8
 80044a8:	f023 0307 	bic.w	r3, r3, #7
 80044ac:	6018      	str	r0, [r3, #0]
 80044ae:	6058      	str	r0, [r3, #4]
 80044b0:	1a98      	subs	r0, r3, r2
 80044b2:	600b      	str	r3, [r1, #0]
 80044b4:	6013      	str	r3, [r2, #0]
 80044b6:	4b35      	ldr	r3, [pc, #212]	; (800458c <pvPortMalloc+0x11c>)
 80044b8:	6050      	str	r0, [r2, #4]
 80044ba:	6018      	str	r0, [r3, #0]
 80044bc:	4b34      	ldr	r3, [pc, #208]	; (8004590 <pvPortMalloc+0x120>)
 80044be:	6018      	str	r0, [r3, #0]
 80044c0:	f04f 4300 	mov.w	r3, #2147483648	; 0x80000000
 80044c4:	602b      	str	r3, [r5, #0]
 80044c6:	682f      	ldr	r7, [r5, #0]
 80044c8:	4227      	tst	r7, r4
 80044ca:	d116      	bne.n	80044fa <pvPortMalloc+0x8a>
 80044cc:	2c00      	cmp	r4, #0
 80044ce:	d042      	beq.n	8004556 <pvPortMalloc+0xe6>
 80044d0:	f104 0308 	add.w	r3, r4, #8
 80044d4:	0758      	lsls	r0, r3, #29
 80044d6:	bf1c      	itt	ne
 80044d8:	f023 0307 	bicne.w	r3, r3, #7
 80044dc:	3308      	addne	r3, #8
 80044de:	b163      	cbz	r3, 80044fa <pvPortMalloc+0x8a>
 80044e0:	4a2b      	ldr	r2, [pc, #172]	; (8004590 <pvPortMalloc+0x120>)
 80044e2:	6816      	ldr	r6, [r2, #0]
 80044e4:	4690      	mov	r8, r2
 80044e6:	42b3      	cmp	r3, r6
 80044e8:	d807      	bhi.n	80044fa <pvPortMalloc+0x8a>
 80044ea:	4a27      	ldr	r2, [pc, #156]	; (8004588 <pvPortMalloc+0x118>)
 80044ec:	6815      	ldr	r5, [r2, #0]
 80044ee:	6868      	ldr	r0, [r5, #4]
 80044f0:	4283      	cmp	r3, r0
 80044f2:	d804      	bhi.n	80044fe <pvPortMalloc+0x8e>
 80044f4:	6809      	ldr	r1, [r1, #0]
 80044f6:	428d      	cmp	r5, r1
 80044f8:	d107      	bne.n	800450a <pvPortMalloc+0x9a>
 80044fa:	2400      	movs	r4, #0
 80044fc:	e02b      	b.n	8004556 <pvPortMalloc+0xe6>
 80044fe:	682c      	ldr	r4, [r5, #0]
 8004500:	2c00      	cmp	r4, #0
 8004502:	d0f7      	beq.n	80044f4 <pvPortMalloc+0x84>
 8004504:	462a      	mov	r2, r5
 8004506:	4625      	mov	r5, r4
 8004508:	e7f1      	b.n	80044ee <pvPortMalloc+0x7e>
 800450a:	6829      	ldr	r1, [r5, #0]
 800450c:	6814      	ldr	r4, [r2, #0]
 800450e:	6011      	str	r1, [r2, #0]
 8004510:	1ac2      	subs	r2, r0, r3
 8004512:	2a10      	cmp	r2, #16
 8004514:	d911      	bls.n	800453a <pvPortMalloc+0xca>
 8004516:	18e8      	adds	r0, r5, r3
 8004518:	0741      	lsls	r1, r0, #29
 800451a:	d00a      	beq.n	8004532 <pvPortMalloc+0xc2>
 800451c:	f04f 0350 	mov.w	r3, #80	; 0x50
 8004520:	b672      	cpsid	i
 8004522:	f383 8811 	msr	BASEPRI, r3
 8004526:	f3bf 8f6f 	isb	sy
 800452a:	f3bf 8f4f 	dsb	sy
 800452e:	b662      	cpsie	i
 8004530:	e7fe      	b.n	8004530 <pvPortMalloc+0xc0>
 8004532:	6042      	str	r2, [r0, #4]
 8004534:	606b      	str	r3, [r5, #4]
 8004536:	f7ff ff77 	bl	8004428 <prvInsertBlockIntoFreeList>
 800453a:	686b      	ldr	r3, [r5, #4]
 800453c:	3408      	adds	r4, #8
 800453e:	4913      	ldr	r1, [pc, #76]	; (800458c <pvPortMalloc+0x11c>)
 8004540:	1af6      	subs	r6, r6, r3
 8004542:	431f      	orrs	r7, r3
 8004544:	6808      	ldr	r0, [r1, #0]
 8004546:	2300      	movs	r3, #0
 8004548:	f8c8 6000 	str.w	r6, [r8]
 800454c:	4286      	cmp	r6, r0
 800454e:	606f      	str	r7, [r5, #4]
 8004550:	602b      	str	r3, [r5, #0]
 8004552:	bf38      	it	cc
 8004554:	600e      	strcc	r6, [r1, #0]
 8004556:	f000 fe15 	bl	8005184 <xTaskResumeAll>
 800455a:	0763      	lsls	r3, r4, #29
 800455c:	d00a      	beq.n	8004574 <pvPortMalloc+0x104>
 800455e:	f04f 0350 	mov.w	r3, #80	; 0x50
 8004562:	b672      	cpsid	i
 8004564:	f383 8811 	msr	BASEPRI, r3
 8004568:	f3bf 8f6f 	isb	sy
 800456c:	f3bf 8f4f 	dsb	sy
 8004570:	b662      	cpsie	i
 8004572:	e7fe      	b.n	8004572 <pvPortMalloc+0x102>
 8004574:	4620      	mov	r0, r4
 8004576:	e8bd 81f0 	ldmia.w	sp!, {r4, r5, r6, r7, r8, pc}
 800457a:	bf00      	nop
 800457c:	200001fc 	.word	0x200001fc
 8004580:	20003e00 	.word	0x20003e00
 8004584:	20000200 	.word	0x20000200
 8004588:	20003e0c 	.word	0x20003e0c
 800458c:	20003e08 	.word	0x20003e08
 8004590:	20003e04 	.word	0x20003e04

08004594 <vPortFree>:
 8004594:	b510      	push	{r4, lr}
 8004596:	4604      	mov	r4, r0
 8004598:	2800      	cmp	r0, #0
 800459a:	d032      	beq.n	8004602 <vPortFree+0x6e>
 800459c:	4a19      	ldr	r2, [pc, #100]	; (8004604 <vPortFree+0x70>)
 800459e:	f850 3c04 	ldr.w	r3, [r0, #-4]
 80045a2:	6812      	ldr	r2, [r2, #0]
 80045a4:	4213      	tst	r3, r2
 80045a6:	d10a      	bne.n	80045be <vPortFree+0x2a>
 80045a8:	f04f 0350 	mov.w	r3, #80	; 0x50
 80045ac:	b672      	cpsid	i
 80045ae:	f383 8811 	msr	BASEPRI, r3
 80045b2:	f3bf 8f6f 	isb	sy
 80045b6:	f3bf 8f4f 	dsb	sy
 80045ba:	b662      	cpsie	i
 80045bc:	e7fe      	b.n	80045bc <vPortFree+0x28>
 80045be:	f850 1c08 	ldr.w	r1, [r0, #-8]
 80045c2:	b151      	cbz	r1, 80045da <vPortFree+0x46>
 80045c4:	f04f 0350 	mov.w	r3, #80	; 0x50
 80045c8:	b672      	cpsid	i
 80045ca:	f383 8811 	msr	BASEPRI, r3
 80045ce:	f3bf 8f6f 	isb	sy
 80045d2:	f3bf 8f4f 	dsb	sy
 80045d6:	b662      	cpsie	i
 80045d8:	e7fe      	b.n	80045d8 <vPortFree+0x44>
 80045da:	ea23 0302 	bic.w	r3, r3, r2
 80045de:	f840 3c04 	str.w	r3, [r0, #-4]
 80045e2:	f000 fd25 	bl	8005030 <vTaskSuspendAll>
 80045e6:	4a08      	ldr	r2, [pc, #32]	; (8004608 <vPortFree+0x74>)
 80045e8:	f854 3c04 	ldr.w	r3, [r4, #-4]
 80045ec:	f1a4 0008 	sub.w	r0, r4, #8
 80045f0:	6811      	ldr	r1, [r2, #0]
 80045f2:	440b      	add	r3, r1
 80045f4:	6013      	str	r3, [r2, #0]
 80045f6:	f7ff ff17 	bl	8004428 <prvInsertBlockIntoFreeList>
 80045fa:	e8bd 4010 	ldmia.w	sp!, {r4, lr}
 80045fe:	f000 bdc1 	b.w	8005184 <xTaskResumeAll>
 8004602:	bd10      	pop	{r4, pc}
 8004604:	20003e00 	.word	0x20003e00
 8004608:	20003e04 	.word	0x20003e04

0800460c <prvCopyDataToQueue>:
 800460c:	b570      	push	{r4, r5, r6, lr}
 800460e:	4615      	mov	r5, r2
 8004610:	6c02      	ldr	r2, [r0, #64]	; 0x40
 8004612:	4604      	mov	r4, r0
 8004614:	6b86      	ldr	r6, [r0, #56]	; 0x38
 8004616:	b942      	cbnz	r2, 800462a <prvCopyDataToQueue+0x1e>
 8004618:	6805      	ldr	r5, [r0, #0]
 800461a:	b99d      	cbnz	r5, 8004644 <prvCopyDataToQueue+0x38>
 800461c:	6840      	ldr	r0, [r0, #4]
 800461e:	f000 ffd1 	bl	80055c4 <xTaskPriorityDisinherit>
 8004622:	6065      	str	r5, [r4, #4]
 8004624:	3601      	adds	r6, #1
 8004626:	63a6      	str	r6, [r4, #56]	; 0x38
 8004628:	bd70      	pop	{r4, r5, r6, pc}
 800462a:	b96d      	cbnz	r5, 8004648 <prvCopyDataToQueue+0x3c>
 800462c:	6880      	ldr	r0, [r0, #8]
 800462e:	f007 f8b8 	bl	800b7a2 <memcpy>
 8004632:	68a3      	ldr	r3, [r4, #8]
 8004634:	6c22      	ldr	r2, [r4, #64]	; 0x40
 8004636:	4413      	add	r3, r2
 8004638:	6862      	ldr	r2, [r4, #4]
 800463a:	4293      	cmp	r3, r2
 800463c:	60a3      	str	r3, [r4, #8]
 800463e:	d301      	bcc.n	8004644 <prvCopyDataToQueue+0x38>
 8004640:	6823      	ldr	r3, [r4, #0]
 8004642:	60a3      	str	r3, [r4, #8]
 8004644:	2000      	movs	r0, #0
 8004646:	e7ed      	b.n	8004624 <prvCopyDataToQueue+0x18>
 8004648:	68c0      	ldr	r0, [r0, #12]
 800464a:	f007 f8aa 	bl	800b7a2 <memcpy>
 800464e:	6c23      	ldr	r3, [r4, #64]	; 0x40
 8004650:	68e2      	ldr	r2, [r4, #12]
 8004652:	425b      	negs	r3, r3
 8004654:	6821      	ldr	r1, [r4, #0]
 8004656:	441a      	add	r2, r3
 8004658:	428a      	cmp	r2, r1
 800465a:	60e2      	str	r2, [r4, #12]
 800465c:	bf3e      	ittt	cc
 800465e:	6862      	ldrcc	r2, [r4, #4]
 8004660:	189b      	addcc	r3, r3, r2
 8004662:	60e3      	strcc	r3, [r4, #12]
 8004664:	2d02      	cmp	r5, #2
 8004666:	d1ed      	bne.n	8004644 <prvCopyDataToQueue+0x38>
 8004668:	b10e      	cbz	r6, 800466e <prvCopyDataToQueue+0x62>
 800466a:	3e01      	subs	r6, #1
 800466c:	e7ea      	b.n	8004644 <prvCopyDataToQueue+0x38>
 800466e:	4630      	mov	r0, r6
 8004670:	e7d8      	b.n	8004624 <prvCopyDataToQueue+0x18>

08004672 <prvCopyDataFromQueue>:
 8004672:	4603      	mov	r3, r0
 8004674:	4608      	mov	r0, r1
 8004676:	6c1a      	ldr	r2, [r3, #64]	; 0x40
 8004678:	b410      	push	{r4}
 800467a:	b162      	cbz	r2, 8004696 <prvCopyDataFromQueue+0x24>
 800467c:	68d9      	ldr	r1, [r3, #12]
 800467e:	685c      	ldr	r4, [r3, #4]
 8004680:	4411      	add	r1, r2
 8004682:	42a1      	cmp	r1, r4
 8004684:	60d9      	str	r1, [r3, #12]
 8004686:	f85d 4b04 	ldr.w	r4, [sp], #4
 800468a:	bf24      	itt	cs
 800468c:	6819      	ldrcs	r1, [r3, #0]
 800468e:	60d9      	strcs	r1, [r3, #12]
 8004690:	68d9      	ldr	r1, [r3, #12]
 8004692:	f007 b886 	b.w	800b7a2 <memcpy>
 8004696:	f85d 4b04 	ldr.w	r4, [sp], #4
 800469a:	4770      	bx	lr

0800469c <prvUnlockQueue>:
 800469c:	b570      	push	{r4, r5, r6, lr}
 800469e:	4604      	mov	r4, r0
 80046a0:	f7ff fda0 	bl	80041e4 <vPortEnterCritical>
 80046a4:	f894 5045 	ldrb.w	r5, [r4, #69]	; 0x45
 80046a8:	f104 0624 	add.w	r6, r4, #36	; 0x24
 80046ac:	b26d      	sxtb	r5, r5
 80046ae:	2d00      	cmp	r5, #0
 80046b0:	dc14      	bgt.n	80046dc <prvUnlockQueue+0x40>
 80046b2:	23ff      	movs	r3, #255	; 0xff
 80046b4:	f104 0610 	add.w	r6, r4, #16
 80046b8:	f884 3045 	strb.w	r3, [r4, #69]	; 0x45
 80046bc:	f7ff fdb8 	bl	8004230 <vPortExitCritical>
 80046c0:	f7ff fd90 	bl	80041e4 <vPortEnterCritical>
 80046c4:	f894 5044 	ldrb.w	r5, [r4, #68]	; 0x44
 80046c8:	b26d      	sxtb	r5, r5
 80046ca:	2d00      	cmp	r5, #0
 80046cc:	dc12      	bgt.n	80046f4 <prvUnlockQueue+0x58>
 80046ce:	23ff      	movs	r3, #255	; 0xff
 80046d0:	f884 3044 	strb.w	r3, [r4, #68]	; 0x44
 80046d4:	e8bd 4070 	ldmia.w	sp!, {r4, r5, r6, lr}
 80046d8:	f7ff bdaa 	b.w	8004230 <vPortExitCritical>
 80046dc:	6a63      	ldr	r3, [r4, #36]	; 0x24
 80046de:	2b00      	cmp	r3, #0
 80046e0:	d0e7      	beq.n	80046b2 <prvUnlockQueue+0x16>
 80046e2:	4630      	mov	r0, r6
 80046e4:	f000 fe80 	bl	80053e8 <xTaskRemoveFromEventList>
 80046e8:	b108      	cbz	r0, 80046ee <prvUnlockQueue+0x52>
 80046ea:	f000 ff0f 	bl	800550c <vTaskMissedYield>
 80046ee:	3d01      	subs	r5, #1
 80046f0:	b26d      	sxtb	r5, r5
 80046f2:	e7dc      	b.n	80046ae <prvUnlockQueue+0x12>
 80046f4:	6923      	ldr	r3, [r4, #16]
 80046f6:	2b00      	cmp	r3, #0
 80046f8:	d0e9      	beq.n	80046ce <prvUnlockQueue+0x32>
 80046fa:	4630      	mov	r0, r6
 80046fc:	f000 fe74 	bl	80053e8 <xTaskRemoveFromEventList>
 8004700:	b108      	cbz	r0, 8004706 <prvUnlockQueue+0x6a>
 8004702:	f000 ff03 	bl	800550c <vTaskMissedYield>
 8004706:	3d01      	subs	r5, #1
 8004708:	b26d      	sxtb	r5, r5
 800470a:	e7de      	b.n	80046ca <prvUnlockQueue+0x2e>

0800470c <xQueueGenericReset>:
 800470c:	b538      	push	{r3, r4, r5, lr}
 800470e:	460d      	mov	r5, r1
 8004710:	4604      	mov	r4, r0
 8004712:	b950      	cbnz	r0, 800472a <xQueueGenericReset+0x1e>
 8004714:	f04f 0350 	mov.w	r3, #80	; 0x50
 8004718:	b672      	cpsid	i
 800471a:	f383 8811 	msr	BASEPRI, r3
 800471e:	f3bf 8f6f 	isb	sy
 8004722:	f3bf 8f4f 	dsb	sy
 8004726:	b662      	cpsie	i
 8004728:	e7fe      	b.n	8004728 <xQueueGenericReset+0x1c>
 800472a:	f7ff fd5b 	bl	80041e4 <vPortEnterCritical>
 800472e:	6c20      	ldr	r0, [r4, #64]	; 0x40
 8004730:	6be3      	ldr	r3, [r4, #60]	; 0x3c
 8004732:	6822      	ldr	r2, [r4, #0]
 8004734:	4343      	muls	r3, r0
 8004736:	60a2      	str	r2, [r4, #8]
 8004738:	18d1      	adds	r1, r2, r3
 800473a:	1a1b      	subs	r3, r3, r0
 800473c:	4413      	add	r3, r2
 800473e:	6061      	str	r1, [r4, #4]
 8004740:	2100      	movs	r1, #0
 8004742:	60e3      	str	r3, [r4, #12]
 8004744:	23ff      	movs	r3, #255	; 0xff
 8004746:	63a1      	str	r1, [r4, #56]	; 0x38
 8004748:	f884 3044 	strb.w	r3, [r4, #68]	; 0x44
 800474c:	f884 3045 	strb.w	r3, [r4, #69]	; 0x45
 8004750:	b995      	cbnz	r5, 8004778 <xQueueGenericReset+0x6c>
 8004752:	6923      	ldr	r3, [r4, #16]
 8004754:	b163      	cbz	r3, 8004770 <xQueueGenericReset+0x64>
 8004756:	f104 0010 	add.w	r0, r4, #16
 800475a:	f000 fe45 	bl	80053e8 <xTaskRemoveFromEventList>
 800475e:	b138      	cbz	r0, 8004770 <xQueueGenericReset+0x64>
 8004760:	f04f 5280 	mov.w	r2, #268435456	; 0x10000000
 8004764:	4b09      	ldr	r3, [pc, #36]	; (800478c <xQueueGenericReset+0x80>)
 8004766:	601a      	str	r2, [r3, #0]
 8004768:	f3bf 8f4f 	dsb	sy
 800476c:	f3bf 8f6f 	isb	sy
 8004770:	f7ff fd5e 	bl	8004230 <vPortExitCritical>
 8004774:	2001      	movs	r0, #1
 8004776:	bd38      	pop	{r3, r4, r5, pc}
 8004778:	f104 0010 	add.w	r0, r4, #16
 800477c:	f7ff fc92 	bl	80040a4 <vListInitialise>
 8004780:	f104 0024 	add.w	r0, r4, #36	; 0x24
 8004784:	f7ff fc8e 	bl	80040a4 <vListInitialise>
 8004788:	e7f2      	b.n	8004770 <xQueueGenericReset+0x64>
 800478a:	bf00      	nop
 800478c:	e000ed04 	.word	0xe000ed04

08004790 <xQueueGenericCreate>:
 8004790:	b570      	push	{r4, r5, r6, lr}
 8004792:	460d      	mov	r5, r1
 8004794:	4606      	mov	r6, r0
 8004796:	b950      	cbnz	r0, 80047ae <xQueueGenericCreate+0x1e>
 8004798:	f04f 0350 	mov.w	r3, #80	; 0x50
 800479c:	b672      	cpsid	i
 800479e:	f383 8811 	msr	BASEPRI, r3
 80047a2:	f3bf 8f6f 	isb	sy
 80047a6:	f3bf 8f4f 	dsb	sy
 80047aa:	b662      	cpsie	i
 80047ac:	e7fe      	b.n	80047ac <xQueueGenericCreate+0x1c>
 80047ae:	4348      	muls	r0, r1
 80047b0:	3048      	adds	r0, #72	; 0x48
 80047b2:	f7ff fe5d 	bl	8004470 <pvPortMalloc>
 80047b6:	4604      	mov	r4, r0
 80047b8:	b138      	cbz	r0, 80047ca <xQueueGenericCreate+0x3a>
 80047ba:	b945      	cbnz	r5, 80047ce <xQueueGenericCreate+0x3e>
 80047bc:	6020      	str	r0, [r4, #0]
 80047be:	63e6      	str	r6, [r4, #60]	; 0x3c
 80047c0:	2101      	movs	r1, #1
 80047c2:	6425      	str	r5, [r4, #64]	; 0x40
 80047c4:	4620      	mov	r0, r4
 80047c6:	f7ff ffa1 	bl	800470c <xQueueGenericReset>
 80047ca:	4620      	mov	r0, r4
 80047cc:	bd70      	pop	{r4, r5, r6, pc}
 80047ce:	f100 0348 	add.w	r3, r0, #72	; 0x48
 80047d2:	6003      	str	r3, [r0, #0]
 80047d4:	e7f3      	b.n	80047be <xQueueGenericCreate+0x2e>
	...

080047d8 <xQueueGenericSend>:
 80047d8:	e92d 47ff 	stmdb	sp!, {r0, r1, r2, r3, r4, r5, r6, r7, r8, r9, sl, lr}
 80047dc:	4689      	mov	r9, r1
 80047de:	9201      	str	r2, [sp, #4]
 80047e0:	461f      	mov	r7, r3
 80047e2:	4604      	mov	r4, r0
 80047e4:	b950      	cbnz	r0, 80047fc <xQueueGenericSend+0x24>
 80047e6:	f04f 0350 	mov.w	r3, #80	; 0x50
 80047ea:	b672      	cpsid	i
 80047ec:	f383 8811 	msr	BASEPRI, r3
 80047f0:	f3bf 8f6f 	isb	sy
 80047f4:	f3bf 8f4f 	dsb	sy
 80047f8:	b662      	cpsie	i
 80047fa:	e7fe      	b.n	80047fa <xQueueGenericSend+0x22>
 80047fc:	2900      	cmp	r1, #0
 80047fe:	f040 808c 	bne.w	800491a <xQueueGenericSend+0x142>
 8004802:	6c03      	ldr	r3, [r0, #64]	; 0x40
 8004804:	2b00      	cmp	r3, #0
 8004806:	f000 8088 	beq.w	800491a <xQueueGenericSend+0x142>
 800480a:	f04f 0350 	mov.w	r3, #80	; 0x50
 800480e:	b672      	cpsid	i
 8004810:	f383 8811 	msr	BASEPRI, r3
 8004814:	f3bf 8f6f 	isb	sy
 8004818:	f3bf 8f4f 	dsb	sy
 800481c:	b662      	cpsie	i
 800481e:	e7fe      	b.n	800481e <xQueueGenericSend+0x46>
 8004820:	9e01      	ldr	r6, [sp, #4]
 8004822:	2e00      	cmp	r6, #0
 8004824:	f000 8084 	beq.w	8004930 <xQueueGenericSend+0x158>
 8004828:	f04f 0350 	mov.w	r3, #80	; 0x50
 800482c:	b672      	cpsid	i
 800482e:	f383 8811 	msr	BASEPRI, r3
 8004832:	f3bf 8f6f 	isb	sy
 8004836:	f3bf 8f4f 	dsb	sy
 800483a:	b662      	cpsie	i
 800483c:	e7fe      	b.n	800483c <xQueueGenericSend+0x64>
 800483e:	9d01      	ldr	r5, [sp, #4]
 8004840:	b91d      	cbnz	r5, 800484a <xQueueGenericSend+0x72>
 8004842:	f7ff fcf5 	bl	8004230 <vPortExitCritical>
 8004846:	2000      	movs	r0, #0
 8004848:	e058      	b.n	80048fc <xQueueGenericSend+0x124>
 800484a:	b916      	cbnz	r6, 8004852 <xQueueGenericSend+0x7a>
 800484c:	a802      	add	r0, sp, #8
 800484e:	f000 fe0f 	bl	8005470 <vTaskSetTimeOutState>
 8004852:	f7ff fced 	bl	8004230 <vPortExitCritical>
 8004856:	f000 fbeb 	bl	8005030 <vTaskSuspendAll>
 800485a:	f7ff fcc3 	bl	80041e4 <vPortEnterCritical>
 800485e:	f894 3044 	ldrb.w	r3, [r4, #68]	; 0x44
 8004862:	2bff      	cmp	r3, #255	; 0xff
 8004864:	d101      	bne.n	800486a <xQueueGenericSend+0x92>
 8004866:	f884 8044 	strb.w	r8, [r4, #68]	; 0x44
 800486a:	f894 3045 	ldrb.w	r3, [r4, #69]	; 0x45
 800486e:	2bff      	cmp	r3, #255	; 0xff
 8004870:	d101      	bne.n	8004876 <xQueueGenericSend+0x9e>
 8004872:	f884 8045 	strb.w	r8, [r4, #69]	; 0x45
 8004876:	f7ff fcdb 	bl	8004230 <vPortExitCritical>
 800487a:	a901      	add	r1, sp, #4
 800487c:	a802      	add	r0, sp, #8
 800487e:	f000 fe07 	bl	8005490 <xTaskCheckForTimeOut>
 8004882:	2800      	cmp	r0, #0
 8004884:	d143      	bne.n	800490e <xQueueGenericSend+0x136>
 8004886:	f7ff fcad 	bl	80041e4 <vPortEnterCritical>
 800488a:	6ba6      	ldr	r6, [r4, #56]	; 0x38
 800488c:	6be5      	ldr	r5, [r4, #60]	; 0x3c
 800488e:	f7ff fccf 	bl	8004230 <vPortExitCritical>
 8004892:	42ae      	cmp	r6, r5
 8004894:	d135      	bne.n	8004902 <xQueueGenericSend+0x12a>
 8004896:	9901      	ldr	r1, [sp, #4]
 8004898:	f104 0010 	add.w	r0, r4, #16
 800489c:	f000 fd88 	bl	80053b0 <vTaskPlaceOnEventList>
 80048a0:	4620      	mov	r0, r4
 80048a2:	f7ff fefb 	bl	800469c <prvUnlockQueue>
 80048a6:	f000 fc6d 	bl	8005184 <xTaskResumeAll>
 80048aa:	b938      	cbnz	r0, 80048bc <xQueueGenericSend+0xe4>
 80048ac:	f04f 5380 	mov.w	r3, #268435456	; 0x10000000
 80048b0:	f8ca 3000 	str.w	r3, [sl]
 80048b4:	f3bf 8f4f 	dsb	sy
 80048b8:	f3bf 8f6f 	isb	sy
 80048bc:	2601      	movs	r6, #1
 80048be:	f7ff fc91 	bl	80041e4 <vPortEnterCritical>
 80048c2:	6ba2      	ldr	r2, [r4, #56]	; 0x38
 80048c4:	6be3      	ldr	r3, [r4, #60]	; 0x3c
 80048c6:	429a      	cmp	r2, r3
 80048c8:	d301      	bcc.n	80048ce <xQueueGenericSend+0xf6>
 80048ca:	2f02      	cmp	r7, #2
 80048cc:	d1b7      	bne.n	800483e <xQueueGenericSend+0x66>
 80048ce:	463a      	mov	r2, r7
 80048d0:	4649      	mov	r1, r9
 80048d2:	4620      	mov	r0, r4
 80048d4:	f7ff fe9a 	bl	800460c <prvCopyDataToQueue>
 80048d8:	6a63      	ldr	r3, [r4, #36]	; 0x24
 80048da:	b11b      	cbz	r3, 80048e4 <xQueueGenericSend+0x10c>
 80048dc:	f104 0024 	add.w	r0, r4, #36	; 0x24
 80048e0:	f000 fd82 	bl	80053e8 <xTaskRemoveFromEventList>
 80048e4:	b138      	cbz	r0, 80048f6 <xQueueGenericSend+0x11e>
 80048e6:	f04f 5280 	mov.w	r2, #268435456	; 0x10000000
 80048ea:	4b19      	ldr	r3, [pc, #100]	; (8004950 <xQueueGenericSend+0x178>)
 80048ec:	601a      	str	r2, [r3, #0]
 80048ee:	f3bf 8f4f 	dsb	sy
 80048f2:	f3bf 8f6f 	isb	sy
 80048f6:	f7ff fc9b 	bl	8004230 <vPortExitCritical>
 80048fa:	2001      	movs	r0, #1
 80048fc:	b004      	add	sp, #16
 80048fe:	e8bd 87f0 	ldmia.w	sp!, {r4, r5, r6, r7, r8, r9, sl, pc}
 8004902:	4620      	mov	r0, r4
 8004904:	f7ff feca 	bl	800469c <prvUnlockQueue>
 8004908:	f000 fc3c 	bl	8005184 <xTaskResumeAll>
 800490c:	e7d6      	b.n	80048bc <xQueueGenericSend+0xe4>
 800490e:	4620      	mov	r0, r4
 8004910:	f7ff fec4 	bl	800469c <prvUnlockQueue>
 8004914:	f000 fc36 	bl	8005184 <xTaskResumeAll>
 8004918:	e795      	b.n	8004846 <xQueueGenericSend+0x6e>
 800491a:	2f02      	cmp	r7, #2
 800491c:	d102      	bne.n	8004924 <xQueueGenericSend+0x14c>
 800491e:	6be3      	ldr	r3, [r4, #60]	; 0x3c
 8004920:	2b01      	cmp	r3, #1
 8004922:	d10a      	bne.n	800493a <xQueueGenericSend+0x162>
 8004924:	f000 fdf8 	bl	8005518 <xTaskGetSchedulerState>
 8004928:	2800      	cmp	r0, #0
 800492a:	f43f af79 	beq.w	8004820 <xQueueGenericSend+0x48>
 800492e:	2600      	movs	r6, #0
 8004930:	f04f 0800 	mov.w	r8, #0
 8004934:	f8df a018 	ldr.w	sl, [pc, #24]	; 8004950 <xQueueGenericSend+0x178>
 8004938:	e7c1      	b.n	80048be <xQueueGenericSend+0xe6>
 800493a:	f04f 0350 	mov.w	r3, #80	; 0x50
 800493e:	b672      	cpsid	i
 8004940:	f383 8811 	msr	BASEPRI, r3
 8004944:	f3bf 8f6f 	isb	sy
 8004948:	f3bf 8f4f 	dsb	sy
 800494c:	b662      	cpsie	i
 800494e:	e7fe      	b.n	800494e <xQueueGenericSend+0x176>
 8004950:	e000ed04 	.word	0xe000ed04

08004954 <xQueueCreateMutex>:
 8004954:	b510      	push	{r4, lr}
 8004956:	4602      	mov	r2, r0
 8004958:	2100      	movs	r1, #0
 800495a:	2001      	movs	r0, #1
 800495c:	f7ff ff18 	bl	8004790 <xQueueGenericCreate>
 8004960:	4604      	mov	r4, r0
 8004962:	b138      	cbz	r0, 8004974 <xQueueCreateMutex+0x20>
 8004964:	2300      	movs	r3, #0
 8004966:	6043      	str	r3, [r0, #4]
 8004968:	461a      	mov	r2, r3
 800496a:	6003      	str	r3, [r0, #0]
 800496c:	4619      	mov	r1, r3
 800496e:	60c3      	str	r3, [r0, #12]
 8004970:	f7ff ff32 	bl	80047d8 <xQueueGenericSend>
 8004974:	4620      	mov	r0, r4
 8004976:	bd10      	pop	{r4, pc}

08004978 <xQueueGenericSendFromISR>:
 8004978:	e92d 43f8 	stmdb	sp!, {r3, r4, r5, r6, r7, r8, r9, lr}
 800497c:	4688      	mov	r8, r1
 800497e:	4691      	mov	r9, r2
 8004980:	461f      	mov	r7, r3
 8004982:	4604      	mov	r4, r0
 8004984:	b950      	cbnz	r0, 800499c <xQueueGenericSendFromISR+0x24>
 8004986:	f04f 0350 	mov.w	r3, #80	; 0x50
 800498a:	b672      	cpsid	i
 800498c:	f383 8811 	msr	BASEPRI, r3
 8004990:	f3bf 8f6f 	isb	sy
 8004994:	f3bf 8f4f 	dsb	sy
 8004998:	b662      	cpsie	i
 800499a:	e7fe      	b.n	800499a <xQueueGenericSendFromISR+0x22>
 800499c:	bb19      	cbnz	r1, 80049e6 <xQueueGenericSendFromISR+0x6e>
 800499e:	6c03      	ldr	r3, [r0, #64]	; 0x40
 80049a0:	b30b      	cbz	r3, 80049e6 <xQueueGenericSendFromISR+0x6e>
 80049a2:	f04f 0350 	mov.w	r3, #80	; 0x50
 80049a6:	b672      	cpsid	i
 80049a8:	f383 8811 	msr	BASEPRI, r3
 80049ac:	f3bf 8f6f 	isb	sy
 80049b0:	f3bf 8f4f 	dsb	sy
 80049b4:	b662      	cpsie	i
 80049b6:	e7fe      	b.n	80049b6 <xQueueGenericSendFromISR+0x3e>
 80049b8:	f104 0024 	add.w	r0, r4, #36	; 0x24
 80049bc:	f000 fd14 	bl	80053e8 <xTaskRemoveFromEventList>
 80049c0:	2800      	cmp	r0, #0
 80049c2:	d036      	beq.n	8004a32 <xQueueGenericSendFromISR+0xba>
 80049c4:	f1b9 0f00 	cmp.w	r9, #0
 80049c8:	d033      	beq.n	8004a32 <xQueueGenericSendFromISR+0xba>
 80049ca:	2001      	movs	r0, #1
 80049cc:	f8c9 0000 	str.w	r0, [r9]
 80049d0:	f386 8811 	msr	BASEPRI, r6
 80049d4:	e8bd 83f8 	ldmia.w	sp!, {r3, r4, r5, r6, r7, r8, r9, pc}
 80049d8:	3501      	adds	r5, #1
 80049da:	b26d      	sxtb	r5, r5
 80049dc:	f884 5045 	strb.w	r5, [r4, #69]	; 0x45
 80049e0:	e027      	b.n	8004a32 <xQueueGenericSendFromISR+0xba>
 80049e2:	2000      	movs	r0, #0
 80049e4:	e7f4      	b.n	80049d0 <xQueueGenericSendFromISR+0x58>
 80049e6:	2f02      	cmp	r7, #2
 80049e8:	d102      	bne.n	80049f0 <xQueueGenericSendFromISR+0x78>
 80049ea:	6be3      	ldr	r3, [r4, #60]	; 0x3c
 80049ec:	2b01      	cmp	r3, #1
 80049ee:	d122      	bne.n	8004a36 <xQueueGenericSendFromISR+0xbe>
 80049f0:	f7ff fce8 	bl	80043c4 <vPortValidateInterruptPriority>
 80049f4:	f3ef 8611 	mrs	r6, BASEPRI
 80049f8:	f04f 0350 	mov.w	r3, #80	; 0x50
 80049fc:	b672      	cpsid	i
 80049fe:	f383 8811 	msr	BASEPRI, r3
 8004a02:	f3bf 8f6f 	isb	sy
 8004a06:	f3bf 8f4f 	dsb	sy
 8004a0a:	b662      	cpsie	i
 8004a0c:	6ba2      	ldr	r2, [r4, #56]	; 0x38
 8004a0e:	6be3      	ldr	r3, [r4, #60]	; 0x3c
 8004a10:	429a      	cmp	r2, r3
 8004a12:	d301      	bcc.n	8004a18 <xQueueGenericSendFromISR+0xa0>
 8004a14:	2f02      	cmp	r7, #2
 8004a16:	d1e4      	bne.n	80049e2 <xQueueGenericSendFromISR+0x6a>
 8004a18:	f894 5045 	ldrb.w	r5, [r4, #69]	; 0x45
 8004a1c:	463a      	mov	r2, r7
 8004a1e:	4641      	mov	r1, r8
 8004a20:	4620      	mov	r0, r4
 8004a22:	b26d      	sxtb	r5, r5
 8004a24:	f7ff fdf2 	bl	800460c <prvCopyDataToQueue>
 8004a28:	1c6b      	adds	r3, r5, #1
 8004a2a:	d1d5      	bne.n	80049d8 <xQueueGenericSendFromISR+0x60>
 8004a2c:	6a63      	ldr	r3, [r4, #36]	; 0x24
 8004a2e:	2b00      	cmp	r3, #0
 8004a30:	d1c2      	bne.n	80049b8 <xQueueGenericSendFromISR+0x40>
 8004a32:	2001      	movs	r0, #1
 8004a34:	e7cc      	b.n	80049d0 <xQueueGenericSendFromISR+0x58>
 8004a36:	f04f 0350 	mov.w	r3, #80	; 0x50
 8004a3a:	b672      	cpsid	i
 8004a3c:	f383 8811 	msr	BASEPRI, r3
 8004a40:	f3bf 8f6f 	isb	sy
 8004a44:	f3bf 8f4f 	dsb	sy
 8004a48:	b662      	cpsie	i
 8004a4a:	e7fe      	b.n	8004a4a <xQueueGenericSendFromISR+0xd2>

08004a4c <xQueueGiveFromISR>:
 8004a4c:	b570      	push	{r4, r5, r6, lr}
 8004a4e:	460d      	mov	r5, r1
 8004a50:	4604      	mov	r4, r0
 8004a52:	b950      	cbnz	r0, 8004a6a <xQueueGiveFromISR+0x1e>
 8004a54:	f04f 0350 	mov.w	r3, #80	; 0x50
 8004a58:	b672      	cpsid	i
 8004a5a:	f383 8811 	msr	BASEPRI, r3
 8004a5e:	f3bf 8f6f 	isb	sy
 8004a62:	f3bf 8f4f 	dsb	sy
 8004a66:	b662      	cpsie	i
 8004a68:	e7fe      	b.n	8004a68 <xQueueGiveFromISR+0x1c>
 8004a6a:	6c03      	ldr	r3, [r0, #64]	; 0x40
 8004a6c:	b153      	cbz	r3, 8004a84 <xQueueGiveFromISR+0x38>
 8004a6e:	f04f 0350 	mov.w	r3, #80	; 0x50
 8004a72:	b672      	cpsid	i
 8004a74:	f383 8811 	msr	BASEPRI, r3
 8004a78:	f3bf 8f6f 	isb	sy
 8004a7c:	f3bf 8f4f 	dsb	sy
 8004a80:	b662      	cpsie	i
 8004a82:	e7fe      	b.n	8004a82 <xQueueGiveFromISR+0x36>
 8004a84:	6803      	ldr	r3, [r0, #0]
 8004a86:	b913      	cbnz	r3, 8004a8e <xQueueGiveFromISR+0x42>
 8004a88:	6843      	ldr	r3, [r0, #4]
 8004a8a:	2b00      	cmp	r3, #0
 8004a8c:	d130      	bne.n	8004af0 <xQueueGiveFromISR+0xa4>
 8004a8e:	f7ff fc99 	bl	80043c4 <vPortValidateInterruptPriority>
 8004a92:	f3ef 8611 	mrs	r6, BASEPRI
 8004a96:	f04f 0350 	mov.w	r3, #80	; 0x50
 8004a9a:	b672      	cpsid	i
 8004a9c:	f383 8811 	msr	BASEPRI, r3
 8004aa0:	f3bf 8f6f 	isb	sy
 8004aa4:	f3bf 8f4f 	dsb	sy
 8004aa8:	b662      	cpsie	i
 8004aaa:	6ba2      	ldr	r2, [r4, #56]	; 0x38
 8004aac:	6be3      	ldr	r3, [r4, #60]	; 0x3c
 8004aae:	429a      	cmp	r2, r3
 8004ab0:	d301      	bcc.n	8004ab6 <xQueueGiveFromISR+0x6a>
 8004ab2:	2000      	movs	r0, #0
 8004ab4:	e014      	b.n	8004ae0 <xQueueGiveFromISR+0x94>
 8004ab6:	f894 3045 	ldrb.w	r3, [r4, #69]	; 0x45
 8004aba:	3201      	adds	r2, #1
 8004abc:	b25b      	sxtb	r3, r3
 8004abe:	63a2      	str	r2, [r4, #56]	; 0x38
 8004ac0:	1c5a      	adds	r2, r3, #1
 8004ac2:	d110      	bne.n	8004ae6 <xQueueGiveFromISR+0x9a>
 8004ac4:	6a63      	ldr	r3, [r4, #36]	; 0x24
 8004ac6:	b90b      	cbnz	r3, 8004acc <xQueueGiveFromISR+0x80>
 8004ac8:	2001      	movs	r0, #1
 8004aca:	e009      	b.n	8004ae0 <xQueueGiveFromISR+0x94>
 8004acc:	f104 0024 	add.w	r0, r4, #36	; 0x24
 8004ad0:	f000 fc8a 	bl	80053e8 <xTaskRemoveFromEventList>
 8004ad4:	2800      	cmp	r0, #0
 8004ad6:	d0f7      	beq.n	8004ac8 <xQueueGiveFromISR+0x7c>
 8004ad8:	2d00      	cmp	r5, #0
 8004ada:	d0f5      	beq.n	8004ac8 <xQueueGiveFromISR+0x7c>
 8004adc:	2001      	movs	r0, #1
 8004ade:	6028      	str	r0, [r5, #0]
 8004ae0:	f386 8811 	msr	BASEPRI, r6
 8004ae4:	bd70      	pop	{r4, r5, r6, pc}
 8004ae6:	3301      	adds	r3, #1
 8004ae8:	b25b      	sxtb	r3, r3
 8004aea:	f884 3045 	strb.w	r3, [r4, #69]	; 0x45
 8004aee:	e7eb      	b.n	8004ac8 <xQueueGiveFromISR+0x7c>
 8004af0:	f04f 0350 	mov.w	r3, #80	; 0x50
 8004af4:	b672      	cpsid	i
 8004af6:	f383 8811 	msr	BASEPRI, r3
 8004afa:	f3bf 8f6f 	isb	sy
 8004afe:	f3bf 8f4f 	dsb	sy
 8004b02:	b662      	cpsie	i
 8004b04:	e7fe      	b.n	8004b04 <xQueueGiveFromISR+0xb8>
	...

08004b08 <xQueueGenericReceive>:
 8004b08:	e92d 47ff 	stmdb	sp!, {r0, r1, r2, r3, r4, r5, r6, r7, r8, r9, sl, lr}
 8004b0c:	4688      	mov	r8, r1
 8004b0e:	9201      	str	r2, [sp, #4]
 8004b10:	4699      	mov	r9, r3
 8004b12:	4604      	mov	r4, r0
 8004b14:	b950      	cbnz	r0, 8004b2c <xQueueGenericReceive+0x24>
 8004b16:	f04f 0350 	mov.w	r3, #80	; 0x50
 8004b1a:	b672      	cpsid	i
 8004b1c:	f383 8811 	msr	BASEPRI, r3
 8004b20:	f3bf 8f6f 	isb	sy
 8004b24:	f3bf 8f4f 	dsb	sy
 8004b28:	b662      	cpsie	i
 8004b2a:	e7fe      	b.n	8004b2a <xQueueGenericReceive+0x22>
 8004b2c:	2900      	cmp	r1, #0
 8004b2e:	f040 80a9 	bne.w	8004c84 <xQueueGenericReceive+0x17c>
 8004b32:	6c03      	ldr	r3, [r0, #64]	; 0x40
 8004b34:	2b00      	cmp	r3, #0
 8004b36:	f000 80a5 	beq.w	8004c84 <xQueueGenericReceive+0x17c>
 8004b3a:	f04f 0350 	mov.w	r3, #80	; 0x50
 8004b3e:	b672      	cpsid	i
 8004b40:	f383 8811 	msr	BASEPRI, r3
 8004b44:	f3bf 8f6f 	isb	sy
 8004b48:	f3bf 8f4f 	dsb	sy
 8004b4c:	b662      	cpsie	i
 8004b4e:	e7fe      	b.n	8004b4e <xQueueGenericReceive+0x46>
 8004b50:	9e01      	ldr	r6, [sp, #4]
 8004b52:	2e00      	cmp	r6, #0
 8004b54:	f000 809c 	beq.w	8004c90 <xQueueGenericReceive+0x188>
 8004b58:	f04f 0350 	mov.w	r3, #80	; 0x50
 8004b5c:	b672      	cpsid	i
 8004b5e:	f383 8811 	msr	BASEPRI, r3
 8004b62:	f3bf 8f6f 	isb	sy
 8004b66:	f3bf 8f4f 	dsb	sy
 8004b6a:	b662      	cpsie	i
 8004b6c:	e7fe      	b.n	8004b6c <xQueueGenericReceive+0x64>
 8004b6e:	6a63      	ldr	r3, [r4, #36]	; 0x24
 8004b70:	60e6      	str	r6, [r4, #12]
 8004b72:	2b00      	cmp	r3, #0
 8004b74:	d06d      	beq.n	8004c52 <xQueueGenericReceive+0x14a>
 8004b76:	f104 0024 	add.w	r0, r4, #36	; 0x24
 8004b7a:	e05f      	b.n	8004c3c <xQueueGenericReceive+0x134>
 8004b7c:	9d01      	ldr	r5, [sp, #4]
 8004b7e:	b91d      	cbnz	r5, 8004b88 <xQueueGenericReceive+0x80>
 8004b80:	f7ff fb56 	bl	8004230 <vPortExitCritical>
 8004b84:	4628      	mov	r0, r5
 8004b86:	e067      	b.n	8004c58 <xQueueGenericReceive+0x150>
 8004b88:	b916      	cbnz	r6, 8004b90 <xQueueGenericReceive+0x88>
 8004b8a:	a802      	add	r0, sp, #8
 8004b8c:	f000 fc70 	bl	8005470 <vTaskSetTimeOutState>
 8004b90:	f7ff fb4e 	bl	8004230 <vPortExitCritical>
 8004b94:	f000 fa4c 	bl	8005030 <vTaskSuspendAll>
 8004b98:	f7ff fb24 	bl	80041e4 <vPortEnterCritical>
 8004b9c:	f894 3044 	ldrb.w	r3, [r4, #68]	; 0x44
 8004ba0:	2bff      	cmp	r3, #255	; 0xff
 8004ba2:	d101      	bne.n	8004ba8 <xQueueGenericReceive+0xa0>
 8004ba4:	f884 7044 	strb.w	r7, [r4, #68]	; 0x44
 8004ba8:	f894 3045 	ldrb.w	r3, [r4, #69]	; 0x45
 8004bac:	2bff      	cmp	r3, #255	; 0xff
 8004bae:	d101      	bne.n	8004bb4 <xQueueGenericReceive+0xac>
 8004bb0:	f884 7045 	strb.w	r7, [r4, #69]	; 0x45
 8004bb4:	f7ff fb3c 	bl	8004230 <vPortExitCritical>
 8004bb8:	a901      	add	r1, sp, #4
 8004bba:	a802      	add	r0, sp, #8
 8004bbc:	f000 fc68 	bl	8005490 <xTaskCheckForTimeOut>
 8004bc0:	2800      	cmp	r0, #0
 8004bc2:	d152      	bne.n	8004c6a <xQueueGenericReceive+0x162>
 8004bc4:	f7ff fb0e 	bl	80041e4 <vPortEnterCritical>
 8004bc8:	6ba5      	ldr	r5, [r4, #56]	; 0x38
 8004bca:	f7ff fb31 	bl	8004230 <vPortExitCritical>
 8004bce:	2d00      	cmp	r5, #0
 8004bd0:	d145      	bne.n	8004c5e <xQueueGenericReceive+0x156>
 8004bd2:	6823      	ldr	r3, [r4, #0]
 8004bd4:	b933      	cbnz	r3, 8004be4 <xQueueGenericReceive+0xdc>
 8004bd6:	f7ff fb05 	bl	80041e4 <vPortEnterCritical>
 8004bda:	6860      	ldr	r0, [r4, #4]
 8004bdc:	f000 fcac 	bl	8005538 <vTaskPriorityInherit>
 8004be0:	f7ff fb26 	bl	8004230 <vPortExitCritical>
 8004be4:	9901      	ldr	r1, [sp, #4]
 8004be6:	f104 0024 	add.w	r0, r4, #36	; 0x24
 8004bea:	f000 fbe1 	bl	80053b0 <vTaskPlaceOnEventList>
 8004bee:	4620      	mov	r0, r4
 8004bf0:	f7ff fd54 	bl	800469c <prvUnlockQueue>
 8004bf4:	f000 fac6 	bl	8005184 <xTaskResumeAll>
 8004bf8:	b938      	cbnz	r0, 8004c0a <xQueueGenericReceive+0x102>
 8004bfa:	f04f 5380 	mov.w	r3, #268435456	; 0x10000000
 8004bfe:	f8ca 3000 	str.w	r3, [sl]
 8004c02:	f3bf 8f4f 	dsb	sy
 8004c06:	f3bf 8f6f 	isb	sy
 8004c0a:	2601      	movs	r6, #1
 8004c0c:	f7ff faea 	bl	80041e4 <vPortEnterCritical>
 8004c10:	6ba5      	ldr	r5, [r4, #56]	; 0x38
 8004c12:	2d00      	cmp	r5, #0
 8004c14:	d0b2      	beq.n	8004b7c <xQueueGenericReceive+0x74>
 8004c16:	4641      	mov	r1, r8
 8004c18:	4620      	mov	r0, r4
 8004c1a:	68e6      	ldr	r6, [r4, #12]
 8004c1c:	f7ff fd29 	bl	8004672 <prvCopyDataFromQueue>
 8004c20:	f1b9 0f00 	cmp.w	r9, #0
 8004c24:	d1a3      	bne.n	8004b6e <xQueueGenericReceive+0x66>
 8004c26:	3d01      	subs	r5, #1
 8004c28:	6823      	ldr	r3, [r4, #0]
 8004c2a:	63a5      	str	r5, [r4, #56]	; 0x38
 8004c2c:	b913      	cbnz	r3, 8004c34 <xQueueGenericReceive+0x12c>
 8004c2e:	f000 fd1d 	bl	800566c <pvTaskIncrementMutexHeldCount>
 8004c32:	6060      	str	r0, [r4, #4]
 8004c34:	6923      	ldr	r3, [r4, #16]
 8004c36:	b163      	cbz	r3, 8004c52 <xQueueGenericReceive+0x14a>
 8004c38:	f104 0010 	add.w	r0, r4, #16
 8004c3c:	f000 fbd4 	bl	80053e8 <xTaskRemoveFromEventList>
 8004c40:	b138      	cbz	r0, 8004c52 <xQueueGenericReceive+0x14a>
 8004c42:	f04f 5280 	mov.w	r2, #268435456	; 0x10000000
 8004c46:	4b14      	ldr	r3, [pc, #80]	; (8004c98 <xQueueGenericReceive+0x190>)
 8004c48:	601a      	str	r2, [r3, #0]
 8004c4a:	f3bf 8f4f 	dsb	sy
 8004c4e:	f3bf 8f6f 	isb	sy
 8004c52:	f7ff faed 	bl	8004230 <vPortExitCritical>
 8004c56:	2001      	movs	r0, #1
 8004c58:	b004      	add	sp, #16
 8004c5a:	e8bd 87f0 	ldmia.w	sp!, {r4, r5, r6, r7, r8, r9, sl, pc}
 8004c5e:	4620      	mov	r0, r4
 8004c60:	f7ff fd1c 	bl	800469c <prvUnlockQueue>
 8004c64:	f000 fa8e 	bl	8005184 <xTaskResumeAll>
 8004c68:	e7cf      	b.n	8004c0a <xQueueGenericReceive+0x102>
 8004c6a:	4620      	mov	r0, r4
 8004c6c:	f7ff fd16 	bl	800469c <prvUnlockQueue>
 8004c70:	f000 fa88 	bl	8005184 <xTaskResumeAll>
 8004c74:	f7ff fab6 	bl	80041e4 <vPortEnterCritical>
 8004c78:	6ba5      	ldr	r5, [r4, #56]	; 0x38
 8004c7a:	f7ff fad9 	bl	8004230 <vPortExitCritical>
 8004c7e:	2d00      	cmp	r5, #0
 8004c80:	d1c3      	bne.n	8004c0a <xQueueGenericReceive+0x102>
 8004c82:	e77f      	b.n	8004b84 <xQueueGenericReceive+0x7c>
 8004c84:	f000 fc48 	bl	8005518 <xTaskGetSchedulerState>
 8004c88:	2800      	cmp	r0, #0
 8004c8a:	f43f af61 	beq.w	8004b50 <xQueueGenericReceive+0x48>
 8004c8e:	2600      	movs	r6, #0
 8004c90:	2700      	movs	r7, #0
 8004c92:	f8df a004 	ldr.w	sl, [pc, #4]	; 8004c98 <xQueueGenericReceive+0x190>
 8004c96:	e7b9      	b.n	8004c0c <xQueueGenericReceive+0x104>
 8004c98:	e000ed04 	.word	0xe000ed04

08004c9c <xQueueReceiveFromISR>:
 8004c9c:	e92d 43f8 	stmdb	sp!, {r3, r4, r5, r6, r7, r8, r9, lr}
 8004ca0:	4689      	mov	r9, r1
 8004ca2:	4690      	mov	r8, r2
 8004ca4:	4605      	mov	r5, r0
 8004ca6:	b950      	cbnz	r0, 8004cbe <xQueueReceiveFromISR+0x22>
 8004ca8:	f04f 0350 	mov.w	r3, #80	; 0x50
 8004cac:	b672      	cpsid	i
 8004cae:	f383 8811 	msr	BASEPRI, r3
 8004cb2:	f3bf 8f6f 	isb	sy
 8004cb6:	f3bf 8f4f 	dsb	sy
 8004cba:	b662      	cpsie	i
 8004cbc:	e7fe      	b.n	8004cbc <xQueueReceiveFromISR+0x20>
 8004cbe:	bb81      	cbnz	r1, 8004d22 <xQueueReceiveFromISR+0x86>
 8004cc0:	6c03      	ldr	r3, [r0, #64]	; 0x40
 8004cc2:	b373      	cbz	r3, 8004d22 <xQueueReceiveFromISR+0x86>
 8004cc4:	f04f 0350 	mov.w	r3, #80	; 0x50
 8004cc8:	b672      	cpsid	i
 8004cca:	f383 8811 	msr	BASEPRI, r3
 8004cce:	f3bf 8f6f 	isb	sy
 8004cd2:	f3bf 8f4f 	dsb	sy
 8004cd6:	b662      	cpsie	i
 8004cd8:	e7fe      	b.n	8004cd8 <xQueueReceiveFromISR+0x3c>
 8004cda:	f895 6044 	ldrb.w	r6, [r5, #68]	; 0x44
 8004cde:	4649      	mov	r1, r9
 8004ce0:	4628      	mov	r0, r5
 8004ce2:	3c01      	subs	r4, #1
 8004ce4:	b276      	sxtb	r6, r6
 8004ce6:	f7ff fcc4 	bl	8004672 <prvCopyDataFromQueue>
 8004cea:	63ac      	str	r4, [r5, #56]	; 0x38
 8004cec:	1c73      	adds	r3, r6, #1
 8004cee:	d113      	bne.n	8004d18 <xQueueReceiveFromISR+0x7c>
 8004cf0:	692b      	ldr	r3, [r5, #16]
 8004cf2:	b90b      	cbnz	r3, 8004cf8 <xQueueReceiveFromISR+0x5c>
 8004cf4:	2001      	movs	r0, #1
 8004cf6:	e00b      	b.n	8004d10 <xQueueReceiveFromISR+0x74>
 8004cf8:	f105 0010 	add.w	r0, r5, #16
 8004cfc:	f000 fb74 	bl	80053e8 <xTaskRemoveFromEventList>
 8004d00:	2800      	cmp	r0, #0
 8004d02:	d0f7      	beq.n	8004cf4 <xQueueReceiveFromISR+0x58>
 8004d04:	f1b8 0f00 	cmp.w	r8, #0
 8004d08:	d0f4      	beq.n	8004cf4 <xQueueReceiveFromISR+0x58>
 8004d0a:	2001      	movs	r0, #1
 8004d0c:	f8c8 0000 	str.w	r0, [r8]
 8004d10:	f387 8811 	msr	BASEPRI, r7
 8004d14:	e8bd 83f8 	ldmia.w	sp!, {r3, r4, r5, r6, r7, r8, r9, pc}
 8004d18:	3601      	adds	r6, #1
 8004d1a:	b276      	sxtb	r6, r6
 8004d1c:	f885 6044 	strb.w	r6, [r5, #68]	; 0x44
 8004d20:	e7e8      	b.n	8004cf4 <xQueueReceiveFromISR+0x58>
 8004d22:	f7ff fb4f 	bl	80043c4 <vPortValidateInterruptPriority>
 8004d26:	f3ef 8711 	mrs	r7, BASEPRI
 8004d2a:	f04f 0350 	mov.w	r3, #80	; 0x50
 8004d2e:	b672      	cpsid	i
 8004d30:	f383 8811 	msr	BASEPRI, r3
 8004d34:	f3bf 8f6f 	isb	sy
 8004d38:	f3bf 8f4f 	dsb	sy
 8004d3c:	b662      	cpsie	i
 8004d3e:	6bac      	ldr	r4, [r5, #56]	; 0x38
 8004d40:	2c00      	cmp	r4, #0
 8004d42:	d1ca      	bne.n	8004cda <xQueueReceiveFromISR+0x3e>
 8004d44:	4620      	mov	r0, r4
 8004d46:	e7e3      	b.n	8004d10 <xQueueReceiveFromISR+0x74>

08004d48 <prvResetNextTaskUnblockTime>:
 8004d48:	4a06      	ldr	r2, [pc, #24]	; (8004d64 <prvResetNextTaskUnblockTime+0x1c>)
 8004d4a:	6813      	ldr	r3, [r2, #0]
 8004d4c:	6819      	ldr	r1, [r3, #0]
 8004d4e:	4b06      	ldr	r3, [pc, #24]	; (8004d68 <prvResetNextTaskUnblockTime+0x20>)
 8004d50:	b919      	cbnz	r1, 8004d5a <prvResetNextTaskUnblockTime+0x12>
 8004d52:	f04f 32ff 	mov.w	r2, #4294967295
 8004d56:	601a      	str	r2, [r3, #0]
 8004d58:	4770      	bx	lr
 8004d5a:	6812      	ldr	r2, [r2, #0]
 8004d5c:	68d2      	ldr	r2, [r2, #12]
 8004d5e:	68d2      	ldr	r2, [r2, #12]
 8004d60:	6852      	ldr	r2, [r2, #4]
 8004d62:	e7f8      	b.n	8004d56 <prvResetNextTaskUnblockTime+0xe>
 8004d64:	20003e18 	.word	0x20003e18
 8004d68:	20003ef0 	.word	0x20003ef0

08004d6c <prvAddCurrentTaskToDelayedList>:
 8004d6c:	b5f8      	push	{r3, r4, r5, r6, r7, lr}
 8004d6e:	4b1b      	ldr	r3, [pc, #108]	; (8004ddc <prvAddCurrentTaskToDelayedList+0x70>)
 8004d70:	4604      	mov	r4, r0
 8004d72:	4e1b      	ldr	r6, [pc, #108]	; (8004de0 <prvAddCurrentTaskToDelayedList+0x74>)
 8004d74:	460f      	mov	r7, r1
 8004d76:	681d      	ldr	r5, [r3, #0]
 8004d78:	6830      	ldr	r0, [r6, #0]
 8004d7a:	3004      	adds	r0, #4
 8004d7c:	f7ff f9c3 	bl	8004106 <uxListRemove>
 8004d80:	4633      	mov	r3, r6
 8004d82:	b940      	cbnz	r0, 8004d96 <prvAddCurrentTaskToDelayedList+0x2a>
 8004d84:	6831      	ldr	r1, [r6, #0]
 8004d86:	2001      	movs	r0, #1
 8004d88:	4e16      	ldr	r6, [pc, #88]	; (8004de4 <prvAddCurrentTaskToDelayedList+0x78>)
 8004d8a:	6ac9      	ldr	r1, [r1, #44]	; 0x2c
 8004d8c:	6832      	ldr	r2, [r6, #0]
 8004d8e:	4088      	lsls	r0, r1
 8004d90:	ea22 0200 	bic.w	r2, r2, r0
 8004d94:	6032      	str	r2, [r6, #0]
 8004d96:	1c62      	adds	r2, r4, #1
 8004d98:	d107      	bne.n	8004daa <prvAddCurrentTaskToDelayedList+0x3e>
 8004d9a:	b137      	cbz	r7, 8004daa <prvAddCurrentTaskToDelayedList+0x3e>
 8004d9c:	6819      	ldr	r1, [r3, #0]
 8004d9e:	4812      	ldr	r0, [pc, #72]	; (8004de8 <prvAddCurrentTaskToDelayedList+0x7c>)
 8004da0:	3104      	adds	r1, #4
 8004da2:	e8bd 40f8 	ldmia.w	sp!, {r3, r4, r5, r6, r7, lr}
 8004da6:	f7ff b98b 	b.w	80040c0 <vListInsertEnd>
 8004daa:	442c      	add	r4, r5
 8004dac:	681a      	ldr	r2, [r3, #0]
 8004dae:	42a5      	cmp	r5, r4
 8004db0:	6054      	str	r4, [r2, #4]
 8004db2:	d907      	bls.n	8004dc4 <prvAddCurrentTaskToDelayedList+0x58>
 8004db4:	4a0d      	ldr	r2, [pc, #52]	; (8004dec <prvAddCurrentTaskToDelayedList+0x80>)
 8004db6:	6810      	ldr	r0, [r2, #0]
 8004db8:	6819      	ldr	r1, [r3, #0]
 8004dba:	e8bd 40f8 	ldmia.w	sp!, {r3, r4, r5, r6, r7, lr}
 8004dbe:	3104      	adds	r1, #4
 8004dc0:	f7ff b98a 	b.w	80040d8 <vListInsert>
 8004dc4:	4a0a      	ldr	r2, [pc, #40]	; (8004df0 <prvAddCurrentTaskToDelayedList+0x84>)
 8004dc6:	6810      	ldr	r0, [r2, #0]
 8004dc8:	6819      	ldr	r1, [r3, #0]
 8004dca:	3104      	adds	r1, #4
 8004dcc:	f7ff f984 	bl	80040d8 <vListInsert>
 8004dd0:	4b08      	ldr	r3, [pc, #32]	; (8004df4 <prvAddCurrentTaskToDelayedList+0x88>)
 8004dd2:	681a      	ldr	r2, [r3, #0]
 8004dd4:	4294      	cmp	r4, r2
 8004dd6:	d200      	bcs.n	8004dda <prvAddCurrentTaskToDelayedList+0x6e>
 8004dd8:	601c      	str	r4, [r3, #0]
 8004dda:	bdf8      	pop	{r3, r4, r5, r6, r7, pc}
 8004ddc:	20003f38 	.word	0x20003f38
 8004de0:	20003e14 	.word	0x20003e14
 8004de4:	20003ec0 	.word	0x20003ec0
 8004de8:	20003f10 	.word	0x20003f10
 8004dec:	20003e1c 	.word	0x20003e1c
 8004df0:	20003e18 	.word	0x20003e18
 8004df4:	20003ef0 	.word	0x20003ef0

08004df8 <prvTaskIsTaskSuspended.part.0>:
 8004df8:	f04f 0350 	mov.w	r3, #80	; 0x50
 8004dfc:	b672      	cpsid	i
 8004dfe:	f383 8811 	msr	BASEPRI, r3
 8004e02:	f3bf 8f6f 	isb	sy
 8004e06:	f3bf 8f4f 	dsb	sy
 8004e0a:	b662      	cpsie	i
 8004e0c:	e7fe      	b.n	8004e0c <prvTaskIsTaskSuspended.part.0+0x14>
	...

08004e10 <xTaskCreate>:
 8004e10:	e92d 4ff8 	stmdb	sp!, {r3, r4, r5, r6, r7, r8, r9, sl, fp, lr}
 8004e14:	ea4f 0a82 	mov.w	sl, r2, lsl #2
 8004e18:	4680      	mov	r8, r0
 8004e1a:	460f      	mov	r7, r1
 8004e1c:	4699      	mov	r9, r3
 8004e1e:	4650      	mov	r0, sl
 8004e20:	9e0b      	ldr	r6, [sp, #44]	; 0x2c
 8004e22:	f7ff fb25 	bl	8004470 <pvPortMalloc>
 8004e26:	4605      	mov	r5, r0
 8004e28:	2800      	cmp	r0, #0
 8004e2a:	f000 8096 	beq.w	8004f5a <xTaskCreate+0x14a>
 8004e2e:	2054      	movs	r0, #84	; 0x54
 8004e30:	f7ff fb1e 	bl	8004470 <pvPortMalloc>
 8004e34:	4604      	mov	r4, r0
 8004e36:	2800      	cmp	r0, #0
 8004e38:	f000 808c 	beq.w	8004f54 <xTaskCreate+0x144>
 8004e3c:	f1aa 0a04 	sub.w	sl, sl, #4
 8004e40:	6305      	str	r5, [r0, #48]	; 0x30
 8004e42:	1e7b      	subs	r3, r7, #1
 8004e44:	f100 0234 	add.w	r2, r0, #52	; 0x34
 8004e48:	4455      	add	r5, sl
 8004e4a:	370f      	adds	r7, #15
 8004e4c:	f025 0a07 	bic.w	sl, r5, #7
 8004e50:	7859      	ldrb	r1, [r3, #1]
 8004e52:	f802 1b01 	strb.w	r1, [r2], #1
 8004e56:	f813 1f01 	ldrb.w	r1, [r3, #1]!
 8004e5a:	b109      	cbz	r1, 8004e60 <xTaskCreate+0x50>
 8004e5c:	42bb      	cmp	r3, r7
 8004e5e:	d1f7      	bne.n	8004e50 <xTaskCreate+0x40>
 8004e60:	9d0a      	ldr	r5, [sp, #40]	; 0x28
 8004e62:	f04f 0b00 	mov.w	fp, #0
 8004e66:	1d27      	adds	r7, r4, #4
 8004e68:	2d06      	cmp	r5, #6
 8004e6a:	f884 b043 	strb.w	fp, [r4, #67]	; 0x43
 8004e6e:	4638      	mov	r0, r7
 8004e70:	f8c4 b048 	str.w	fp, [r4, #72]	; 0x48
 8004e74:	bf28      	it	cs
 8004e76:	2506      	movcs	r5, #6
 8004e78:	62e5      	str	r5, [r4, #44]	; 0x2c
 8004e7a:	6465      	str	r5, [r4, #68]	; 0x44
 8004e7c:	f1c5 0507 	rsb	r5, r5, #7
 8004e80:	f7ff f91b 	bl	80040ba <vListInitialiseItem>
 8004e84:	f104 0018 	add.w	r0, r4, #24
 8004e88:	f7ff f917 	bl	80040ba <vListInitialiseItem>
 8004e8c:	f8c4 b04c 	str.w	fp, [r4, #76]	; 0x4c
 8004e90:	6124      	str	r4, [r4, #16]
 8004e92:	464a      	mov	r2, r9
 8004e94:	61a5      	str	r5, [r4, #24]
 8004e96:	4641      	mov	r1, r8
 8004e98:	6264      	str	r4, [r4, #36]	; 0x24
 8004e9a:	4650      	mov	r0, sl
 8004e9c:	f884 b050 	strb.w	fp, [r4, #80]	; 0x50
 8004ea0:	f7ff f978 	bl	8004194 <pxPortInitialiseStack>
 8004ea4:	6020      	str	r0, [r4, #0]
 8004ea6:	b106      	cbz	r6, 8004eaa <xTaskCreate+0x9a>
 8004ea8:	6034      	str	r4, [r6, #0]
 8004eaa:	f7ff f99b 	bl	80041e4 <vPortEnterCritical>
 8004eae:	4b32      	ldr	r3, [pc, #200]	; (8004f78 <xTaskCreate+0x168>)
 8004eb0:	4e32      	ldr	r6, [pc, #200]	; (8004f7c <xTaskCreate+0x16c>)
 8004eb2:	681a      	ldr	r2, [r3, #0]
 8004eb4:	f8df 80f0 	ldr.w	r8, [pc, #240]	; 8004fa8 <xTaskCreate+0x198>
 8004eb8:	3201      	adds	r2, #1
 8004eba:	601a      	str	r2, [r3, #0]
 8004ebc:	6835      	ldr	r5, [r6, #0]
 8004ebe:	2d00      	cmp	r5, #0
 8004ec0:	d14e      	bne.n	8004f60 <xTaskCreate+0x150>
 8004ec2:	6034      	str	r4, [r6, #0]
 8004ec4:	681b      	ldr	r3, [r3, #0]
 8004ec6:	2b01      	cmp	r3, #1
 8004ec8:	d11d      	bne.n	8004f06 <xTaskCreate+0xf6>
 8004eca:	eb08 0005 	add.w	r0, r8, r5
 8004ece:	3514      	adds	r5, #20
 8004ed0:	f7ff f8e8 	bl	80040a4 <vListInitialise>
 8004ed4:	2d8c      	cmp	r5, #140	; 0x8c
 8004ed6:	d1f8      	bne.n	8004eca <xTaskCreate+0xba>
 8004ed8:	f8df 90d0 	ldr.w	r9, [pc, #208]	; 8004fac <xTaskCreate+0x19c>
 8004edc:	4d28      	ldr	r5, [pc, #160]	; (8004f80 <xTaskCreate+0x170>)
 8004ede:	4648      	mov	r0, r9
 8004ee0:	f7ff f8e0 	bl	80040a4 <vListInitialise>
 8004ee4:	4628      	mov	r0, r5
 8004ee6:	f7ff f8dd 	bl	80040a4 <vListInitialise>
 8004eea:	4826      	ldr	r0, [pc, #152]	; (8004f84 <xTaskCreate+0x174>)
 8004eec:	f7ff f8da 	bl	80040a4 <vListInitialise>
 8004ef0:	4825      	ldr	r0, [pc, #148]	; (8004f88 <xTaskCreate+0x178>)
 8004ef2:	f7ff f8d7 	bl	80040a4 <vListInitialise>
 8004ef6:	4825      	ldr	r0, [pc, #148]	; (8004f8c <xTaskCreate+0x17c>)
 8004ef8:	f7ff f8d4 	bl	80040a4 <vListInitialise>
 8004efc:	4b24      	ldr	r3, [pc, #144]	; (8004f90 <xTaskCreate+0x180>)
 8004efe:	f8c3 9000 	str.w	r9, [r3]
 8004f02:	4b24      	ldr	r3, [pc, #144]	; (8004f94 <xTaskCreate+0x184>)
 8004f04:	601d      	str	r5, [r3, #0]
 8004f06:	4a24      	ldr	r2, [pc, #144]	; (8004f98 <xTaskCreate+0x188>)
 8004f08:	2501      	movs	r5, #1
 8004f0a:	4924      	ldr	r1, [pc, #144]	; (8004f9c <xTaskCreate+0x18c>)
 8004f0c:	6813      	ldr	r3, [r2, #0]
 8004f0e:	6808      	ldr	r0, [r1, #0]
 8004f10:	3301      	adds	r3, #1
 8004f12:	6013      	str	r3, [r2, #0]
 8004f14:	6ae2      	ldr	r2, [r4, #44]	; 0x2c
 8004f16:	fa05 f302 	lsl.w	r3, r5, r2
 8004f1a:	4303      	orrs	r3, r0
 8004f1c:	2014      	movs	r0, #20
 8004f1e:	600b      	str	r3, [r1, #0]
 8004f20:	4639      	mov	r1, r7
 8004f22:	fb00 8002 	mla	r0, r0, r2, r8
 8004f26:	f7ff f8cb 	bl	80040c0 <vListInsertEnd>
 8004f2a:	f7ff f981 	bl	8004230 <vPortExitCritical>
 8004f2e:	4b1c      	ldr	r3, [pc, #112]	; (8004fa0 <xTaskCreate+0x190>)
 8004f30:	681b      	ldr	r3, [r3, #0]
 8004f32:	b163      	cbz	r3, 8004f4e <xTaskCreate+0x13e>
 8004f34:	6833      	ldr	r3, [r6, #0]
 8004f36:	6ada      	ldr	r2, [r3, #44]	; 0x2c
 8004f38:	6ae3      	ldr	r3, [r4, #44]	; 0x2c
 8004f3a:	429a      	cmp	r2, r3
 8004f3c:	d207      	bcs.n	8004f4e <xTaskCreate+0x13e>
 8004f3e:	f04f 5280 	mov.w	r2, #268435456	; 0x10000000
 8004f42:	4b18      	ldr	r3, [pc, #96]	; (8004fa4 <xTaskCreate+0x194>)
 8004f44:	601a      	str	r2, [r3, #0]
 8004f46:	f3bf 8f4f 	dsb	sy
 8004f4a:	f3bf 8f6f 	isb	sy
 8004f4e:	4628      	mov	r0, r5
 8004f50:	e8bd 8ff8 	ldmia.w	sp!, {r3, r4, r5, r6, r7, r8, r9, sl, fp, pc}
 8004f54:	4628      	mov	r0, r5
 8004f56:	f7ff fb1d 	bl	8004594 <vPortFree>
 8004f5a:	f04f 35ff 	mov.w	r5, #4294967295
 8004f5e:	e7f6      	b.n	8004f4e <xTaskCreate+0x13e>
 8004f60:	4b0f      	ldr	r3, [pc, #60]	; (8004fa0 <xTaskCreate+0x190>)
 8004f62:	681b      	ldr	r3, [r3, #0]
 8004f64:	2b00      	cmp	r3, #0
 8004f66:	d1ce      	bne.n	8004f06 <xTaskCreate+0xf6>
 8004f68:	6833      	ldr	r3, [r6, #0]
 8004f6a:	6ada      	ldr	r2, [r3, #44]	; 0x2c
 8004f6c:	6ae3      	ldr	r3, [r4, #44]	; 0x2c
 8004f6e:	429a      	cmp	r2, r3
 8004f70:	d8c9      	bhi.n	8004f06 <xTaskCreate+0xf6>
 8004f72:	6034      	str	r4, [r6, #0]
 8004f74:	e7c7      	b.n	8004f06 <xTaskCreate+0xf6>
 8004f76:	bf00      	nop
 8004f78:	20003eac 	.word	0x20003eac
 8004f7c:	20003e14 	.word	0x20003e14
 8004f80:	20003ed8 	.word	0x20003ed8
 8004f84:	20003ef8 	.word	0x20003ef8
 8004f88:	20003f24 	.word	0x20003f24
 8004f8c:	20003f10 	.word	0x20003f10
 8004f90:	20003e18 	.word	0x20003e18
 8004f94:	20003e1c 	.word	0x20003e1c
 8004f98:	20003ebc 	.word	0x20003ebc
 8004f9c:	20003ec0 	.word	0x20003ec0
 8004fa0:	20003f0c 	.word	0x20003f0c
 8004fa4:	e000ed04 	.word	0xe000ed04
 8004fa8:	20003e20 	.word	0x20003e20
 8004fac:	20003ec4 	.word	0x20003ec4

08004fb0 <vTaskStartScheduler>:
 8004fb0:	b513      	push	{r0, r1, r4, lr}
 8004fb2:	4b19      	ldr	r3, [pc, #100]	; (8005018 <vTaskStartScheduler+0x68>)
 8004fb4:	2400      	movs	r4, #0
 8004fb6:	2280      	movs	r2, #128	; 0x80
 8004fb8:	4918      	ldr	r1, [pc, #96]	; (800501c <vTaskStartScheduler+0x6c>)
 8004fba:	9301      	str	r3, [sp, #4]
 8004fbc:	4623      	mov	r3, r4
 8004fbe:	9400      	str	r4, [sp, #0]
 8004fc0:	4817      	ldr	r0, [pc, #92]	; (8005020 <vTaskStartScheduler+0x70>)
 8004fc2:	f7ff ff25 	bl	8004e10 <xTaskCreate>
 8004fc6:	2801      	cmp	r0, #1
 8004fc8:	d116      	bne.n	8004ff8 <vTaskStartScheduler+0x48>
 8004fca:	f04f 0350 	mov.w	r3, #80	; 0x50
 8004fce:	b672      	cpsid	i
 8004fd0:	f383 8811 	msr	BASEPRI, r3
 8004fd4:	f3bf 8f6f 	isb	sy
 8004fd8:	f3bf 8f4f 	dsb	sy
 8004fdc:	b662      	cpsie	i
 8004fde:	f04f 32ff 	mov.w	r2, #4294967295
 8004fe2:	4b10      	ldr	r3, [pc, #64]	; (8005024 <vTaskStartScheduler+0x74>)
 8004fe4:	601a      	str	r2, [r3, #0]
 8004fe6:	4b10      	ldr	r3, [pc, #64]	; (8005028 <vTaskStartScheduler+0x78>)
 8004fe8:	6018      	str	r0, [r3, #0]
 8004fea:	4b10      	ldr	r3, [pc, #64]	; (800502c <vTaskStartScheduler+0x7c>)
 8004fec:	601c      	str	r4, [r3, #0]
 8004fee:	b002      	add	sp, #8
 8004ff0:	e8bd 4010 	ldmia.w	sp!, {r4, lr}
 8004ff4:	f7ff b992 	b.w	800431c <xPortStartScheduler>
 8004ff8:	3001      	adds	r0, #1
 8004ffa:	d10a      	bne.n	8005012 <vTaskStartScheduler+0x62>
 8004ffc:	f04f 0350 	mov.w	r3, #80	; 0x50
 8005000:	b672      	cpsid	i
 8005002:	f383 8811 	msr	BASEPRI, r3
 8005006:	f3bf 8f6f 	isb	sy
 800500a:	f3bf 8f4f 	dsb	sy
 800500e:	b662      	cpsie	i
 8005010:	e7fe      	b.n	8005010 <vTaskStartScheduler+0x60>
 8005012:	b002      	add	sp, #8
 8005014:	bd10      	pop	{r4, pc}
 8005016:	bf00      	nop
 8005018:	20003eec 	.word	0x20003eec
 800501c:	0800c609 	.word	0x0800c609
 8005020:	080052c5 	.word	0x080052c5
 8005024:	20003ef0 	.word	0x20003ef0
 8005028:	20003f0c 	.word	0x20003f0c
 800502c:	20003f38 	.word	0x20003f38

08005030 <vTaskSuspendAll>:
 8005030:	4a02      	ldr	r2, [pc, #8]	; (800503c <vTaskSuspendAll+0xc>)
 8005032:	6813      	ldr	r3, [r2, #0]
 8005034:	3301      	adds	r3, #1
 8005036:	6013      	str	r3, [r2, #0]
 8005038:	4770      	bx	lr
 800503a:	bf00      	nop
 800503c:	20003eb8 	.word	0x20003eb8

08005040 <xTaskGetTickCount>:
 8005040:	4b01      	ldr	r3, [pc, #4]	; (8005048 <xTaskGetTickCount+0x8>)
 8005042:	6818      	ldr	r0, [r3, #0]
 8005044:	4770      	bx	lr
 8005046:	bf00      	nop
 8005048:	20003f38 	.word	0x20003f38

0800504c <xTaskGetTickCountFromISR>:
 800504c:	b508      	push	{r3, lr}
 800504e:	f7ff f9b9 	bl	80043c4 <vPortValidateInterruptPriority>
 8005052:	4b01      	ldr	r3, [pc, #4]	; (8005058 <xTaskGetTickCountFromISR+0xc>)
 8005054:	6818      	ldr	r0, [r3, #0]
 8005056:	bd08      	pop	{r3, pc}
 8005058:	20003f38 	.word	0x20003f38

0800505c <xTaskIncrementTick>:
 800505c:	e92d 4ff8 	stmdb	sp!, {r3, r4, r5, r6, r7, r8, r9, sl, fp, lr}
 8005060:	4b3d      	ldr	r3, [pc, #244]	; (8005158 <xTaskIncrementTick+0xfc>)
 8005062:	681b      	ldr	r3, [r3, #0]
 8005064:	2b00      	cmp	r3, #0
 8005066:	d155      	bne.n	8005114 <xTaskIncrementTick+0xb8>
 8005068:	4b3c      	ldr	r3, [pc, #240]	; (800515c <xTaskIncrementTick+0x100>)
 800506a:	681c      	ldr	r4, [r3, #0]
 800506c:	3401      	adds	r4, #1
 800506e:	601c      	str	r4, [r3, #0]
 8005070:	b9cc      	cbnz	r4, 80050a6 <xTaskIncrementTick+0x4a>
 8005072:	4b3b      	ldr	r3, [pc, #236]	; (8005160 <xTaskIncrementTick+0x104>)
 8005074:	681a      	ldr	r2, [r3, #0]
 8005076:	6812      	ldr	r2, [r2, #0]
 8005078:	b152      	cbz	r2, 8005090 <xTaskIncrementTick+0x34>
 800507a:	f04f 0350 	mov.w	r3, #80	; 0x50
 800507e:	b672      	cpsid	i
 8005080:	f383 8811 	msr	BASEPRI, r3
 8005084:	f3bf 8f6f 	isb	sy
 8005088:	f3bf 8f4f 	dsb	sy
 800508c:	b662      	cpsie	i
 800508e:	e7fe      	b.n	800508e <xTaskIncrementTick+0x32>
 8005090:	4a34      	ldr	r2, [pc, #208]	; (8005164 <xTaskIncrementTick+0x108>)
 8005092:	6819      	ldr	r1, [r3, #0]
 8005094:	6810      	ldr	r0, [r2, #0]
 8005096:	6018      	str	r0, [r3, #0]
 8005098:	6011      	str	r1, [r2, #0]
 800509a:	4a33      	ldr	r2, [pc, #204]	; (8005168 <xTaskIncrementTick+0x10c>)
 800509c:	6813      	ldr	r3, [r2, #0]
 800509e:	3301      	adds	r3, #1
 80050a0:	6013      	str	r3, [r2, #0]
 80050a2:	f7ff fe51 	bl	8004d48 <prvResetNextTaskUnblockTime>
 80050a6:	4d31      	ldr	r5, [pc, #196]	; (800516c <xTaskIncrementTick+0x110>)
 80050a8:	f04f 0b00 	mov.w	fp, #0
 80050ac:	4f30      	ldr	r7, [pc, #192]	; (8005170 <xTaskIncrementTick+0x114>)
 80050ae:	682b      	ldr	r3, [r5, #0]
 80050b0:	429c      	cmp	r4, r3
 80050b2:	d33e      	bcc.n	8005132 <xTaskIncrementTick+0xd6>
 80050b4:	f8df 80a8 	ldr.w	r8, [pc, #168]	; 8005160 <xTaskIncrementTick+0x104>
 80050b8:	f8df 90c4 	ldr.w	r9, [pc, #196]	; 8005180 <xTaskIncrementTick+0x124>
 80050bc:	f8d8 2000 	ldr.w	r2, [r8]
 80050c0:	6812      	ldr	r2, [r2, #0]
 80050c2:	bb72      	cbnz	r2, 8005122 <xTaskIncrementTick+0xc6>
 80050c4:	f04f 32ff 	mov.w	r2, #4294967295
 80050c8:	602a      	str	r2, [r5, #0]
 80050ca:	e032      	b.n	8005132 <xTaskIncrementTick+0xd6>
 80050cc:	f106 0a04 	add.w	sl, r6, #4
 80050d0:	4650      	mov	r0, sl
 80050d2:	f7ff f818 	bl	8004106 <uxListRemove>
 80050d6:	6ab1      	ldr	r1, [r6, #40]	; 0x28
 80050d8:	b119      	cbz	r1, 80050e2 <xTaskIncrementTick+0x86>
 80050da:	f106 0018 	add.w	r0, r6, #24
 80050de:	f7ff f812 	bl	8004106 <uxListRemove>
 80050e2:	6af0      	ldr	r0, [r6, #44]	; 0x2c
 80050e4:	2201      	movs	r2, #1
 80050e6:	f8d9 3000 	ldr.w	r3, [r9]
 80050ea:	f04f 0e14 	mov.w	lr, #20
 80050ee:	fa02 f100 	lsl.w	r1, r2, r0
 80050f2:	4319      	orrs	r1, r3
 80050f4:	4b1f      	ldr	r3, [pc, #124]	; (8005174 <xTaskIncrementTick+0x118>)
 80050f6:	f8c9 1000 	str.w	r1, [r9]
 80050fa:	4651      	mov	r1, sl
 80050fc:	fb0e 3000 	mla	r0, lr, r0, r3
 8005100:	f7fe ffde 	bl	80040c0 <vListInsertEnd>
 8005104:	6838      	ldr	r0, [r7, #0]
 8005106:	6af1      	ldr	r1, [r6, #44]	; 0x2c
 8005108:	6ac2      	ldr	r2, [r0, #44]	; 0x2c
 800510a:	4291      	cmp	r1, r2
 800510c:	bf28      	it	cs
 800510e:	f04f 0b01 	movcs.w	fp, #1
 8005112:	e7d3      	b.n	80050bc <xTaskIncrementTick+0x60>
 8005114:	4a18      	ldr	r2, [pc, #96]	; (8005178 <xTaskIncrementTick+0x11c>)
 8005116:	f04f 0b00 	mov.w	fp, #0
 800511a:	6813      	ldr	r3, [r2, #0]
 800511c:	3301      	adds	r3, #1
 800511e:	6013      	str	r3, [r2, #0]
 8005120:	e011      	b.n	8005146 <xTaskIncrementTick+0xea>
 8005122:	f8d8 2000 	ldr.w	r2, [r8]
 8005126:	68d2      	ldr	r2, [r2, #12]
 8005128:	68d6      	ldr	r6, [r2, #12]
 800512a:	6871      	ldr	r1, [r6, #4]
 800512c:	428c      	cmp	r4, r1
 800512e:	d2cd      	bcs.n	80050cc <xTaskIncrementTick+0x70>
 8005130:	6029      	str	r1, [r5, #0]
 8005132:	683a      	ldr	r2, [r7, #0]
 8005134:	4b0f      	ldr	r3, [pc, #60]	; (8005174 <xTaskIncrementTick+0x118>)
 8005136:	6ad1      	ldr	r1, [r2, #44]	; 0x2c
 8005138:	2214      	movs	r2, #20
 800513a:	434a      	muls	r2, r1
 800513c:	589a      	ldr	r2, [r3, r2]
 800513e:	2a02      	cmp	r2, #2
 8005140:	bf28      	it	cs
 8005142:	f04f 0b01 	movcs.w	fp, #1
 8005146:	4a0d      	ldr	r2, [pc, #52]	; (800517c <xTaskIncrementTick+0x120>)
 8005148:	6812      	ldr	r2, [r2, #0]
 800514a:	2a00      	cmp	r2, #0
 800514c:	bf18      	it	ne
 800514e:	f04f 0b01 	movne.w	fp, #1
 8005152:	4658      	mov	r0, fp
 8005154:	e8bd 8ff8 	ldmia.w	sp!, {r3, r4, r5, r6, r7, r8, r9, sl, fp, pc}
 8005158:	20003eb8 	.word	0x20003eb8
 800515c:	20003f38 	.word	0x20003f38
 8005160:	20003e18 	.word	0x20003e18
 8005164:	20003e1c 	.word	0x20003e1c
 8005168:	20003ef4 	.word	0x20003ef4
 800516c:	20003ef0 	.word	0x20003ef0
 8005170:	20003e14 	.word	0x20003e14
 8005174:	20003e20 	.word	0x20003e20
 8005178:	20003eb4 	.word	0x20003eb4
 800517c:	20003f3c 	.word	0x20003f3c
 8005180:	20003ec0 	.word	0x20003ec0

08005184 <xTaskResumeAll>:
 8005184:	e92d 43f8 	stmdb	sp!, {r3, r4, r5, r6, r7, r8, r9, lr}
 8005188:	4c32      	ldr	r4, [pc, #200]	; (8005254 <xTaskResumeAll+0xd0>)
 800518a:	6823      	ldr	r3, [r4, #0]
 800518c:	b953      	cbnz	r3, 80051a4 <xTaskResumeAll+0x20>
 800518e:	f04f 0350 	mov.w	r3, #80	; 0x50
 8005192:	b672      	cpsid	i
 8005194:	f383 8811 	msr	BASEPRI, r3
 8005198:	f3bf 8f6f 	isb	sy
 800519c:	f3bf 8f4f 	dsb	sy
 80051a0:	b662      	cpsie	i
 80051a2:	e7fe      	b.n	80051a2 <xTaskResumeAll+0x1e>
 80051a4:	f7ff f81e 	bl	80041e4 <vPortEnterCritical>
 80051a8:	6823      	ldr	r3, [r4, #0]
 80051aa:	3b01      	subs	r3, #1
 80051ac:	6023      	str	r3, [r4, #0]
 80051ae:	6824      	ldr	r4, [r4, #0]
 80051b0:	b12c      	cbz	r4, 80051be <xTaskResumeAll+0x3a>
 80051b2:	2400      	movs	r4, #0
 80051b4:	f7ff f83c 	bl	8004230 <vPortExitCritical>
 80051b8:	4620      	mov	r0, r4
 80051ba:	e8bd 83f8 	ldmia.w	sp!, {r3, r4, r5, r6, r7, r8, r9, pc}
 80051be:	4b26      	ldr	r3, [pc, #152]	; (8005258 <xTaskResumeAll+0xd4>)
 80051c0:	681b      	ldr	r3, [r3, #0]
 80051c2:	2b00      	cmp	r3, #0
 80051c4:	d0f5      	beq.n	80051b2 <xTaskResumeAll+0x2e>
 80051c6:	f8df 90a8 	ldr.w	r9, [pc, #168]	; 8005270 <xTaskResumeAll+0xec>
 80051ca:	4f24      	ldr	r7, [pc, #144]	; (800525c <xTaskResumeAll+0xd8>)
 80051cc:	f8df 80a4 	ldr.w	r8, [pc, #164]	; 8005274 <xTaskResumeAll+0xf0>
 80051d0:	f8d9 3000 	ldr.w	r3, [r9]
 80051d4:	b9e3      	cbnz	r3, 8005210 <xTaskResumeAll+0x8c>
 80051d6:	b10c      	cbz	r4, 80051dc <xTaskResumeAll+0x58>
 80051d8:	f7ff fdb6 	bl	8004d48 <prvResetNextTaskUnblockTime>
 80051dc:	4d20      	ldr	r5, [pc, #128]	; (8005260 <xTaskResumeAll+0xdc>)
 80051de:	682c      	ldr	r4, [r5, #0]
 80051e0:	b144      	cbz	r4, 80051f4 <xTaskResumeAll+0x70>
 80051e2:	4e20      	ldr	r6, [pc, #128]	; (8005264 <xTaskResumeAll+0xe0>)
 80051e4:	2701      	movs	r7, #1
 80051e6:	f7ff ff39 	bl	800505c <xTaskIncrementTick>
 80051ea:	b100      	cbz	r0, 80051ee <xTaskResumeAll+0x6a>
 80051ec:	6037      	str	r7, [r6, #0]
 80051ee:	3c01      	subs	r4, #1
 80051f0:	d1f9      	bne.n	80051e6 <xTaskResumeAll+0x62>
 80051f2:	602c      	str	r4, [r5, #0]
 80051f4:	4b1b      	ldr	r3, [pc, #108]	; (8005264 <xTaskResumeAll+0xe0>)
 80051f6:	681b      	ldr	r3, [r3, #0]
 80051f8:	2b00      	cmp	r3, #0
 80051fa:	d0da      	beq.n	80051b2 <xTaskResumeAll+0x2e>
 80051fc:	f04f 5280 	mov.w	r2, #268435456	; 0x10000000
 8005200:	4b19      	ldr	r3, [pc, #100]	; (8005268 <xTaskResumeAll+0xe4>)
 8005202:	601a      	str	r2, [r3, #0]
 8005204:	f3bf 8f4f 	dsb	sy
 8005208:	f3bf 8f6f 	isb	sy
 800520c:	2401      	movs	r4, #1
 800520e:	e7d1      	b.n	80051b4 <xTaskResumeAll+0x30>
 8005210:	f8d9 300c 	ldr.w	r3, [r9, #12]
 8005214:	2501      	movs	r5, #1
 8005216:	68dc      	ldr	r4, [r3, #12]
 8005218:	1d26      	adds	r6, r4, #4
 800521a:	f104 0018 	add.w	r0, r4, #24
 800521e:	f7fe ff72 	bl	8004106 <uxListRemove>
 8005222:	4630      	mov	r0, r6
 8005224:	f7fe ff6f 	bl	8004106 <uxListRemove>
 8005228:	6ae2      	ldr	r2, [r4, #44]	; 0x2c
 800522a:	6839      	ldr	r1, [r7, #0]
 800522c:	2014      	movs	r0, #20
 800522e:	fa05 f302 	lsl.w	r3, r5, r2
 8005232:	fb00 8002 	mla	r0, r0, r2, r8
 8005236:	430b      	orrs	r3, r1
 8005238:	4631      	mov	r1, r6
 800523a:	603b      	str	r3, [r7, #0]
 800523c:	f7fe ff40 	bl	80040c0 <vListInsertEnd>
 8005240:	4b0a      	ldr	r3, [pc, #40]	; (800526c <xTaskResumeAll+0xe8>)
 8005242:	6ae2      	ldr	r2, [r4, #44]	; 0x2c
 8005244:	681b      	ldr	r3, [r3, #0]
 8005246:	6adb      	ldr	r3, [r3, #44]	; 0x2c
 8005248:	429a      	cmp	r2, r3
 800524a:	d3c1      	bcc.n	80051d0 <xTaskResumeAll+0x4c>
 800524c:	4b05      	ldr	r3, [pc, #20]	; (8005264 <xTaskResumeAll+0xe0>)
 800524e:	601d      	str	r5, [r3, #0]
 8005250:	e7be      	b.n	80051d0 <xTaskResumeAll+0x4c>
 8005252:	bf00      	nop
 8005254:	20003eb8 	.word	0x20003eb8
 8005258:	20003eac 	.word	0x20003eac
 800525c:	20003ec0 	.word	0x20003ec0
 8005260:	20003eb4 	.word	0x20003eb4
 8005264:	20003f3c 	.word	0x20003f3c
 8005268:	e000ed04 	.word	0xe000ed04
 800526c:	20003e14 	.word	0x20003e14
 8005270:	20003ef8 	.word	0x20003ef8
 8005274:	20003e20 	.word	0x20003e20

08005278 <vTaskDelay>:
 8005278:	b508      	push	{r3, lr}
 800527a:	b940      	cbnz	r0, 800528e <vTaskDelay+0x16>
 800527c:	f04f 5280 	mov.w	r2, #268435456	; 0x10000000
 8005280:	4b0e      	ldr	r3, [pc, #56]	; (80052bc <vTaskDelay+0x44>)
 8005282:	601a      	str	r2, [r3, #0]
 8005284:	f3bf 8f4f 	dsb	sy
 8005288:	f3bf 8f6f 	isb	sy
 800528c:	bd08      	pop	{r3, pc}
 800528e:	4b0c      	ldr	r3, [pc, #48]	; (80052c0 <vTaskDelay+0x48>)
 8005290:	6819      	ldr	r1, [r3, #0]
 8005292:	b151      	cbz	r1, 80052aa <vTaskDelay+0x32>
 8005294:	f04f 0350 	mov.w	r3, #80	; 0x50
 8005298:	b672      	cpsid	i
 800529a:	f383 8811 	msr	BASEPRI, r3
 800529e:	f3bf 8f6f 	isb	sy
 80052a2:	f3bf 8f4f 	dsb	sy
 80052a6:	b662      	cpsie	i
 80052a8:	e7fe      	b.n	80052a8 <vTaskDelay+0x30>
 80052aa:	f7ff fec1 	bl	8005030 <vTaskSuspendAll>
 80052ae:	f7ff fd5d 	bl	8004d6c <prvAddCurrentTaskToDelayedList>
 80052b2:	f7ff ff67 	bl	8005184 <xTaskResumeAll>
 80052b6:	2800      	cmp	r0, #0
 80052b8:	d0e0      	beq.n	800527c <vTaskDelay+0x4>
 80052ba:	bd08      	pop	{r3, pc}
 80052bc:	e000ed04 	.word	0xe000ed04
 80052c0:	20003eb8 	.word	0x20003eb8

080052c4 <prvIdleTask>:
 80052c4:	4e17      	ldr	r6, [pc, #92]	; (8005324 <prvIdleTask+0x60>)
 80052c6:	b508      	push	{r3, lr}
 80052c8:	4c17      	ldr	r4, [pc, #92]	; (8005328 <prvIdleTask+0x64>)
 80052ca:	6823      	ldr	r3, [r4, #0]
 80052cc:	b963      	cbnz	r3, 80052e8 <prvIdleTask+0x24>
 80052ce:	4b17      	ldr	r3, [pc, #92]	; (800532c <prvIdleTask+0x68>)
 80052d0:	681b      	ldr	r3, [r3, #0]
 80052d2:	2b01      	cmp	r3, #1
 80052d4:	d9f8      	bls.n	80052c8 <prvIdleTask+0x4>
 80052d6:	f04f 5280 	mov.w	r2, #268435456	; 0x10000000
 80052da:	4b15      	ldr	r3, [pc, #84]	; (8005330 <prvIdleTask+0x6c>)
 80052dc:	601a      	str	r2, [r3, #0]
 80052de:	f3bf 8f4f 	dsb	sy
 80052e2:	f3bf 8f6f 	isb	sy
 80052e6:	e7ef      	b.n	80052c8 <prvIdleTask+0x4>
 80052e8:	f7ff fea2 	bl	8005030 <vTaskSuspendAll>
 80052ec:	6835      	ldr	r5, [r6, #0]
 80052ee:	f7ff ff49 	bl	8005184 <xTaskResumeAll>
 80052f2:	2d00      	cmp	r5, #0
 80052f4:	d0e9      	beq.n	80052ca <prvIdleTask+0x6>
 80052f6:	f7fe ff75 	bl	80041e4 <vPortEnterCritical>
 80052fa:	68f3      	ldr	r3, [r6, #12]
 80052fc:	68dd      	ldr	r5, [r3, #12]
 80052fe:	1d28      	adds	r0, r5, #4
 8005300:	f7fe ff01 	bl	8004106 <uxListRemove>
 8005304:	4a0b      	ldr	r2, [pc, #44]	; (8005334 <prvIdleTask+0x70>)
 8005306:	6813      	ldr	r3, [r2, #0]
 8005308:	3b01      	subs	r3, #1
 800530a:	6013      	str	r3, [r2, #0]
 800530c:	6823      	ldr	r3, [r4, #0]
 800530e:	3b01      	subs	r3, #1
 8005310:	6023      	str	r3, [r4, #0]
 8005312:	f7fe ff8d 	bl	8004230 <vPortExitCritical>
 8005316:	6b28      	ldr	r0, [r5, #48]	; 0x30
 8005318:	f7ff f93c 	bl	8004594 <vPortFree>
 800531c:	4628      	mov	r0, r5
 800531e:	f7ff f939 	bl	8004594 <vPortFree>
 8005322:	e7d2      	b.n	80052ca <prvIdleTask+0x6>
 8005324:	20003f24 	.word	0x20003f24
 8005328:	20003eb0 	.word	0x20003eb0
 800532c:	20003e20 	.word	0x20003e20
 8005330:	e000ed04 	.word	0xe000ed04
 8005334:	20003eac 	.word	0x20003eac

08005338 <vTaskSwitchContext>:
 8005338:	4b18      	ldr	r3, [pc, #96]	; (800539c <vTaskSwitchContext+0x64>)
 800533a:	681a      	ldr	r2, [r3, #0]
 800533c:	4b18      	ldr	r3, [pc, #96]	; (80053a0 <vTaskSwitchContext+0x68>)
 800533e:	b510      	push	{r4, lr}
 8005340:	b112      	cbz	r2, 8005348 <vTaskSwitchContext+0x10>
 8005342:	2201      	movs	r2, #1
 8005344:	601a      	str	r2, [r3, #0]
 8005346:	bd10      	pop	{r4, pc}
 8005348:	601a      	str	r2, [r3, #0]
 800534a:	4b16      	ldr	r3, [pc, #88]	; (80053a4 <vTaskSwitchContext+0x6c>)
 800534c:	681b      	ldr	r3, [r3, #0]
 800534e:	fab3 f383 	clz	r3, r3
 8005352:	b2db      	uxtb	r3, r3
 8005354:	2214      	movs	r2, #20
 8005356:	4914      	ldr	r1, [pc, #80]	; (80053a8 <vTaskSwitchContext+0x70>)
 8005358:	f1c3 031f 	rsb	r3, r3, #31
 800535c:	435a      	muls	r2, r3
 800535e:	588c      	ldr	r4, [r1, r2]
 8005360:	1888      	adds	r0, r1, r2
 8005362:	b954      	cbnz	r4, 800537a <vTaskSwitchContext+0x42>
 8005364:	f04f 0350 	mov.w	r3, #80	; 0x50
 8005368:	b672      	cpsid	i
 800536a:	f383 8811 	msr	BASEPRI, r3
 800536e:	f3bf 8f6f 	isb	sy
 8005372:	f3bf 8f4f 	dsb	sy
 8005376:	b662      	cpsie	i
 8005378:	e7fe      	b.n	8005378 <vTaskSwitchContext+0x40>
 800537a:	6844      	ldr	r4, [r0, #4]
 800537c:	3208      	adds	r2, #8
 800537e:	6864      	ldr	r4, [r4, #4]
 8005380:	440a      	add	r2, r1
 8005382:	4294      	cmp	r4, r2
 8005384:	6044      	str	r4, [r0, #4]
 8005386:	bf04      	itt	eq
 8005388:	6862      	ldreq	r2, [r4, #4]
 800538a:	6042      	streq	r2, [r0, #4]
 800538c:	2214      	movs	r2, #20
 800538e:	fb02 1303 	mla	r3, r2, r3, r1
 8005392:	685b      	ldr	r3, [r3, #4]
 8005394:	68da      	ldr	r2, [r3, #12]
 8005396:	4b05      	ldr	r3, [pc, #20]	; (80053ac <vTaskSwitchContext+0x74>)
 8005398:	e7d4      	b.n	8005344 <vTaskSwitchContext+0xc>
 800539a:	bf00      	nop
 800539c:	20003eb8 	.word	0x20003eb8
 80053a0:	20003f3c 	.word	0x20003f3c
 80053a4:	20003ec0 	.word	0x20003ec0
 80053a8:	20003e20 	.word	0x20003e20
 80053ac:	20003e14 	.word	0x20003e14

080053b0 <vTaskPlaceOnEventList>:
 80053b0:	b510      	push	{r4, lr}
 80053b2:	460c      	mov	r4, r1
 80053b4:	b950      	cbnz	r0, 80053cc <vTaskPlaceOnEventList+0x1c>
 80053b6:	f04f 0350 	mov.w	r3, #80	; 0x50
 80053ba:	b672      	cpsid	i
 80053bc:	f383 8811 	msr	BASEPRI, r3
 80053c0:	f3bf 8f6f 	isb	sy
 80053c4:	f3bf 8f4f 	dsb	sy
 80053c8:	b662      	cpsie	i
 80053ca:	e7fe      	b.n	80053ca <vTaskPlaceOnEventList+0x1a>
 80053cc:	4b05      	ldr	r3, [pc, #20]	; (80053e4 <vTaskPlaceOnEventList+0x34>)
 80053ce:	6819      	ldr	r1, [r3, #0]
 80053d0:	3118      	adds	r1, #24
 80053d2:	f7fe fe81 	bl	80040d8 <vListInsert>
 80053d6:	4620      	mov	r0, r4
 80053d8:	2101      	movs	r1, #1
 80053da:	e8bd 4010 	ldmia.w	sp!, {r4, lr}
 80053de:	f7ff bcc5 	b.w	8004d6c <prvAddCurrentTaskToDelayedList>
 80053e2:	bf00      	nop
 80053e4:	20003e14 	.word	0x20003e14

080053e8 <xTaskRemoveFromEventList>:
 80053e8:	b538      	push	{r3, r4, r5, lr}
 80053ea:	68c3      	ldr	r3, [r0, #12]
 80053ec:	68dc      	ldr	r4, [r3, #12]
 80053ee:	b954      	cbnz	r4, 8005406 <xTaskRemoveFromEventList+0x1e>
 80053f0:	f04f 0350 	mov.w	r3, #80	; 0x50
 80053f4:	b672      	cpsid	i
 80053f6:	f383 8811 	msr	BASEPRI, r3
 80053fa:	f3bf 8f6f 	isb	sy
 80053fe:	f3bf 8f4f 	dsb	sy
 8005402:	b662      	cpsie	i
 8005404:	e7fe      	b.n	8005404 <xTaskRemoveFromEventList+0x1c>
 8005406:	f104 0518 	add.w	r5, r4, #24
 800540a:	4628      	mov	r0, r5
 800540c:	f7fe fe7b 	bl	8004106 <uxListRemove>
 8005410:	4b11      	ldr	r3, [pc, #68]	; (8005458 <xTaskRemoveFromEventList+0x70>)
 8005412:	681b      	ldr	r3, [r3, #0]
 8005414:	b9db      	cbnz	r3, 800544e <xTaskRemoveFromEventList+0x66>
 8005416:	1d25      	adds	r5, r4, #4
 8005418:	4628      	mov	r0, r5
 800541a:	f7fe fe74 	bl	8004106 <uxListRemove>
 800541e:	490f      	ldr	r1, [pc, #60]	; (800545c <xTaskRemoveFromEventList+0x74>)
 8005420:	6ae2      	ldr	r2, [r4, #44]	; 0x2c
 8005422:	2301      	movs	r3, #1
 8005424:	6808      	ldr	r0, [r1, #0]
 8005426:	4093      	lsls	r3, r2
 8005428:	4303      	orrs	r3, r0
 800542a:	2014      	movs	r0, #20
 800542c:	600b      	str	r3, [r1, #0]
 800542e:	4629      	mov	r1, r5
 8005430:	4b0b      	ldr	r3, [pc, #44]	; (8005460 <xTaskRemoveFromEventList+0x78>)
 8005432:	fb00 3002 	mla	r0, r0, r2, r3
 8005436:	f7fe fe43 	bl	80040c0 <vListInsertEnd>
 800543a:	4b0a      	ldr	r3, [pc, #40]	; (8005464 <xTaskRemoveFromEventList+0x7c>)
 800543c:	6ae2      	ldr	r2, [r4, #44]	; 0x2c
 800543e:	681b      	ldr	r3, [r3, #0]
 8005440:	6adb      	ldr	r3, [r3, #44]	; 0x2c
 8005442:	429a      	cmp	r2, r3
 8005444:	d906      	bls.n	8005454 <xTaskRemoveFromEventList+0x6c>
 8005446:	2001      	movs	r0, #1
 8005448:	4b07      	ldr	r3, [pc, #28]	; (8005468 <xTaskRemoveFromEventList+0x80>)
 800544a:	6018      	str	r0, [r3, #0]
 800544c:	bd38      	pop	{r3, r4, r5, pc}
 800544e:	4629      	mov	r1, r5
 8005450:	4806      	ldr	r0, [pc, #24]	; (800546c <xTaskRemoveFromEventList+0x84>)
 8005452:	e7f0      	b.n	8005436 <xTaskRemoveFromEventList+0x4e>
 8005454:	2000      	movs	r0, #0
 8005456:	bd38      	pop	{r3, r4, r5, pc}
 8005458:	20003eb8 	.word	0x20003eb8
 800545c:	20003ec0 	.word	0x20003ec0
 8005460:	20003e20 	.word	0x20003e20
 8005464:	20003e14 	.word	0x20003e14
 8005468:	20003f3c 	.word	0x20003f3c
 800546c:	20003ef8 	.word	0x20003ef8

08005470 <vTaskSetTimeOutState>:
 8005470:	b508      	push	{r3, lr}
 8005472:	b908      	cbnz	r0, 8005478 <vTaskSetTimeOutState+0x8>
 8005474:	f7ff fcc0 	bl	8004df8 <prvTaskIsTaskSuspended.part.0>
 8005478:	4b03      	ldr	r3, [pc, #12]	; (8005488 <vTaskSetTimeOutState+0x18>)
 800547a:	681b      	ldr	r3, [r3, #0]
 800547c:	6003      	str	r3, [r0, #0]
 800547e:	4b03      	ldr	r3, [pc, #12]	; (800548c <vTaskSetTimeOutState+0x1c>)
 8005480:	681b      	ldr	r3, [r3, #0]
 8005482:	6043      	str	r3, [r0, #4]
 8005484:	bd08      	pop	{r3, pc}
 8005486:	bf00      	nop
 8005488:	20003ef4 	.word	0x20003ef4
 800548c:	20003f38 	.word	0x20003f38

08005490 <xTaskCheckForTimeOut>:
 8005490:	b538      	push	{r3, r4, r5, lr}
 8005492:	460d      	mov	r5, r1
 8005494:	4604      	mov	r4, r0
 8005496:	b950      	cbnz	r0, 80054ae <xTaskCheckForTimeOut+0x1e>
 8005498:	f04f 0350 	mov.w	r3, #80	; 0x50
 800549c:	b672      	cpsid	i
 800549e:	f383 8811 	msr	BASEPRI, r3
 80054a2:	f3bf 8f6f 	isb	sy
 80054a6:	f3bf 8f4f 	dsb	sy
 80054aa:	b662      	cpsie	i
 80054ac:	e7fe      	b.n	80054ac <xTaskCheckForTimeOut+0x1c>
 80054ae:	b951      	cbnz	r1, 80054c6 <xTaskCheckForTimeOut+0x36>
 80054b0:	f04f 0350 	mov.w	r3, #80	; 0x50
 80054b4:	b672      	cpsid	i
 80054b6:	f383 8811 	msr	BASEPRI, r3
 80054ba:	f3bf 8f6f 	isb	sy
 80054be:	f3bf 8f4f 	dsb	sy
 80054c2:	b662      	cpsie	i
 80054c4:	e7fe      	b.n	80054c4 <xTaskCheckForTimeOut+0x34>
 80054c6:	f7fe fe8d 	bl	80041e4 <vPortEnterCritical>
 80054ca:	4b0e      	ldr	r3, [pc, #56]	; (8005504 <xTaskCheckForTimeOut+0x74>)
 80054cc:	6819      	ldr	r1, [r3, #0]
 80054ce:	682b      	ldr	r3, [r5, #0]
 80054d0:	1c5a      	adds	r2, r3, #1
 80054d2:	d010      	beq.n	80054f6 <xTaskCheckForTimeOut+0x66>
 80054d4:	4a0c      	ldr	r2, [pc, #48]	; (8005508 <xTaskCheckForTimeOut+0x78>)
 80054d6:	6820      	ldr	r0, [r4, #0]
 80054d8:	6812      	ldr	r2, [r2, #0]
 80054da:	4290      	cmp	r0, r2
 80054dc:	6862      	ldr	r2, [r4, #4]
 80054de:	d001      	beq.n	80054e4 <xTaskCheckForTimeOut+0x54>
 80054e0:	4291      	cmp	r1, r2
 80054e2:	d20d      	bcs.n	8005500 <xTaskCheckForTimeOut+0x70>
 80054e4:	1a88      	subs	r0, r1, r2
 80054e6:	4283      	cmp	r3, r0
 80054e8:	d90a      	bls.n	8005500 <xTaskCheckForTimeOut+0x70>
 80054ea:	1a5b      	subs	r3, r3, r1
 80054ec:	4620      	mov	r0, r4
 80054ee:	4413      	add	r3, r2
 80054f0:	602b      	str	r3, [r5, #0]
 80054f2:	f7ff ffbd 	bl	8005470 <vTaskSetTimeOutState>
 80054f6:	2400      	movs	r4, #0
 80054f8:	f7fe fe9a 	bl	8004230 <vPortExitCritical>
 80054fc:	4620      	mov	r0, r4
 80054fe:	bd38      	pop	{r3, r4, r5, pc}
 8005500:	2401      	movs	r4, #1
 8005502:	e7f9      	b.n	80054f8 <xTaskCheckForTimeOut+0x68>
 8005504:	20003f38 	.word	0x20003f38
 8005508:	20003ef4 	.word	0x20003ef4

0800550c <vTaskMissedYield>:
 800550c:	2201      	movs	r2, #1
 800550e:	4b01      	ldr	r3, [pc, #4]	; (8005514 <vTaskMissedYield+0x8>)
 8005510:	601a      	str	r2, [r3, #0]
 8005512:	4770      	bx	lr
 8005514:	20003f3c 	.word	0x20003f3c

08005518 <xTaskGetSchedulerState>:
 8005518:	4b05      	ldr	r3, [pc, #20]	; (8005530 <xTaskGetSchedulerState+0x18>)
 800551a:	681b      	ldr	r3, [r3, #0]
 800551c:	b133      	cbz	r3, 800552c <xTaskGetSchedulerState+0x14>
 800551e:	4b05      	ldr	r3, [pc, #20]	; (8005534 <xTaskGetSchedulerState+0x1c>)
 8005520:	681b      	ldr	r3, [r3, #0]
 8005522:	2b00      	cmp	r3, #0
 8005524:	bf0c      	ite	eq
 8005526:	2002      	moveq	r0, #2
 8005528:	2000      	movne	r0, #0
 800552a:	4770      	bx	lr
 800552c:	2001      	movs	r0, #1
 800552e:	4770      	bx	lr
 8005530:	20003f0c 	.word	0x20003f0c
 8005534:	20003eb8 	.word	0x20003eb8

08005538 <vTaskPriorityInherit>:
 8005538:	e92d 41f0 	stmdb	sp!, {r4, r5, r6, r7, r8, lr}
 800553c:	4604      	mov	r4, r0
 800553e:	2800      	cmp	r0, #0
 8005540:	d038      	beq.n	80055b4 <vTaskPriorityInherit+0x7c>
 8005542:	4d1d      	ldr	r5, [pc, #116]	; (80055b8 <vTaskPriorityInherit+0x80>)
 8005544:	6ac3      	ldr	r3, [r0, #44]	; 0x2c
 8005546:	682a      	ldr	r2, [r5, #0]
 8005548:	6ad2      	ldr	r2, [r2, #44]	; 0x2c
 800554a:	4293      	cmp	r3, r2
 800554c:	d232      	bcs.n	80055b4 <vTaskPriorityInherit+0x7c>
 800554e:	6982      	ldr	r2, [r0, #24]
 8005550:	2a00      	cmp	r2, #0
 8005552:	db04      	blt.n	800555e <vTaskPriorityInherit+0x26>
 8005554:	682a      	ldr	r2, [r5, #0]
 8005556:	6ad2      	ldr	r2, [r2, #44]	; 0x2c
 8005558:	f1c2 0207 	rsb	r2, r2, #7
 800555c:	6182      	str	r2, [r0, #24]
 800555e:	4e17      	ldr	r6, [pc, #92]	; (80055bc <vTaskPriorityInherit+0x84>)
 8005560:	2714      	movs	r7, #20
 8005562:	6962      	ldr	r2, [r4, #20]
 8005564:	fb07 6303 	mla	r3, r7, r3, r6
 8005568:	429a      	cmp	r2, r3
 800556a:	d120      	bne.n	80055ae <vTaskPriorityInherit+0x76>
 800556c:	f104 0804 	add.w	r8, r4, #4
 8005570:	4640      	mov	r0, r8
 8005572:	f7fe fdc8 	bl	8004106 <uxListRemove>
 8005576:	4a12      	ldr	r2, [pc, #72]	; (80055c0 <vTaskPriorityInherit+0x88>)
 8005578:	b948      	cbnz	r0, 800558e <vTaskPriorityInherit+0x56>
 800557a:	6ae0      	ldr	r0, [r4, #44]	; 0x2c
 800557c:	4347      	muls	r7, r0
 800557e:	59f3      	ldr	r3, [r6, r7]
 8005580:	b92b      	cbnz	r3, 800558e <vTaskPriorityInherit+0x56>
 8005582:	2101      	movs	r1, #1
 8005584:	6813      	ldr	r3, [r2, #0]
 8005586:	4081      	lsls	r1, r0
 8005588:	ea23 0301 	bic.w	r3, r3, r1
 800558c:	6013      	str	r3, [r2, #0]
 800558e:	682b      	ldr	r3, [r5, #0]
 8005590:	6811      	ldr	r1, [r2, #0]
 8005592:	6ad8      	ldr	r0, [r3, #44]	; 0x2c
 8005594:	2301      	movs	r3, #1
 8005596:	4083      	lsls	r3, r0
 8005598:	62e0      	str	r0, [r4, #44]	; 0x2c
 800559a:	430b      	orrs	r3, r1
 800559c:	4641      	mov	r1, r8
 800559e:	6013      	str	r3, [r2, #0]
 80055a0:	2314      	movs	r3, #20
 80055a2:	fb03 6000 	mla	r0, r3, r0, r6
 80055a6:	e8bd 41f0 	ldmia.w	sp!, {r4, r5, r6, r7, r8, lr}
 80055aa:	f7fe bd89 	b.w	80040c0 <vListInsertEnd>
 80055ae:	682b      	ldr	r3, [r5, #0]
 80055b0:	6adb      	ldr	r3, [r3, #44]	; 0x2c
 80055b2:	62e3      	str	r3, [r4, #44]	; 0x2c
 80055b4:	e8bd 81f0 	ldmia.w	sp!, {r4, r5, r6, r7, r8, pc}
 80055b8:	20003e14 	.word	0x20003e14
 80055bc:	20003e20 	.word	0x20003e20
 80055c0:	20003ec0 	.word	0x20003ec0

080055c4 <xTaskPriorityDisinherit>:
 80055c4:	b5f8      	push	{r3, r4, r5, r6, r7, lr}
 80055c6:	4604      	mov	r4, r0
 80055c8:	b908      	cbnz	r0, 80055ce <xTaskPriorityDisinherit+0xa>
 80055ca:	2000      	movs	r0, #0
 80055cc:	bdf8      	pop	{r3, r4, r5, r6, r7, pc}
 80055ce:	4b24      	ldr	r3, [pc, #144]	; (8005660 <xTaskPriorityDisinherit+0x9c>)
 80055d0:	681b      	ldr	r3, [r3, #0]
 80055d2:	4298      	cmp	r0, r3
 80055d4:	d00a      	beq.n	80055ec <xTaskPriorityDisinherit+0x28>
 80055d6:	f04f 0350 	mov.w	r3, #80	; 0x50
 80055da:	b672      	cpsid	i
 80055dc:	f383 8811 	msr	BASEPRI, r3
 80055e0:	f3bf 8f6f 	isb	sy
 80055e4:	f3bf 8f4f 	dsb	sy
 80055e8:	b662      	cpsie	i
 80055ea:	e7fe      	b.n	80055ea <xTaskPriorityDisinherit+0x26>
 80055ec:	6c83      	ldr	r3, [r0, #72]	; 0x48
 80055ee:	b953      	cbnz	r3, 8005606 <xTaskPriorityDisinherit+0x42>
 80055f0:	f04f 0350 	mov.w	r3, #80	; 0x50
 80055f4:	b672      	cpsid	i
 80055f6:	f383 8811 	msr	BASEPRI, r3
 80055fa:	f3bf 8f6f 	isb	sy
 80055fe:	f3bf 8f4f 	dsb	sy
 8005602:	b662      	cpsie	i
 8005604:	e7fe      	b.n	8005604 <xTaskPriorityDisinherit+0x40>
 8005606:	6ac1      	ldr	r1, [r0, #44]	; 0x2c
 8005608:	3b01      	subs	r3, #1
 800560a:	6c42      	ldr	r2, [r0, #68]	; 0x44
 800560c:	6483      	str	r3, [r0, #72]	; 0x48
 800560e:	4291      	cmp	r1, r2
 8005610:	d0db      	beq.n	80055ca <xTaskPriorityDisinherit+0x6>
 8005612:	2b00      	cmp	r3, #0
 8005614:	d1d9      	bne.n	80055ca <xTaskPriorityDisinherit+0x6>
 8005616:	1d05      	adds	r5, r0, #4
 8005618:	4e12      	ldr	r6, [pc, #72]	; (8005664 <xTaskPriorityDisinherit+0xa0>)
 800561a:	4628      	mov	r0, r5
 800561c:	f7fe fd73 	bl	8004106 <uxListRemove>
 8005620:	4a11      	ldr	r2, [pc, #68]	; (8005668 <xTaskPriorityDisinherit+0xa4>)
 8005622:	b950      	cbnz	r0, 800563a <xTaskPriorityDisinherit+0x76>
 8005624:	6ae7      	ldr	r7, [r4, #44]	; 0x2c
 8005626:	2114      	movs	r1, #20
 8005628:	4379      	muls	r1, r7
 800562a:	5873      	ldr	r3, [r6, r1]
 800562c:	b92b      	cbnz	r3, 800563a <xTaskPriorityDisinherit+0x76>
 800562e:	2001      	movs	r0, #1
 8005630:	6813      	ldr	r3, [r2, #0]
 8005632:	40b8      	lsls	r0, r7
 8005634:	ea23 0300 	bic.w	r3, r3, r0
 8005638:	6013      	str	r3, [r2, #0]
 800563a:	6c63      	ldr	r3, [r4, #68]	; 0x44
 800563c:	f1c3 0107 	rsb	r1, r3, #7
 8005640:	62e3      	str	r3, [r4, #44]	; 0x2c
 8005642:	61a1      	str	r1, [r4, #24]
 8005644:	2401      	movs	r4, #1
 8005646:	6811      	ldr	r1, [r2, #0]
 8005648:	fa04 f003 	lsl.w	r0, r4, r3
 800564c:	4308      	orrs	r0, r1
 800564e:	4629      	mov	r1, r5
 8005650:	6010      	str	r0, [r2, #0]
 8005652:	2014      	movs	r0, #20
 8005654:	fb00 6003 	mla	r0, r0, r3, r6
 8005658:	f7fe fd32 	bl	80040c0 <vListInsertEnd>
 800565c:	4620      	mov	r0, r4
 800565e:	bdf8      	pop	{r3, r4, r5, r6, r7, pc}
 8005660:	20003e14 	.word	0x20003e14
 8005664:	20003e20 	.word	0x20003e20
 8005668:	20003ec0 	.word	0x20003ec0

0800566c <pvTaskIncrementMutexHeldCount>:
 800566c:	4b04      	ldr	r3, [pc, #16]	; (8005680 <pvTaskIncrementMutexHeldCount+0x14>)
 800566e:	681a      	ldr	r2, [r3, #0]
 8005670:	b11a      	cbz	r2, 800567a <pvTaskIncrementMutexHeldCount+0xe>
 8005672:	6819      	ldr	r1, [r3, #0]
 8005674:	6c8a      	ldr	r2, [r1, #72]	; 0x48
 8005676:	3201      	adds	r2, #1
 8005678:	648a      	str	r2, [r1, #72]	; 0x48
 800567a:	6818      	ldr	r0, [r3, #0]
 800567c:	4770      	bx	lr
 800567e:	bf00      	nop
 8005680:	20003e14 	.word	0x20003e14

08005684 <tcpip_thread>:
 8005684:	4b1d      	ldr	r3, [pc, #116]	; (80056fc <tcpip_thread+0x78>)
 8005686:	681b      	ldr	r3, [r3, #0]
 8005688:	b507      	push	{r0, r1, r2, lr}
 800568a:	b113      	cbz	r3, 8005692 <tcpip_thread+0xe>
 800568c:	4a1c      	ldr	r2, [pc, #112]	; (8005700 <tcpip_thread+0x7c>)
 800568e:	6810      	ldr	r0, [r2, #0]
 8005690:	4798      	blx	r3
 8005692:	4d1c      	ldr	r5, [pc, #112]	; (8005704 <tcpip_thread+0x80>)
 8005694:	4e1c      	ldr	r6, [pc, #112]	; (8005708 <tcpip_thread+0x84>)
 8005696:	4c1d      	ldr	r4, [pc, #116]	; (800570c <tcpip_thread+0x88>)
 8005698:	481a      	ldr	r0, [pc, #104]	; (8005704 <tcpip_thread+0x80>)
 800569a:	f005 f916 	bl	800a8ca <sys_mutex_lock>
 800569e:	4628      	mov	r0, r5
 80056a0:	f005 f918 	bl	800a8d4 <sys_mutex_unlock>
 80056a4:	a901      	add	r1, sp, #4
 80056a6:	4630      	mov	r0, r6
 80056a8:	f004 ff20 	bl	800a4ec <sys_timeouts_mbox_fetch>
 80056ac:	4628      	mov	r0, r5
 80056ae:	f005 f90c 	bl	800a8ca <sys_mutex_lock>
 80056b2:	9b01      	ldr	r3, [sp, #4]
 80056b4:	b933      	cbnz	r3, 80056c4 <tcpip_thread+0x40>
 80056b6:	4623      	mov	r3, r4
 80056b8:	2269      	movs	r2, #105	; 0x69
 80056ba:	4915      	ldr	r1, [pc, #84]	; (8005710 <tcpip_thread+0x8c>)
 80056bc:	4815      	ldr	r0, [pc, #84]	; (8005714 <tcpip_thread+0x90>)
 80056be:	f006 f92f 	bl	800b920 <iprintf>
 80056c2:	e7ec      	b.n	800569e <tcpip_thread+0x1a>
 80056c4:	781a      	ldrb	r2, [r3, #0]
 80056c6:	2a03      	cmp	r2, #3
 80056c8:	d00b      	beq.n	80056e2 <tcpip_thread+0x5e>
 80056ca:	2a04      	cmp	r2, #4
 80056cc:	d00f      	beq.n	80056ee <tcpip_thread+0x6a>
 80056ce:	2a02      	cmp	r2, #2
 80056d0:	d111      	bne.n	80056f6 <tcpip_thread+0x72>
 80056d2:	1d18      	adds	r0, r3, #4
 80056d4:	c807      	ldmia	r0, {r0, r1, r2}
 80056d6:	4790      	blx	r2
 80056d8:	9901      	ldr	r1, [sp, #4]
 80056da:	2009      	movs	r0, #9
 80056dc:	f001 fd18 	bl	8007110 <memp_free>
 80056e0:	e7dd      	b.n	800569e <tcpip_thread+0x1a>
 80056e2:	6898      	ldr	r0, [r3, #8]
 80056e4:	685a      	ldr	r2, [r3, #4]
 80056e6:	4790      	blx	r2
 80056e8:	9901      	ldr	r1, [sp, #4]
 80056ea:	2008      	movs	r0, #8
 80056ec:	e7f6      	b.n	80056dc <tcpip_thread+0x58>
 80056ee:	685a      	ldr	r2, [r3, #4]
 80056f0:	6898      	ldr	r0, [r3, #8]
 80056f2:	4790      	blx	r2
 80056f4:	e7d3      	b.n	800569e <tcpip_thread+0x1a>
 80056f6:	4623      	mov	r3, r4
 80056f8:	229b      	movs	r2, #155	; 0x9b
 80056fa:	e7de      	b.n	80056ba <tcpip_thread+0x36>
 80056fc:	20003f44 	.word	0x20003f44
 8005700:	20003f48 	.word	0x20003f48
 8005704:	200040ec 	.word	0x200040ec
 8005708:	20003f40 	.word	0x20003f40
 800570c:	0800c66c 	.word	0x0800c66c
 8005710:	0800c69c 	.word	0x0800c69c
 8005714:	0800c6ba 	.word	0x0800c6ba

08005718 <tcpip_inpkt>:
 8005718:	b5f8      	push	{r3, r4, r5, r6, r7, lr}
 800571a:	4607      	mov	r7, r0
 800571c:	4810      	ldr	r0, [pc, #64]	; (8005760 <tcpip_inpkt+0x48>)
 800571e:	460e      	mov	r6, r1
 8005720:	4615      	mov	r5, r2
 8005722:	f005 f8b1 	bl	800a888 <sys_mbox_valid>
 8005726:	b928      	cbnz	r0, 8005734 <tcpip_inpkt+0x1c>
 8005728:	4b0e      	ldr	r3, [pc, #56]	; (8005764 <tcpip_inpkt+0x4c>)
 800572a:	22b5      	movs	r2, #181	; 0xb5
 800572c:	490e      	ldr	r1, [pc, #56]	; (8005768 <tcpip_inpkt+0x50>)
 800572e:	480f      	ldr	r0, [pc, #60]	; (800576c <tcpip_inpkt+0x54>)
 8005730:	f006 f8f6 	bl	800b920 <iprintf>
 8005734:	2009      	movs	r0, #9
 8005736:	f001 fccf 	bl	80070d8 <memp_malloc>
 800573a:	4604      	mov	r4, r0
 800573c:	b168      	cbz	r0, 800575a <tcpip_inpkt+0x42>
 800573e:	2302      	movs	r3, #2
 8005740:	6047      	str	r7, [r0, #4]
 8005742:	6086      	str	r6, [r0, #8]
 8005744:	4601      	mov	r1, r0
 8005746:	7003      	strb	r3, [r0, #0]
 8005748:	60c5      	str	r5, [r0, #12]
 800574a:	4805      	ldr	r0, [pc, #20]	; (8005760 <tcpip_inpkt+0x48>)
 800574c:	f005 f870 	bl	800a830 <sys_mbox_trypost>
 8005750:	b128      	cbz	r0, 800575e <tcpip_inpkt+0x46>
 8005752:	4621      	mov	r1, r4
 8005754:	2009      	movs	r0, #9
 8005756:	f001 fcdb 	bl	8007110 <memp_free>
 800575a:	f04f 30ff 	mov.w	r0, #4294967295
 800575e:	bdf8      	pop	{r3, r4, r5, r6, r7, pc}
 8005760:	20003f40 	.word	0x20003f40
 8005764:	0800c66c 	.word	0x0800c66c
 8005768:	0800c65f 	.word	0x0800c65f
 800576c:	0800c6ba 	.word	0x0800c6ba

08005770 <tcpip_input>:
 8005770:	f891 302b 	ldrb.w	r3, [r1, #43]	; 0x2b
 8005774:	f013 0f18 	tst.w	r3, #24
 8005778:	bf14      	ite	ne
 800577a:	4a02      	ldrne	r2, [pc, #8]	; (8005784 <tcpip_input+0x14>)
 800577c:	4a02      	ldreq	r2, [pc, #8]	; (8005788 <tcpip_input+0x18>)
 800577e:	f7ff bfcb 	b.w	8005718 <tcpip_inpkt>
 8005782:	bf00      	nop
 8005784:	0800a6f1 	.word	0x0800a6f1
 8005788:	080061f1 	.word	0x080061f1

0800578c <tcpip_callback_with_block>:
 800578c:	b5f8      	push	{r3, r4, r5, r6, r7, lr}
 800578e:	4607      	mov	r7, r0
 8005790:	4812      	ldr	r0, [pc, #72]	; (80057dc <tcpip_callback_with_block+0x50>)
 8005792:	460e      	mov	r6, r1
 8005794:	4615      	mov	r5, r2
 8005796:	f005 f877 	bl	800a888 <sys_mbox_valid>
 800579a:	b928      	cbnz	r0, 80057a8 <tcpip_callback_with_block+0x1c>
 800579c:	4b10      	ldr	r3, [pc, #64]	; (80057e0 <tcpip_callback_with_block+0x54>)
 800579e:	22ee      	movs	r2, #238	; 0xee
 80057a0:	4910      	ldr	r1, [pc, #64]	; (80057e4 <tcpip_callback_with_block+0x58>)
 80057a2:	4811      	ldr	r0, [pc, #68]	; (80057e8 <tcpip_callback_with_block+0x5c>)
 80057a4:	f006 f8bc 	bl	800b920 <iprintf>
 80057a8:	2008      	movs	r0, #8
 80057aa:	f001 fc95 	bl	80070d8 <memp_malloc>
 80057ae:	4604      	mov	r4, r0
 80057b0:	b188      	cbz	r0, 80057d6 <tcpip_callback_with_block+0x4a>
 80057b2:	2303      	movs	r3, #3
 80057b4:	6047      	str	r7, [r0, #4]
 80057b6:	6086      	str	r6, [r0, #8]
 80057b8:	4601      	mov	r1, r0
 80057ba:	7003      	strb	r3, [r0, #0]
 80057bc:	4807      	ldr	r0, [pc, #28]	; (80057dc <tcpip_callback_with_block+0x50>)
 80057be:	b11d      	cbz	r5, 80057c8 <tcpip_callback_with_block+0x3c>
 80057c0:	f005 f82a 	bl	800a818 <sys_mbox_post>
 80057c4:	2000      	movs	r0, #0
 80057c6:	bdf8      	pop	{r3, r4, r5, r6, r7, pc}
 80057c8:	f005 f832 	bl	800a830 <sys_mbox_trypost>
 80057cc:	b128      	cbz	r0, 80057da <tcpip_callback_with_block+0x4e>
 80057ce:	4621      	mov	r1, r4
 80057d0:	2008      	movs	r0, #8
 80057d2:	f001 fc9d 	bl	8007110 <memp_free>
 80057d6:	f04f 30ff 	mov.w	r0, #4294967295
 80057da:	bdf8      	pop	{r3, r4, r5, r6, r7, pc}
 80057dc:	20003f40 	.word	0x20003f40
 80057e0:	0800c66c 	.word	0x0800c66c
 80057e4:	0800c65f 	.word	0x0800c65f
 80057e8:	0800c6ba 	.word	0x0800c6ba

080057ec <tcpip_init>:
 80057ec:	b537      	push	{r0, r1, r2, r4, r5, lr}
 80057ee:	4605      	mov	r5, r0
 80057f0:	460c      	mov	r4, r1
 80057f2:	f000 f840 	bl	8005876 <lwip_init>
 80057f6:	4b13      	ldr	r3, [pc, #76]	; (8005844 <tcpip_init+0x58>)
 80057f8:	2106      	movs	r1, #6
 80057fa:	4813      	ldr	r0, [pc, #76]	; (8005848 <tcpip_init+0x5c>)
 80057fc:	601d      	str	r5, [r3, #0]
 80057fe:	4b13      	ldr	r3, [pc, #76]	; (800584c <tcpip_init+0x60>)
 8005800:	601c      	str	r4, [r3, #0]
 8005802:	f004 fff9 	bl	800a7f8 <sys_mbox_new>
 8005806:	b130      	cbz	r0, 8005816 <tcpip_init+0x2a>
 8005808:	4b11      	ldr	r3, [pc, #68]	; (8005850 <tcpip_init+0x64>)
 800580a:	f240 12d5 	movw	r2, #469	; 0x1d5
 800580e:	4911      	ldr	r1, [pc, #68]	; (8005854 <tcpip_init+0x68>)
 8005810:	4811      	ldr	r0, [pc, #68]	; (8005858 <tcpip_init+0x6c>)
 8005812:	f006 f885 	bl	800b920 <iprintf>
 8005816:	4811      	ldr	r0, [pc, #68]	; (800585c <tcpip_init+0x70>)
 8005818:	f005 f848 	bl	800a8ac <sys_mutex_new>
 800581c:	b130      	cbz	r0, 800582c <tcpip_init+0x40>
 800581e:	4b0c      	ldr	r3, [pc, #48]	; (8005850 <tcpip_init+0x64>)
 8005820:	f240 12d9 	movw	r2, #473	; 0x1d9
 8005824:	490e      	ldr	r1, [pc, #56]	; (8005860 <tcpip_init+0x74>)
 8005826:	480c      	ldr	r0, [pc, #48]	; (8005858 <tcpip_init+0x6c>)
 8005828:	f006 f87a 	bl	800b920 <iprintf>
 800582c:	2303      	movs	r3, #3
 800582e:	2200      	movs	r2, #0
 8005830:	490c      	ldr	r1, [pc, #48]	; (8005864 <tcpip_init+0x78>)
 8005832:	9300      	str	r3, [sp, #0]
 8005834:	f44f 6380 	mov.w	r3, #1024	; 0x400
 8005838:	480b      	ldr	r0, [pc, #44]	; (8005868 <tcpip_init+0x7c>)
 800583a:	f005 f84e 	bl	800a8da <sys_thread_new>
 800583e:	b003      	add	sp, #12
 8005840:	bd30      	pop	{r4, r5, pc}
 8005842:	bf00      	nop
 8005844:	20003f44 	.word	0x20003f44
 8005848:	20003f40 	.word	0x20003f40
 800584c:	20003f48 	.word	0x20003f48
 8005850:	0800c66c 	.word	0x0800c66c
 8005854:	0800c60e 	.word	0x0800c60e
 8005858:	0800c6ba 	.word	0x0800c6ba
 800585c:	200040ec 	.word	0x200040ec
 8005860:	0800c631 	.word	0x0800c631
 8005864:	08005685 	.word	0x08005685
 8005868:	0800c652 	.word	0x0800c652

0800586c <lwip_htons>:
 800586c:	ba40      	rev16	r0, r0
 800586e:	b280      	uxth	r0, r0
 8005870:	4770      	bx	lr

08005872 <lwip_htonl>:
 8005872:	ba00      	rev	r0, r0
 8005874:	4770      	bx	lr

08005876 <lwip_init>:
 8005876:	b508      	push	{r3, lr}
 8005878:	f005 f80c 	bl	800a894 <sys_init>
 800587c:	f001 f9b6 	bl	8006bec <mem_init>
 8005880:	f001 fc1c 	bl	80070bc <memp_init>
 8005884:	f001 fc67 	bl	8007156 <netif_init>
 8005888:	f004 fe82 	bl	800a590 <udp_init>
 800588c:	f002 f8da 	bl	8007a44 <tcp_init>
 8005890:	e8bd 4008 	ldmia.w	sp!, {r3, lr}
 8005894:	f004 be00 	b.w	800a498 <sys_timeouts_init>

08005898 <etharp_free_entry>:
 8005898:	b570      	push	{r4, r5, r6, lr}
 800589a:	2618      	movs	r6, #24
 800589c:	4c07      	ldr	r4, [pc, #28]	; (80058bc <etharp_free_entry+0x24>)
 800589e:	4605      	mov	r5, r0
 80058a0:	4346      	muls	r6, r0
 80058a2:	59a0      	ldr	r0, [r4, r6]
 80058a4:	b118      	cbz	r0, 80058ae <etharp_free_entry+0x16>
 80058a6:	f001 fdb9 	bl	800741c <pbuf_free>
 80058aa:	2300      	movs	r3, #0
 80058ac:	51a3      	str	r3, [r4, r6]
 80058ae:	2318      	movs	r3, #24
 80058b0:	fb03 4405 	mla	r4, r3, r5, r4
 80058b4:	2300      	movs	r3, #0
 80058b6:	7523      	strb	r3, [r4, #20]
 80058b8:	bd70      	pop	{r4, r5, r6, pc}
 80058ba:	bf00      	nop
 80058bc:	20003f4c 	.word	0x20003f4c

080058c0 <etharp_raw>:
 80058c0:	e92d 47f3 	stmdb	sp!, {r0, r1, r4, r5, r6, r7, r8, r9, sl, lr}
 80058c4:	9d0b      	ldr	r5, [sp, #44]	; 0x2c
 80058c6:	4689      	mov	r9, r1
 80058c8:	4692      	mov	sl, r2
 80058ca:	4698      	mov	r8, r3
 80058cc:	4607      	mov	r7, r0
 80058ce:	b930      	cbnz	r0, 80058de <etharp_raw+0x1e>
 80058d0:	4b2c      	ldr	r3, [pc, #176]	; (8005984 <etharp_raw+0xc4>)
 80058d2:	f44f 628b 	mov.w	r2, #1112	; 0x458
 80058d6:	492c      	ldr	r1, [pc, #176]	; (8005988 <etharp_raw+0xc8>)
 80058d8:	482c      	ldr	r0, [pc, #176]	; (800598c <etharp_raw+0xcc>)
 80058da:	f006 f821 	bl	800b920 <iprintf>
 80058de:	2200      	movs	r2, #0
 80058e0:	211c      	movs	r1, #28
 80058e2:	2002      	movs	r0, #2
 80058e4:	f001 fe04 	bl	80074f0 <pbuf_alloc>
 80058e8:	4606      	mov	r6, r0
 80058ea:	2800      	cmp	r0, #0
 80058ec:	d047      	beq.n	800597e <etharp_raw+0xbe>
 80058ee:	8943      	ldrh	r3, [r0, #10]
 80058f0:	2b1b      	cmp	r3, #27
 80058f2:	d806      	bhi.n	8005902 <etharp_raw+0x42>
 80058f4:	4b23      	ldr	r3, [pc, #140]	; (8005984 <etharp_raw+0xc4>)
 80058f6:	f240 4264 	movw	r2, #1124	; 0x464
 80058fa:	4925      	ldr	r1, [pc, #148]	; (8005990 <etharp_raw+0xd0>)
 80058fc:	4823      	ldr	r0, [pc, #140]	; (800598c <etharp_raw+0xcc>)
 80058fe:	f006 f80f 	bl	800b920 <iprintf>
 8005902:	6874      	ldr	r4, [r6, #4]
 8005904:	f8bd 0034 	ldrh.w	r0, [sp, #52]	; 0x34
 8005908:	f7ff ffb0 	bl	800586c <lwip_htons>
 800590c:	80e0      	strh	r0, [r4, #6]
 800590e:	f897 3024 	ldrb.w	r3, [r7, #36]	; 0x24
 8005912:	2b06      	cmp	r3, #6
 8005914:	d006      	beq.n	8005924 <etharp_raw+0x64>
 8005916:	4b1b      	ldr	r3, [pc, #108]	; (8005984 <etharp_raw+0xc4>)
 8005918:	f240 426b 	movw	r2, #1131	; 0x46b
 800591c:	491d      	ldr	r1, [pc, #116]	; (8005994 <etharp_raw+0xd4>)
 800591e:	481b      	ldr	r0, [pc, #108]	; (800598c <etharp_raw+0xcc>)
 8005920:	f005 fffe 	bl	800b920 <iprintf>
 8005924:	f8d8 3000 	ldr.w	r3, [r8]
 8005928:	464a      	mov	r2, r9
 800592a:	4631      	mov	r1, r6
 800592c:	4638      	mov	r0, r7
 800592e:	60a3      	str	r3, [r4, #8]
 8005930:	f8b8 3004 	ldrh.w	r3, [r8, #4]
 8005934:	81a3      	strh	r3, [r4, #12]
 8005936:	682b      	ldr	r3, [r5, #0]
 8005938:	f8c4 3012 	str.w	r3, [r4, #18]
 800593c:	88ab      	ldrh	r3, [r5, #4]
 800593e:	2500      	movs	r5, #0
 8005940:	82e3      	strh	r3, [r4, #22]
 8005942:	9b0a      	ldr	r3, [sp, #40]	; 0x28
 8005944:	681b      	ldr	r3, [r3, #0]
 8005946:	f8c4 300e 	str.w	r3, [r4, #14]
 800594a:	9b0c      	ldr	r3, [sp, #48]	; 0x30
 800594c:	681b      	ldr	r3, [r3, #0]
 800594e:	7025      	strb	r5, [r4, #0]
 8005950:	61a3      	str	r3, [r4, #24]
 8005952:	2301      	movs	r3, #1
 8005954:	70e5      	strb	r5, [r4, #3]
 8005956:	7063      	strb	r3, [r4, #1]
 8005958:	2308      	movs	r3, #8
 800595a:	70a3      	strb	r3, [r4, #2]
 800595c:	2306      	movs	r3, #6
 800595e:	7123      	strb	r3, [r4, #4]
 8005960:	2304      	movs	r3, #4
 8005962:	7163      	strb	r3, [r4, #5]
 8005964:	f640 0306 	movw	r3, #2054	; 0x806
 8005968:	9300      	str	r3, [sp, #0]
 800596a:	4653      	mov	r3, sl
 800596c:	f004 ff0c 	bl	800a788 <ethernet_output>
 8005970:	4630      	mov	r0, r6
 8005972:	f001 fd53 	bl	800741c <pbuf_free>
 8005976:	4628      	mov	r0, r5
 8005978:	b002      	add	sp, #8
 800597a:	e8bd 87f0 	ldmia.w	sp!, {r4, r5, r6, r7, r8, r9, sl, pc}
 800597e:	f04f 30ff 	mov.w	r0, #4294967295
 8005982:	e7f9      	b.n	8005978 <etharp_raw+0xb8>
 8005984:	0800c7d7 	.word	0x0800c7d7
 8005988:	0800c80e 	.word	0x0800c80e
 800598c:	0800c6ba 	.word	0x0800c6ba
 8005990:	0800c81c 	.word	0x0800c81c
 8005994:	0800c84d 	.word	0x0800c84d

08005998 <etharp_find_entry.isra.0>:
 8005998:	e92d 4ff7 	stmdb	sp!, {r0, r1, r2, r4, r5, r6, r7, r8, r9, sl, fp, lr}
 800599c:	4b3e      	ldr	r3, [pc, #248]	; (8005a98 <etharp_find_entry.isra.0+0x100>)
 800599e:	220a      	movs	r2, #10
 80059a0:	4605      	mov	r5, r0
 80059a2:	2000      	movs	r0, #0
 80059a4:	4694      	mov	ip, r2
 80059a6:	4614      	mov	r4, r2
 80059a8:	4681      	mov	r9, r0
 80059aa:	4680      	mov	r8, r0
 80059ac:	4683      	mov	fp, r0
 80059ae:	4696      	mov	lr, r2
 80059b0:	461e      	mov	r6, r3
 80059b2:	9101      	str	r1, [sp, #4]
 80059b4:	f1be 0f0a 	cmp.w	lr, #10
 80059b8:	7d1f      	ldrb	r7, [r3, #20]
 80059ba:	d111      	bne.n	80059e0 <etharp_find_entry.isra.0+0x48>
 80059bc:	b997      	cbnz	r7, 80059e4 <etharp_find_entry.isra.0+0x4c>
 80059be:	fa4f fe80 	sxtb.w	lr, r0
 80059c2:	3001      	adds	r0, #1
 80059c4:	3318      	adds	r3, #24
 80059c6:	280a      	cmp	r0, #10
 80059c8:	d1f4      	bne.n	80059b4 <etharp_find_entry.isra.0+0x1c>
 80059ca:	9b01      	ldr	r3, [sp, #4]
 80059cc:	0799      	lsls	r1, r3, #30
 80059ce:	d404      	bmi.n	80059da <etharp_find_entry.isra.0+0x42>
 80059d0:	f1be 0f0a 	cmp.w	lr, #10
 80059d4:	d11c      	bne.n	8005a10 <etharp_find_entry.isra.0+0x78>
 80059d6:	07db      	lsls	r3, r3, #31
 80059d8:	d435      	bmi.n	8005a46 <etharp_find_entry.isra.0+0xae>
 80059da:	f04f 30ff 	mov.w	r0, #4294967295
 80059de:	e009      	b.n	80059f4 <etharp_find_entry.isra.0+0x5c>
 80059e0:	2f00      	cmp	r7, #0
 80059e2:	d0ee      	beq.n	80059c2 <etharp_find_entry.isra.0+0x2a>
 80059e4:	2d00      	cmp	r5, #0
 80059e6:	d04a      	beq.n	8005a7e <etharp_find_entry.isra.0+0xe6>
 80059e8:	6829      	ldr	r1, [r5, #0]
 80059ea:	468a      	mov	sl, r1
 80059ec:	6859      	ldr	r1, [r3, #4]
 80059ee:	458a      	cmp	sl, r1
 80059f0:	d145      	bne.n	8005a7e <etharp_find_entry.isra.0+0xe6>
 80059f2:	b240      	sxtb	r0, r0
 80059f4:	b003      	add	sp, #12
 80059f6:	e8bd 8ff0 	ldmia.w	sp!, {r4, r5, r6, r7, r8, r9, sl, fp, pc}
 80059fa:	45c2      	cmp	sl, r8
 80059fc:	d3e1      	bcc.n	80059c2 <etharp_find_entry.isra.0+0x2a>
 80059fe:	fa4f fc80 	sxtb.w	ip, r0
 8005a02:	46d0      	mov	r8, sl
 8005a04:	e7dd      	b.n	80059c2 <etharp_find_entry.isra.0+0x2a>
 8005a06:	45ca      	cmp	sl, r9
 8005a08:	bf24      	itt	cs
 8005a0a:	b244      	sxtbcs	r4, r0
 8005a0c:	46d1      	movcs	r9, sl
 8005a0e:	e7d8      	b.n	80059c2 <etharp_find_entry.isra.0+0x2a>
 8005a10:	fa5f f78e 	uxtb.w	r7, lr
 8005a14:	2318      	movs	r3, #24
 8005a16:	fb03 6307 	mla	r3, r3, r7, r6
 8005a1a:	7d1b      	ldrb	r3, [r3, #20]
 8005a1c:	b133      	cbz	r3, 8005a2c <etharp_find_entry.isra.0+0x94>
 8005a1e:	4b1f      	ldr	r3, [pc, #124]	; (8005a9c <etharp_find_entry.isra.0+0x104>)
 8005a20:	f240 1287 	movw	r2, #391	; 0x187
 8005a24:	491e      	ldr	r1, [pc, #120]	; (8005aa0 <etharp_find_entry.isra.0+0x108>)
 8005a26:	481f      	ldr	r0, [pc, #124]	; (8005aa4 <etharp_find_entry.isra.0+0x10c>)
 8005a28:	f005 ff7a 	bl	800b920 <iprintf>
 8005a2c:	b125      	cbz	r5, 8005a38 <etharp_find_entry.isra.0+0xa0>
 8005a2e:	2318      	movs	r3, #24
 8005a30:	682a      	ldr	r2, [r5, #0]
 8005a32:	fb03 6307 	mla	r3, r3, r7, r6
 8005a36:	605a      	str	r2, [r3, #4]
 8005a38:	2318      	movs	r3, #24
 8005a3a:	b278      	sxtb	r0, r7
 8005a3c:	fb03 6607 	mla	r6, r3, r7, r6
 8005a40:	2300      	movs	r3, #0
 8005a42:	8273      	strh	r3, [r6, #18]
 8005a44:	e7d6      	b.n	80059f4 <etharp_find_entry.isra.0+0x5c>
 8005a46:	2c0a      	cmp	r4, #10
 8005a48:	d00f      	beq.n	8005a6a <etharp_find_entry.isra.0+0xd2>
 8005a4a:	2318      	movs	r3, #24
 8005a4c:	b2e7      	uxtb	r7, r4
 8005a4e:	435c      	muls	r4, r3
 8005a50:	5933      	ldr	r3, [r6, r4]
 8005a52:	b133      	cbz	r3, 8005a62 <etharp_find_entry.isra.0+0xca>
 8005a54:	4b11      	ldr	r3, [pc, #68]	; (8005a9c <etharp_find_entry.isra.0+0x104>)
 8005a56:	f240 126f 	movw	r2, #367	; 0x16f
 8005a5a:	4913      	ldr	r1, [pc, #76]	; (8005aa8 <etharp_find_entry.isra.0+0x110>)
 8005a5c:	4811      	ldr	r0, [pc, #68]	; (8005aa4 <etharp_find_entry.isra.0+0x10c>)
 8005a5e:	f005 ff5f 	bl	800b920 <iprintf>
 8005a62:	4638      	mov	r0, r7
 8005a64:	f7ff ff18 	bl	8005898 <etharp_free_entry>
 8005a68:	e7d4      	b.n	8005a14 <etharp_find_entry.isra.0+0x7c>
 8005a6a:	f1bc 0f0a 	cmp.w	ip, #10
 8005a6e:	d002      	beq.n	8005a76 <etharp_find_entry.isra.0+0xde>
 8005a70:	fa5f f78c 	uxtb.w	r7, ip
 8005a74:	e7f5      	b.n	8005a62 <etharp_find_entry.isra.0+0xca>
 8005a76:	2a0a      	cmp	r2, #10
 8005a78:	d0af      	beq.n	80059da <etharp_find_entry.isra.0+0x42>
 8005a7a:	b2d7      	uxtb	r7, r2
 8005a7c:	e7f1      	b.n	8005a62 <etharp_find_entry.isra.0+0xca>
 8005a7e:	2f01      	cmp	r7, #1
 8005a80:	f8b3 a012 	ldrh.w	sl, [r3, #18]
 8005a84:	d1bf      	bne.n	8005a06 <etharp_find_entry.isra.0+0x6e>
 8005a86:	681f      	ldr	r7, [r3, #0]
 8005a88:	2f00      	cmp	r7, #0
 8005a8a:	d0b6      	beq.n	80059fa <etharp_find_entry.isra.0+0x62>
 8005a8c:	45da      	cmp	sl, fp
 8005a8e:	d398      	bcc.n	80059c2 <etharp_find_entry.isra.0+0x2a>
 8005a90:	b242      	sxtb	r2, r0
 8005a92:	46d3      	mov	fp, sl
 8005a94:	e795      	b.n	80059c2 <etharp_find_entry.isra.0+0x2a>
 8005a96:	bf00      	nop
 8005a98:	20003f4c 	.word	0x20003f4c
 8005a9c:	0800c7d7 	.word	0x0800c7d7
 8005aa0:	0800c6f9 	.word	0x0800c6f9
 8005aa4:	0800c6ba 	.word	0x0800c6ba
 8005aa8:	0800c6e2 	.word	0x0800c6e2

08005aac <etharp_cleanup_netif>:
 8005aac:	b570      	push	{r4, r5, r6, lr}
 8005aae:	4606      	mov	r6, r0
 8005ab0:	4d07      	ldr	r5, [pc, #28]	; (8005ad0 <etharp_cleanup_netif+0x24>)
 8005ab2:	2400      	movs	r4, #0
 8005ab4:	7d2b      	ldrb	r3, [r5, #20]
 8005ab6:	b12b      	cbz	r3, 8005ac4 <etharp_cleanup_netif+0x18>
 8005ab8:	68ab      	ldr	r3, [r5, #8]
 8005aba:	42b3      	cmp	r3, r6
 8005abc:	d102      	bne.n	8005ac4 <etharp_cleanup_netif+0x18>
 8005abe:	4620      	mov	r0, r4
 8005ac0:	f7ff feea 	bl	8005898 <etharp_free_entry>
 8005ac4:	3401      	adds	r4, #1
 8005ac6:	3518      	adds	r5, #24
 8005ac8:	2c0a      	cmp	r4, #10
 8005aca:	d1f3      	bne.n	8005ab4 <etharp_cleanup_netif+0x8>
 8005acc:	bd70      	pop	{r4, r5, r6, pc}
 8005ace:	bf00      	nop
 8005ad0:	20003f4c 	.word	0x20003f4c

08005ad4 <etharp_input>:
 8005ad4:	e92d 47f0 	stmdb	sp!, {r4, r5, r6, r7, r8, r9, sl, lr}
 8005ad8:	4680      	mov	r8, r0
 8005ada:	b086      	sub	sp, #24
 8005adc:	460c      	mov	r4, r1
 8005ade:	b949      	cbnz	r1, 8005af4 <etharp_input+0x20>
 8005ae0:	4b46      	ldr	r3, [pc, #280]	; (8005bfc <etharp_input+0x128>)
 8005ae2:	f44f 7222 	mov.w	r2, #648	; 0x288
 8005ae6:	4946      	ldr	r1, [pc, #280]	; (8005c00 <etharp_input+0x12c>)
 8005ae8:	4846      	ldr	r0, [pc, #280]	; (8005c04 <etharp_input+0x130>)
 8005aea:	f005 ff19 	bl	800b920 <iprintf>
 8005aee:	b006      	add	sp, #24
 8005af0:	e8bd 87f0 	ldmia.w	sp!, {r4, r5, r6, r7, r8, r9, sl, pc}
 8005af4:	6845      	ldr	r5, [r0, #4]
 8005af6:	882b      	ldrh	r3, [r5, #0]
 8005af8:	f5b3 7f80 	cmp.w	r3, #256	; 0x100
 8005afc:	d108      	bne.n	8005b10 <etharp_input+0x3c>
 8005afe:	792b      	ldrb	r3, [r5, #4]
 8005b00:	2b06      	cmp	r3, #6
 8005b02:	d105      	bne.n	8005b10 <etharp_input+0x3c>
 8005b04:	796b      	ldrb	r3, [r5, #5]
 8005b06:	2b04      	cmp	r3, #4
 8005b08:	d102      	bne.n	8005b10 <etharp_input+0x3c>
 8005b0a:	886b      	ldrh	r3, [r5, #2]
 8005b0c:	2b08      	cmp	r3, #8
 8005b0e:	d003      	beq.n	8005b18 <etharp_input+0x44>
 8005b10:	4640      	mov	r0, r8
 8005b12:	f001 fc83 	bl	800741c <pbuf_free>
 8005b16:	e7ea      	b.n	8005aee <etharp_input+0x1a>
 8005b18:	f8d5 300e 	ldr.w	r3, [r5, #14]
 8005b1c:	684e      	ldr	r6, [r1, #4]
 8005b1e:	9305      	str	r3, [sp, #20]
 8005b20:	69ab      	ldr	r3, [r5, #24]
 8005b22:	b116      	cbz	r6, 8005b2a <etharp_input+0x56>
 8005b24:	1b9b      	subs	r3, r3, r6
 8005b26:	425e      	negs	r6, r3
 8005b28:	415e      	adcs	r6, r3
 8005b2a:	2e00      	cmp	r6, #0
 8005b2c:	f894 3024 	ldrb.w	r3, [r4, #36]	; 0x24
 8005b30:	f105 0708 	add.w	r7, r5, #8
 8005b34:	bf14      	ite	ne
 8005b36:	f04f 0901 	movne.w	r9, #1
 8005b3a:	f04f 0902 	moveq.w	r9, #2
 8005b3e:	2b06      	cmp	r3, #6
 8005b40:	d006      	beq.n	8005b50 <etharp_input+0x7c>
 8005b42:	4b2e      	ldr	r3, [pc, #184]	; (8005bfc <etharp_input+0x128>)
 8005b44:	f240 12ab 	movw	r2, #427	; 0x1ab
 8005b48:	492f      	ldr	r1, [pc, #188]	; (8005c08 <etharp_input+0x134>)
 8005b4a:	482e      	ldr	r0, [pc, #184]	; (8005c04 <etharp_input+0x130>)
 8005b4c:	f005 fee8 	bl	800b920 <iprintf>
 8005b50:	9805      	ldr	r0, [sp, #20]
 8005b52:	2800      	cmp	r0, #0
 8005b54:	d03c      	beq.n	8005bd0 <etharp_input+0xfc>
 8005b56:	4621      	mov	r1, r4
 8005b58:	f000 fc95 	bl	8006486 <ip4_addr_isbroadcast_u32>
 8005b5c:	4682      	mov	sl, r0
 8005b5e:	bbb8      	cbnz	r0, 8005bd0 <etharp_input+0xfc>
 8005b60:	9b05      	ldr	r3, [sp, #20]
 8005b62:	f003 03f0 	and.w	r3, r3, #240	; 0xf0
 8005b66:	2be0      	cmp	r3, #224	; 0xe0
 8005b68:	d032      	beq.n	8005bd0 <etharp_input+0xfc>
 8005b6a:	4649      	mov	r1, r9
 8005b6c:	a805      	add	r0, sp, #20
 8005b6e:	f7ff ff13 	bl	8005998 <etharp_find_entry.isra.0>
 8005b72:	2800      	cmp	r0, #0
 8005b74:	db2c      	blt.n	8005bd0 <etharp_input+0xfc>
 8005b76:	2218      	movs	r2, #24
 8005b78:	4b24      	ldr	r3, [pc, #144]	; (8005c0c <etharp_input+0x138>)
 8005b7a:	f04f 0c02 	mov.w	ip, #2
 8005b7e:	fb02 f100 	mul.w	r1, r2, r0
 8005b82:	eb03 0e01 	add.w	lr, r3, r1
 8005b86:	f88e c014 	strb.w	ip, [lr, #20]
 8005b8a:	f04f 0c0c 	mov.w	ip, #12
 8005b8e:	f8ce 4008 	str.w	r4, [lr, #8]
 8005b92:	fb12 c200 	smlabb	r2, r2, r0, ip
 8005b96:	6838      	ldr	r0, [r7, #0]
 8005b98:	eb03 0c02 	add.w	ip, r3, r2
 8005b9c:	5098      	str	r0, [r3, r2]
 8005b9e:	88ba      	ldrh	r2, [r7, #4]
 8005ba0:	f8ac 2004 	strh.w	r2, [ip, #4]
 8005ba4:	f853 9001 	ldr.w	r9, [r3, r1]
 8005ba8:	f8ae a012 	strh.w	sl, [lr, #18]
 8005bac:	f1b9 0f00 	cmp.w	r9, #0
 8005bb0:	d00e      	beq.n	8005bd0 <etharp_input+0xfc>
 8005bb2:	f843 a001 	str.w	sl, [r3, r1]
 8005bb6:	f44f 6300 	mov.w	r3, #2048	; 0x800
 8005bba:	f104 0225 	add.w	r2, r4, #37	; 0x25
 8005bbe:	4649      	mov	r1, r9
 8005bc0:	9300      	str	r3, [sp, #0]
 8005bc2:	4620      	mov	r0, r4
 8005bc4:	463b      	mov	r3, r7
 8005bc6:	f004 fddf 	bl	800a788 <ethernet_output>
 8005bca:	4648      	mov	r0, r9
 8005bcc:	f001 fc26 	bl	800741c <pbuf_free>
 8005bd0:	88eb      	ldrh	r3, [r5, #6]
 8005bd2:	f5b3 7f80 	cmp.w	r3, #256	; 0x100
 8005bd6:	d19b      	bne.n	8005b10 <etharp_input+0x3c>
 8005bd8:	2e00      	cmp	r6, #0
 8005bda:	d099      	beq.n	8005b10 <etharp_input+0x3c>
 8005bdc:	2202      	movs	r2, #2
 8005bde:	f104 0325 	add.w	r3, r4, #37	; 0x25
 8005be2:	9701      	str	r7, [sp, #4]
 8005be4:	4620      	mov	r0, r4
 8005be6:	9203      	str	r2, [sp, #12]
 8005be8:	aa05      	add	r2, sp, #20
 8005bea:	4619      	mov	r1, r3
 8005bec:	9202      	str	r2, [sp, #8]
 8005bee:	1d22      	adds	r2, r4, #4
 8005bf0:	9200      	str	r2, [sp, #0]
 8005bf2:	463a      	mov	r2, r7
 8005bf4:	f7ff fe64 	bl	80058c0 <etharp_raw>
 8005bf8:	e78a      	b.n	8005b10 <etharp_input+0x3c>
 8005bfa:	bf00      	nop
 8005bfc:	0800c7d7 	.word	0x0800c7d7
 8005c00:	0800c80e 	.word	0x0800c80e
 8005c04:	0800c6ba 	.word	0x0800c6ba
 8005c08:	0800c741 	.word	0x0800c741
 8005c0c:	20003f4c 	.word	0x20003f4c

08005c10 <etharp_request>:
 8005c10:	b51f      	push	{r0, r1, r2, r3, r4, lr}
 8005c12:	4602      	mov	r2, r0
 8005c14:	f100 0325 	add.w	r3, r0, #37	; 0x25
 8005c18:	9102      	str	r1, [sp, #8]
 8005c1a:	2401      	movs	r4, #1
 8005c1c:	4905      	ldr	r1, [pc, #20]	; (8005c34 <etharp_request+0x24>)
 8005c1e:	3204      	adds	r2, #4
 8005c20:	9403      	str	r4, [sp, #12]
 8005c22:	9101      	str	r1, [sp, #4]
 8005c24:	4619      	mov	r1, r3
 8005c26:	9200      	str	r2, [sp, #0]
 8005c28:	4a03      	ldr	r2, [pc, #12]	; (8005c38 <etharp_request+0x28>)
 8005c2a:	f7ff fe49 	bl	80058c0 <etharp_raw>
 8005c2e:	b004      	add	sp, #16
 8005c30:	bd10      	pop	{r4, pc}
 8005c32:	bf00      	nop
 8005c34:	0800db3c 	.word	0x0800db3c
 8005c38:	0800dad0 	.word	0x0800dad0

08005c3c <etharp_tmr>:
 8005c3c:	b5f8      	push	{r3, r4, r5, r6, r7, lr}
 8005c3e:	4c13      	ldr	r4, [pc, #76]	; (8005c8c <etharp_tmr+0x50>)
 8005c40:	2500      	movs	r5, #0
 8005c42:	2602      	movs	r6, #2
 8005c44:	2704      	movs	r7, #4
 8005c46:	7c22      	ldrb	r2, [r4, #16]
 8005c48:	b16a      	cbz	r2, 8005c66 <etharp_tmr+0x2a>
 8005c4a:	89e3      	ldrh	r3, [r4, #14]
 8005c4c:	3301      	adds	r3, #1
 8005c4e:	b29b      	uxth	r3, r3
 8005c50:	f5b3 7f96 	cmp.w	r3, #300	; 0x12c
 8005c54:	81e3      	strh	r3, [r4, #14]
 8005c56:	d203      	bcs.n	8005c60 <etharp_tmr+0x24>
 8005c58:	2a01      	cmp	r2, #1
 8005c5a:	d109      	bne.n	8005c70 <etharp_tmr+0x34>
 8005c5c:	2b04      	cmp	r3, #4
 8005c5e:	d90b      	bls.n	8005c78 <etharp_tmr+0x3c>
 8005c60:	4628      	mov	r0, r5
 8005c62:	f7ff fe19 	bl	8005898 <etharp_free_entry>
 8005c66:	3501      	adds	r5, #1
 8005c68:	3418      	adds	r4, #24
 8005c6a:	2d0a      	cmp	r5, #10
 8005c6c:	d1eb      	bne.n	8005c46 <etharp_tmr+0xa>
 8005c6e:	bdf8      	pop	{r3, r4, r5, r6, r7, pc}
 8005c70:	2a03      	cmp	r2, #3
 8005c72:	d106      	bne.n	8005c82 <etharp_tmr+0x46>
 8005c74:	7427      	strb	r7, [r4, #16]
 8005c76:	e7f6      	b.n	8005c66 <etharp_tmr+0x2a>
 8005c78:	4621      	mov	r1, r4
 8005c7a:	6860      	ldr	r0, [r4, #4]
 8005c7c:	f7ff ffc8 	bl	8005c10 <etharp_request>
 8005c80:	e7f1      	b.n	8005c66 <etharp_tmr+0x2a>
 8005c82:	2a04      	cmp	r2, #4
 8005c84:	d1ef      	bne.n	8005c66 <etharp_tmr+0x2a>
 8005c86:	7426      	strb	r6, [r4, #16]
 8005c88:	e7ed      	b.n	8005c66 <etharp_tmr+0x2a>
 8005c8a:	bf00      	nop
 8005c8c:	20003f50 	.word	0x20003f50

08005c90 <etharp_output_to_arp_index>:
 8005c90:	e92d 43f0 	stmdb	sp!, {r4, r5, r6, r7, r8, r9, lr}
 8005c94:	4614      	mov	r4, r2
 8005c96:	4d27      	ldr	r5, [pc, #156]	; (8005d34 <etharp_output_to_arp_index+0xa4>)
 8005c98:	2218      	movs	r2, #24
 8005c9a:	b085      	sub	sp, #20
 8005c9c:	4606      	mov	r6, r0
 8005c9e:	4688      	mov	r8, r1
 8005ca0:	fb02 5204 	mla	r2, r2, r4, r5
 8005ca4:	7d12      	ldrb	r2, [r2, #20]
 8005ca6:	2a01      	cmp	r2, #1
 8005ca8:	d806      	bhi.n	8005cb8 <etharp_output_to_arp_index+0x28>
 8005caa:	4b23      	ldr	r3, [pc, #140]	; (8005d38 <etharp_output_to_arp_index+0xa8>)
 8005cac:	f240 22ed 	movw	r2, #749	; 0x2ed
 8005cb0:	4922      	ldr	r1, [pc, #136]	; (8005d3c <etharp_output_to_arp_index+0xac>)
 8005cb2:	4823      	ldr	r0, [pc, #140]	; (8005d40 <etharp_output_to_arp_index+0xb0>)
 8005cb4:	f005 fe34 	bl	800b920 <iprintf>
 8005cb8:	2118      	movs	r1, #24
 8005cba:	f106 0725 	add.w	r7, r6, #37	; 0x25
 8005cbe:	fb01 5904 	mla	r9, r1, r4, r5
 8005cc2:	f899 3014 	ldrb.w	r3, [r9, #20]
 8005cc6:	2b02      	cmp	r3, #2
 8005cc8:	d10d      	bne.n	8005ce6 <etharp_output_to_arp_index+0x56>
 8005cca:	f8b9 3012 	ldrh.w	r3, [r9, #18]
 8005cce:	f5b3 7f8e 	cmp.w	r3, #284	; 0x11c
 8005cd2:	d917      	bls.n	8005d04 <etharp_output_to_arp_index+0x74>
 8005cd4:	4649      	mov	r1, r9
 8005cd6:	4630      	mov	r0, r6
 8005cd8:	3104      	adds	r1, #4
 8005cda:	f7ff ff99 	bl	8005c10 <etharp_request>
 8005cde:	b910      	cbnz	r0, 8005ce6 <etharp_output_to_arp_index+0x56>
 8005ce0:	2303      	movs	r3, #3
 8005ce2:	f889 3014 	strb.w	r3, [r9, #20]
 8005ce6:	2318      	movs	r3, #24
 8005ce8:	f44f 6200 	mov.w	r2, #2048	; 0x800
 8005cec:	4641      	mov	r1, r8
 8005cee:	4630      	mov	r0, r6
 8005cf0:	fb03 5304 	mla	r3, r3, r4, r5
 8005cf4:	9200      	str	r2, [sp, #0]
 8005cf6:	463a      	mov	r2, r7
 8005cf8:	330c      	adds	r3, #12
 8005cfa:	f004 fd45 	bl	800a788 <ethernet_output>
 8005cfe:	b005      	add	sp, #20
 8005d00:	e8bd 83f0 	ldmia.w	sp!, {r4, r5, r6, r7, r8, r9, pc}
 8005d04:	f5b3 7f87 	cmp.w	r3, #270	; 0x10e
 8005d08:	d3ed      	bcc.n	8005ce6 <etharp_output_to_arp_index+0x56>
 8005d0a:	eb04 0344 	add.w	r3, r4, r4, lsl #1
 8005d0e:	2101      	movs	r1, #1
 8005d10:	4630      	mov	r0, r6
 8005d12:	00db      	lsls	r3, r3, #3
 8005d14:	9103      	str	r1, [sp, #12]
 8005d16:	4639      	mov	r1, r7
 8005d18:	f103 020c 	add.w	r2, r3, #12
 8005d1c:	3304      	adds	r3, #4
 8005d1e:	442b      	add	r3, r5
 8005d20:	442a      	add	r2, r5
 8005d22:	9302      	str	r3, [sp, #8]
 8005d24:	4b07      	ldr	r3, [pc, #28]	; (8005d44 <etharp_output_to_arp_index+0xb4>)
 8005d26:	9301      	str	r3, [sp, #4]
 8005d28:	1d33      	adds	r3, r6, #4
 8005d2a:	9300      	str	r3, [sp, #0]
 8005d2c:	463b      	mov	r3, r7
 8005d2e:	f7ff fdc7 	bl	80058c0 <etharp_raw>
 8005d32:	e7d4      	b.n	8005cde <etharp_output_to_arp_index+0x4e>
 8005d34:	20003f4c 	.word	0x20003f4c
 8005d38:	0800c7d7 	.word	0x0800c7d7
 8005d3c:	0800c765 	.word	0x0800c765
 8005d40:	0800c6ba 	.word	0x0800c6ba
 8005d44:	0800db3c 	.word	0x0800db3c

08005d48 <etharp_query>:
 8005d48:	e92d 47f3 	stmdb	sp!, {r0, r1, r4, r5, r6, r7, r8, r9, sl, lr}
 8005d4c:	4689      	mov	r9, r1
 8005d4e:	4680      	mov	r8, r0
 8005d50:	4601      	mov	r1, r0
 8005d52:	4616      	mov	r6, r2
 8005d54:	f8d9 0000 	ldr.w	r0, [r9]
 8005d58:	f000 fb95 	bl	8006486 <ip4_addr_isbroadcast_u32>
 8005d5c:	4604      	mov	r4, r0
 8005d5e:	2800      	cmp	r0, #0
 8005d60:	d15e      	bne.n	8005e20 <etharp_query+0xd8>
 8005d62:	f8d9 3000 	ldr.w	r3, [r9]
 8005d66:	f003 02f0 	and.w	r2, r3, #240	; 0xf0
 8005d6a:	2ae0      	cmp	r2, #224	; 0xe0
 8005d6c:	d058      	beq.n	8005e20 <etharp_query+0xd8>
 8005d6e:	2b00      	cmp	r3, #0
 8005d70:	d056      	beq.n	8005e20 <etharp_query+0xd8>
 8005d72:	2101      	movs	r1, #1
 8005d74:	4648      	mov	r0, r9
 8005d76:	f7ff fe0f 	bl	8005998 <etharp_find_entry.isra.0>
 8005d7a:	1e05      	subs	r5, r0, #0
 8005d7c:	db53      	blt.n	8005e26 <etharp_query+0xde>
 8005d7e:	4f40      	ldr	r7, [pc, #256]	; (8005e80 <etharp_query+0x138>)
 8005d80:	2318      	movs	r3, #24
 8005d82:	fb03 7305 	mla	r3, r3, r5, r7
 8005d86:	7d1a      	ldrb	r2, [r3, #20]
 8005d88:	b91a      	cbnz	r2, 8005d92 <etharp_query+0x4a>
 8005d8a:	2401      	movs	r4, #1
 8005d8c:	f8c3 8008 	str.w	r8, [r3, #8]
 8005d90:	751c      	strb	r4, [r3, #20]
 8005d92:	2318      	movs	r3, #24
 8005d94:	fb03 7305 	mla	r3, r3, r5, r7
 8005d98:	7d1b      	ldrb	r3, [r3, #20]
 8005d9a:	b933      	cbnz	r3, 8005daa <etharp_query+0x62>
 8005d9c:	4b39      	ldr	r3, [pc, #228]	; (8005e84 <etharp_query+0x13c>)
 8005d9e:	f240 32c9 	movw	r2, #969	; 0x3c9
 8005da2:	4939      	ldr	r1, [pc, #228]	; (8005e88 <etharp_query+0x140>)
 8005da4:	4839      	ldr	r0, [pc, #228]	; (8005e8c <etharp_query+0x144>)
 8005da6:	f005 fdbb 	bl	800b920 <iprintf>
 8005daa:	b90c      	cbnz	r4, 8005db0 <etharp_query+0x68>
 8005dac:	2e00      	cmp	r6, #0
 8005dae:	d13c      	bne.n	8005e2a <etharp_query+0xe2>
 8005db0:	4649      	mov	r1, r9
 8005db2:	4640      	mov	r0, r8
 8005db4:	f7ff ff2c 	bl	8005c10 <etharp_request>
 8005db8:	2e00      	cmp	r6, #0
 8005dba:	d138      	bne.n	8005e2e <etharp_query+0xe6>
 8005dbc:	b002      	add	sp, #8
 8005dbe:	e8bd 87f0 	ldmia.w	sp!, {r4, r5, r6, r7, r8, r9, sl, pc}
 8005dc2:	d1fb      	bne.n	8005dbc <etharp_query+0x74>
 8005dc4:	4634      	mov	r4, r6
 8005dc6:	f8df 80bc 	ldr.w	r8, [pc, #188]	; 8005e84 <etharp_query+0x13c>
 8005dca:	f8df 90c8 	ldr.w	r9, [pc, #200]	; 8005e94 <etharp_query+0x14c>
 8005dce:	f8df a0bc 	ldr.w	sl, [pc, #188]	; 8005e8c <etharp_query+0x144>
 8005dd2:	b99c      	cbnz	r4, 8005dfc <etharp_query+0xb4>
 8005dd4:	4630      	mov	r0, r6
 8005dd6:	f001 fcdf 	bl	8007798 <pbuf_ref>
 8005dda:	2e00      	cmp	r6, #0
 8005ddc:	d04c      	beq.n	8005e78 <etharp_query+0x130>
 8005dde:	46b0      	mov	r8, r6
 8005de0:	2318      	movs	r3, #24
 8005de2:	fb03 f205 	mul.w	r2, r3, r5
 8005de6:	461c      	mov	r4, r3
 8005de8:	58b8      	ldr	r0, [r7, r2]
 8005dea:	b108      	cbz	r0, 8005df0 <etharp_query+0xa8>
 8005dec:	f001 fb16 	bl	800741c <pbuf_free>
 8005df0:	fb04 f305 	mul.w	r3, r4, r5
 8005df4:	2000      	movs	r0, #0
 8005df6:	f847 8003 	str.w	r8, [r7, r3]
 8005dfa:	e7df      	b.n	8005dbc <etharp_query+0x74>
 8005dfc:	8962      	ldrh	r2, [r4, #10]
 8005dfe:	8923      	ldrh	r3, [r4, #8]
 8005e00:	429a      	cmp	r2, r3
 8005e02:	d108      	bne.n	8005e16 <etharp_query+0xce>
 8005e04:	6823      	ldr	r3, [r4, #0]
 8005e06:	b133      	cbz	r3, 8005e16 <etharp_query+0xce>
 8005e08:	4643      	mov	r3, r8
 8005e0a:	f44f 727b 	mov.w	r2, #1004	; 0x3ec
 8005e0e:	4649      	mov	r1, r9
 8005e10:	4650      	mov	r0, sl
 8005e12:	f005 fd85 	bl	800b920 <iprintf>
 8005e16:	7b23      	ldrb	r3, [r4, #12]
 8005e18:	2b01      	cmp	r3, #1
 8005e1a:	d11e      	bne.n	8005e5a <etharp_query+0x112>
 8005e1c:	6824      	ldr	r4, [r4, #0]
 8005e1e:	e7d8      	b.n	8005dd2 <etharp_query+0x8a>
 8005e20:	f06f 000f 	mvn.w	r0, #15
 8005e24:	e7ca      	b.n	8005dbc <etharp_query+0x74>
 8005e26:	4628      	mov	r0, r5
 8005e28:	e7c8      	b.n	8005dbc <etharp_query+0x74>
 8005e2a:	f04f 30ff 	mov.w	r0, #4294967295
 8005e2e:	2318      	movs	r3, #24
 8005e30:	fb03 7205 	mla	r2, r3, r5, r7
 8005e34:	7d12      	ldrb	r2, [r2, #20]
 8005e36:	2a01      	cmp	r2, #1
 8005e38:	d9c3      	bls.n	8005dc2 <etharp_query+0x7a>
 8005e3a:	4a15      	ldr	r2, [pc, #84]	; (8005e90 <etharp_query+0x148>)
 8005e3c:	4631      	mov	r1, r6
 8005e3e:	4640      	mov	r0, r8
 8005e40:	7015      	strb	r5, [r2, #0]
 8005e42:	220c      	movs	r2, #12
 8005e44:	fb13 2305 	smlabb	r3, r3, r5, r2
 8005e48:	f44f 6200 	mov.w	r2, #2048	; 0x800
 8005e4c:	443b      	add	r3, r7
 8005e4e:	9200      	str	r2, [sp, #0]
 8005e50:	f108 0225 	add.w	r2, r8, #37	; 0x25
 8005e54:	f004 fc98 	bl	800a788 <ethernet_output>
 8005e58:	e7b0      	b.n	8005dbc <etharp_query+0x74>
 8005e5a:	2200      	movs	r2, #0
 8005e5c:	8921      	ldrh	r1, [r4, #8]
 8005e5e:	2002      	movs	r0, #2
 8005e60:	f001 fb46 	bl	80074f0 <pbuf_alloc>
 8005e64:	4680      	mov	r8, r0
 8005e66:	b138      	cbz	r0, 8005e78 <etharp_query+0x130>
 8005e68:	4631      	mov	r1, r6
 8005e6a:	f001 fceb 	bl	8007844 <pbuf_copy>
 8005e6e:	2800      	cmp	r0, #0
 8005e70:	d0b6      	beq.n	8005de0 <etharp_query+0x98>
 8005e72:	4640      	mov	r0, r8
 8005e74:	f001 fad2 	bl	800741c <pbuf_free>
 8005e78:	f04f 30ff 	mov.w	r0, #4294967295
 8005e7c:	e79e      	b.n	8005dbc <etharp_query+0x74>
 8005e7e:	bf00      	nop
 8005e80:	20003f4c 	.word	0x20003f4c
 8005e84:	0800c7d7 	.word	0x0800c7d7
 8005e88:	0800c795 	.word	0x0800c795
 8005e8c:	0800c6ba 	.word	0x0800c6ba
 8005e90:	2000403c 	.word	0x2000403c
 8005e94:	0800c7bd 	.word	0x0800c7bd

08005e98 <etharp_output>:
 8005e98:	b5f0      	push	{r4, r5, r6, r7, lr}
 8005e9a:	460e      	mov	r6, r1
 8005e9c:	b085      	sub	sp, #20
 8005e9e:	4615      	mov	r5, r2
 8005ea0:	4604      	mov	r4, r0
 8005ea2:	b930      	cbnz	r0, 8005eb2 <etharp_output+0x1a>
 8005ea4:	4b3e      	ldr	r3, [pc, #248]	; (8005fa0 <etharp_output+0x108>)
 8005ea6:	f240 321b 	movw	r2, #795	; 0x31b
 8005eaa:	493e      	ldr	r1, [pc, #248]	; (8005fa4 <etharp_output+0x10c>)
 8005eac:	483e      	ldr	r0, [pc, #248]	; (8005fa8 <etharp_output+0x110>)
 8005eae:	f005 fd37 	bl	800b920 <iprintf>
 8005eb2:	b936      	cbnz	r6, 8005ec2 <etharp_output+0x2a>
 8005eb4:	4b3a      	ldr	r3, [pc, #232]	; (8005fa0 <etharp_output+0x108>)
 8005eb6:	f44f 7247 	mov.w	r2, #796	; 0x31c
 8005eba:	493c      	ldr	r1, [pc, #240]	; (8005fac <etharp_output+0x114>)
 8005ebc:	483a      	ldr	r0, [pc, #232]	; (8005fa8 <etharp_output+0x110>)
 8005ebe:	f005 fd2f 	bl	800b920 <iprintf>
 8005ec2:	b935      	cbnz	r5, 8005ed2 <etharp_output+0x3a>
 8005ec4:	4b36      	ldr	r3, [pc, #216]	; (8005fa0 <etharp_output+0x108>)
 8005ec6:	f240 321d 	movw	r2, #797	; 0x31d
 8005eca:	4939      	ldr	r1, [pc, #228]	; (8005fb0 <etharp_output+0x118>)
 8005ecc:	4836      	ldr	r0, [pc, #216]	; (8005fa8 <etharp_output+0x110>)
 8005ece:	f005 fd27 	bl	800b920 <iprintf>
 8005ed2:	4621      	mov	r1, r4
 8005ed4:	6828      	ldr	r0, [r5, #0]
 8005ed6:	f000 fad6 	bl	8006486 <ip4_addr_isbroadcast_u32>
 8005eda:	2800      	cmp	r0, #0
 8005edc:	d15a      	bne.n	8005f94 <etharp_output+0xfc>
 8005ede:	682b      	ldr	r3, [r5, #0]
 8005ee0:	f003 02f0 	and.w	r2, r3, #240	; 0xf0
 8005ee4:	2ae0      	cmp	r2, #224	; 0xe0
 8005ee6:	d11d      	bne.n	8005f24 <etharp_output+0x8c>
 8005ee8:	2301      	movs	r3, #1
 8005eea:	f88d 0009 	strb.w	r0, [sp, #9]
 8005eee:	f88d 3008 	strb.w	r3, [sp, #8]
 8005ef2:	235e      	movs	r3, #94	; 0x5e
 8005ef4:	f88d 300a 	strb.w	r3, [sp, #10]
 8005ef8:	786b      	ldrb	r3, [r5, #1]
 8005efa:	f003 037f 	and.w	r3, r3, #127	; 0x7f
 8005efe:	f88d 300b 	strb.w	r3, [sp, #11]
 8005f02:	78ab      	ldrb	r3, [r5, #2]
 8005f04:	f88d 300c 	strb.w	r3, [sp, #12]
 8005f08:	78eb      	ldrb	r3, [r5, #3]
 8005f0a:	f88d 300d 	strb.w	r3, [sp, #13]
 8005f0e:	ab02      	add	r3, sp, #8
 8005f10:	f44f 6200 	mov.w	r2, #2048	; 0x800
 8005f14:	4631      	mov	r1, r6
 8005f16:	4620      	mov	r0, r4
 8005f18:	9200      	str	r2, [sp, #0]
 8005f1a:	f104 0225 	add.w	r2, r4, #37	; 0x25
 8005f1e:	f004 fc33 	bl	800a788 <ethernet_output>
 8005f22:	e01f      	b.n	8005f64 <etharp_output+0xcc>
 8005f24:	6862      	ldr	r2, [r4, #4]
 8005f26:	68a1      	ldr	r1, [r4, #8]
 8005f28:	405a      	eors	r2, r3
 8005f2a:	420a      	tst	r2, r1
 8005f2c:	d008      	beq.n	8005f40 <etharp_output+0xa8>
 8005f2e:	b29b      	uxth	r3, r3
 8005f30:	f64f 62a9 	movw	r2, #65193	; 0xfea9
 8005f34:	4293      	cmp	r3, r2
 8005f36:	d003      	beq.n	8005f40 <etharp_output+0xa8>
 8005f38:	68e3      	ldr	r3, [r4, #12]
 8005f3a:	b36b      	cbz	r3, 8005f98 <etharp_output+0x100>
 8005f3c:	f104 050c 	add.w	r5, r4, #12
 8005f40:	4b1c      	ldr	r3, [pc, #112]	; (8005fb4 <etharp_output+0x11c>)
 8005f42:	2018      	movs	r0, #24
 8005f44:	491c      	ldr	r1, [pc, #112]	; (8005fb8 <etharp_output+0x120>)
 8005f46:	781a      	ldrb	r2, [r3, #0]
 8005f48:	fb00 1002 	mla	r0, r0, r2, r1
 8005f4c:	7d01      	ldrb	r1, [r0, #20]
 8005f4e:	2901      	cmp	r1, #1
 8005f50:	4619      	mov	r1, r3
 8005f52:	d909      	bls.n	8005f68 <etharp_output+0xd0>
 8005f54:	682f      	ldr	r7, [r5, #0]
 8005f56:	6843      	ldr	r3, [r0, #4]
 8005f58:	429f      	cmp	r7, r3
 8005f5a:	d105      	bne.n	8005f68 <etharp_output+0xd0>
 8005f5c:	4631      	mov	r1, r6
 8005f5e:	4620      	mov	r0, r4
 8005f60:	f7ff fe96 	bl	8005c90 <etharp_output_to_arp_index>
 8005f64:	b005      	add	sp, #20
 8005f66:	bdf0      	pop	{r4, r5, r6, r7, pc}
 8005f68:	4b13      	ldr	r3, [pc, #76]	; (8005fb8 <etharp_output+0x120>)
 8005f6a:	2200      	movs	r2, #0
 8005f6c:	7d18      	ldrb	r0, [r3, #20]
 8005f6e:	2801      	cmp	r0, #1
 8005f70:	d906      	bls.n	8005f80 <etharp_output+0xe8>
 8005f72:	682f      	ldr	r7, [r5, #0]
 8005f74:	6858      	ldr	r0, [r3, #4]
 8005f76:	4287      	cmp	r7, r0
 8005f78:	d102      	bne.n	8005f80 <etharp_output+0xe8>
 8005f7a:	b2d2      	uxtb	r2, r2
 8005f7c:	700a      	strb	r2, [r1, #0]
 8005f7e:	e7ed      	b.n	8005f5c <etharp_output+0xc4>
 8005f80:	3201      	adds	r2, #1
 8005f82:	3318      	adds	r3, #24
 8005f84:	2a0a      	cmp	r2, #10
 8005f86:	d1f1      	bne.n	8005f6c <etharp_output+0xd4>
 8005f88:	4632      	mov	r2, r6
 8005f8a:	4629      	mov	r1, r5
 8005f8c:	4620      	mov	r0, r4
 8005f8e:	f7ff fedb 	bl	8005d48 <etharp_query>
 8005f92:	e7e7      	b.n	8005f64 <etharp_output+0xcc>
 8005f94:	4b09      	ldr	r3, [pc, #36]	; (8005fbc <etharp_output+0x124>)
 8005f96:	e7bb      	b.n	8005f10 <etharp_output+0x78>
 8005f98:	f06f 0003 	mvn.w	r0, #3
 8005f9c:	e7e2      	b.n	8005f64 <etharp_output+0xcc>
 8005f9e:	bf00      	nop
 8005fa0:	0800c7d7 	.word	0x0800c7d7
 8005fa4:	0800c80e 	.word	0x0800c80e
 8005fa8:	0800c6ba 	.word	0x0800c6ba
 8005fac:	0800d217 	.word	0x0800d217
 8005fb0:	0800c722 	.word	0x0800c722
 8005fb4:	2000403c 	.word	0x2000403c
 8005fb8:	20003f4c 	.word	0x20003f4c
 8005fbc:	0800dad0 	.word	0x0800dad0

08005fc0 <icmp_send_response.isra.0>:
 8005fc0:	b5f0      	push	{r4, r5, r6, r7, lr}
 8005fc2:	4604      	mov	r4, r0
 8005fc4:	b087      	sub	sp, #28
 8005fc6:	460f      	mov	r7, r1
 8005fc8:	4616      	mov	r6, r2
 8005fca:	2124      	movs	r1, #36	; 0x24
 8005fcc:	2200      	movs	r2, #0
 8005fce:	2001      	movs	r0, #1
 8005fd0:	f001 fa8e 	bl	80074f0 <pbuf_alloc>
 8005fd4:	4605      	mov	r5, r0
 8005fd6:	b3a0      	cbz	r0, 8006042 <icmp_send_response.isra.0+0x82>
 8005fd8:	8943      	ldrh	r3, [r0, #10]
 8005fda:	2b23      	cmp	r3, #35	; 0x23
 8005fdc:	d806      	bhi.n	8005fec <icmp_send_response.isra.0+0x2c>
 8005fde:	4b1a      	ldr	r3, [pc, #104]	; (8006048 <icmp_send_response.isra.0+0x88>)
 8005fe0:	f44f 72b1 	mov.w	r2, #354	; 0x162
 8005fe4:	4919      	ldr	r1, [pc, #100]	; (800604c <icmp_send_response.isra.0+0x8c>)
 8005fe6:	481a      	ldr	r0, [pc, #104]	; (8006050 <icmp_send_response.isra.0+0x90>)
 8005fe8:	f005 fc9a 	bl	800b920 <iprintf>
 8005fec:	6822      	ldr	r2, [r4, #0]
 8005fee:	2300      	movs	r3, #0
 8005ff0:	686c      	ldr	r4, [r5, #4]
 8005ff2:	f102 001c 	add.w	r0, r2, #28
 8005ff6:	7123      	strb	r3, [r4, #4]
 8005ff8:	f104 0108 	add.w	r1, r4, #8
 8005ffc:	7163      	strb	r3, [r4, #5]
 8005ffe:	71a3      	strb	r3, [r4, #6]
 8006000:	71e3      	strb	r3, [r4, #7]
 8006002:	4613      	mov	r3, r2
 8006004:	7027      	strb	r7, [r4, #0]
 8006006:	7066      	strb	r6, [r4, #1]
 8006008:	f853 6b04 	ldr.w	r6, [r3], #4
 800600c:	4283      	cmp	r3, r0
 800600e:	f841 6b04 	str.w	r6, [r1], #4
 8006012:	d1f9      	bne.n	8006008 <icmp_send_response.isra.0+0x48>
 8006014:	ae06      	add	r6, sp, #24
 8006016:	68d3      	ldr	r3, [r2, #12]
 8006018:	f846 3d04 	str.w	r3, [r6, #-4]!
 800601c:	4630      	mov	r0, r6
 800601e:	f000 f8bb 	bl	8006198 <ip4_route>
 8006022:	b158      	cbz	r0, 800603c <icmp_send_response.isra.0+0x7c>
 8006024:	2100      	movs	r1, #0
 8006026:	2301      	movs	r3, #1
 8006028:	4632      	mov	r2, r6
 800602a:	70a1      	strb	r1, [r4, #2]
 800602c:	70e1      	strb	r1, [r4, #3]
 800602e:	9002      	str	r0, [sp, #8]
 8006030:	4628      	mov	r0, r5
 8006032:	e88d 000a 	stmia.w	sp, {r1, r3}
 8006036:	23ff      	movs	r3, #255	; 0xff
 8006038:	f000 fa14 	bl	8006464 <ip4_output_if>
 800603c:	4628      	mov	r0, r5
 800603e:	f001 f9ed 	bl	800741c <pbuf_free>
 8006042:	b007      	add	sp, #28
 8006044:	bdf0      	pop	{r4, r5, r6, r7, pc}
 8006046:	bf00      	nop
 8006048:	0800c8f5 	.word	0x0800c8f5
 800604c:	0800c92a 	.word	0x0800c92a
 8006050:	0800c6ba 	.word	0x0800c6ba

08006054 <icmp_input>:
 8006054:	4b45      	ldr	r3, [pc, #276]	; (800616c <icmp_input+0x118>)
 8006056:	e92d 43f0 	stmdb	sp!, {r4, r5, r6, r7, r8, r9, lr}
 800605a:	f8d3 9008 	ldr.w	r9, [r3, #8]
 800605e:	b085      	sub	sp, #20
 8006060:	4604      	mov	r4, r0
 8006062:	4688      	mov	r8, r1
 8006064:	f899 5000 	ldrb.w	r5, [r9]
 8006068:	461f      	mov	r7, r3
 800606a:	f005 050f 	and.w	r5, r5, #15
 800606e:	00ad      	lsls	r5, r5, #2
 8006070:	2d13      	cmp	r5, #19
 8006072:	d92a      	bls.n	80060ca <icmp_input+0x76>
 8006074:	8942      	ldrh	r2, [r0, #10]
 8006076:	2a03      	cmp	r2, #3
 8006078:	d927      	bls.n	80060ca <icmp_input+0x76>
 800607a:	6842      	ldr	r2, [r0, #4]
 800607c:	7812      	ldrb	r2, [r2, #0]
 800607e:	2a08      	cmp	r2, #8
 8006080:	d123      	bne.n	80060ca <icmp_input+0x76>
 8006082:	6958      	ldr	r0, [r3, #20]
 8006084:	f000 02f0 	and.w	r2, r0, #240	; 0xf0
 8006088:	2ae0      	cmp	r2, #224	; 0xe0
 800608a:	d01e      	beq.n	80060ca <icmp_input+0x76>
 800608c:	6819      	ldr	r1, [r3, #0]
 800608e:	f000 f9fa 	bl	8006486 <ip4_addr_isbroadcast_u32>
 8006092:	4606      	mov	r6, r0
 8006094:	b9c8      	cbnz	r0, 80060ca <icmp_input+0x76>
 8006096:	8923      	ldrh	r3, [r4, #8]
 8006098:	2b07      	cmp	r3, #7
 800609a:	d916      	bls.n	80060ca <icmp_input+0x76>
 800609c:	f105 010e 	add.w	r1, r5, #14
 80060a0:	4620      	mov	r0, r4
 80060a2:	f001 f9b5 	bl	8007410 <pbuf_header>
 80060a6:	2800      	cmp	r0, #0
 80060a8:	d04f      	beq.n	800614a <icmp_input+0xf6>
 80060aa:	8921      	ldrh	r1, [r4, #8]
 80060ac:	4632      	mov	r2, r6
 80060ae:	2002      	movs	r0, #2
 80060b0:	4429      	add	r1, r5
 80060b2:	b289      	uxth	r1, r1
 80060b4:	f001 fa1c 	bl	80074f0 <pbuf_alloc>
 80060b8:	4606      	mov	r6, r0
 80060ba:	b130      	cbz	r0, 80060ca <icmp_input+0x76>
 80060bc:	8942      	ldrh	r2, [r0, #10]
 80060be:	f105 0308 	add.w	r3, r5, #8
 80060c2:	429a      	cmp	r2, r3
 80060c4:	d207      	bcs.n	80060d6 <icmp_input+0x82>
 80060c6:	f001 f9a9 	bl	800741c <pbuf_free>
 80060ca:	4620      	mov	r0, r4
 80060cc:	b005      	add	sp, #20
 80060ce:	e8bd 43f0 	ldmia.w	sp!, {r4, r5, r6, r7, r8, r9, lr}
 80060d2:	f001 b9a3 	b.w	800741c <pbuf_free>
 80060d6:	4649      	mov	r1, r9
 80060d8:	462a      	mov	r2, r5
 80060da:	6840      	ldr	r0, [r0, #4]
 80060dc:	f005 fb61 	bl	800b7a2 <memcpy>
 80060e0:	4269      	negs	r1, r5
 80060e2:	4630      	mov	r0, r6
 80060e4:	f001 f994 	bl	8007410 <pbuf_header>
 80060e8:	b138      	cbz	r0, 80060fa <icmp_input+0xa6>
 80060ea:	4b21      	ldr	r3, [pc, #132]	; (8006170 <icmp_input+0x11c>)
 80060ec:	22af      	movs	r2, #175	; 0xaf
 80060ee:	4921      	ldr	r1, [pc, #132]	; (8006174 <icmp_input+0x120>)
 80060f0:	4821      	ldr	r0, [pc, #132]	; (8006178 <icmp_input+0x124>)
 80060f2:	f005 fc15 	bl	800b920 <iprintf>
 80060f6:	4630      	mov	r0, r6
 80060f8:	e7e5      	b.n	80060c6 <icmp_input+0x72>
 80060fa:	4621      	mov	r1, r4
 80060fc:	4630      	mov	r0, r6
 80060fe:	f001 fba1 	bl	8007844 <pbuf_copy>
 8006102:	2800      	cmp	r0, #0
 8006104:	d1f7      	bne.n	80060f6 <icmp_input+0xa2>
 8006106:	4620      	mov	r0, r4
 8006108:	4634      	mov	r4, r6
 800610a:	f001 f987 	bl	800741c <pbuf_free>
 800610e:	4629      	mov	r1, r5
 8006110:	4620      	mov	r0, r4
 8006112:	6866      	ldr	r6, [r4, #4]
 8006114:	f001 f97c 	bl	8007410 <pbuf_header>
 8006118:	4602      	mov	r2, r0
 800611a:	2800      	cmp	r0, #0
 800611c:	d1d5      	bne.n	80060ca <icmp_input+0x76>
 800611e:	6861      	ldr	r1, [r4, #4]
 8006120:	697b      	ldr	r3, [r7, #20]
 8006122:	60cb      	str	r3, [r1, #12]
 8006124:	693b      	ldr	r3, [r7, #16]
 8006126:	610b      	str	r3, [r1, #16]
 8006128:	23ff      	movs	r3, #255	; 0xff
 800612a:	7030      	strb	r0, [r6, #0]
 800612c:	70b0      	strb	r0, [r6, #2]
 800612e:	70f0      	strb	r0, [r6, #3]
 8006130:	720b      	strb	r3, [r1, #8]
 8006132:	7288      	strb	r0, [r1, #10]
 8006134:	72c8      	strb	r0, [r1, #11]
 8006136:	2101      	movs	r1, #1
 8006138:	9000      	str	r0, [sp, #0]
 800613a:	4620      	mov	r0, r4
 800613c:	9101      	str	r1, [sp, #4]
 800613e:	f8cd 8008 	str.w	r8, [sp, #8]
 8006142:	490e      	ldr	r1, [pc, #56]	; (800617c <icmp_input+0x128>)
 8006144:	f000 f98e 	bl	8006464 <ip4_output_if>
 8006148:	e7bf      	b.n	80060ca <icmp_input+0x76>
 800614a:	f5c5 417f 	rsb	r1, r5, #65280	; 0xff00
 800614e:	4620      	mov	r0, r4
 8006150:	31f2      	adds	r1, #242	; 0xf2
 8006152:	b209      	sxth	r1, r1
 8006154:	f001 f95c 	bl	8007410 <pbuf_header>
 8006158:	2800      	cmp	r0, #0
 800615a:	d0d8      	beq.n	800610e <icmp_input+0xba>
 800615c:	4b04      	ldr	r3, [pc, #16]	; (8006170 <icmp_input+0x11c>)
 800615e:	22c0      	movs	r2, #192	; 0xc0
 8006160:	4907      	ldr	r1, [pc, #28]	; (8006180 <icmp_input+0x12c>)
 8006162:	4805      	ldr	r0, [pc, #20]	; (8006178 <icmp_input+0x124>)
 8006164:	f005 fbdc 	bl	800b920 <iprintf>
 8006168:	e7af      	b.n	80060ca <icmp_input+0x76>
 800616a:	bf00      	nop
 800616c:	200040f0 	.word	0x200040f0
 8006170:	0800c8f5 	.word	0x0800c8f5
 8006174:	0800c88e 	.word	0x0800c88e
 8006178:	0800c6ba 	.word	0x0800c6ba
 800617c:	20004104 	.word	0x20004104
 8006180:	0800c8c3 	.word	0x0800c8c3

08006184 <icmp_dest_unreach>:
 8006184:	460a      	mov	r2, r1
 8006186:	3004      	adds	r0, #4
 8006188:	2103      	movs	r1, #3
 800618a:	f7ff bf19 	b.w	8005fc0 <icmp_send_response.isra.0>

0800618e <icmp_time_exceeded>:
 800618e:	460a      	mov	r2, r1
 8006190:	3004      	adds	r0, #4
 8006192:	210b      	movs	r1, #11
 8006194:	f7ff bf14 	b.w	8005fc0 <icmp_send_response.isra.0>

08006198 <ip4_route>:
 8006198:	4b13      	ldr	r3, [pc, #76]	; (80061e8 <ip4_route+0x50>)
 800619a:	b530      	push	{r4, r5, lr}
 800619c:	681b      	ldr	r3, [r3, #0]
 800619e:	b96b      	cbnz	r3, 80061bc <ip4_route+0x24>
 80061a0:	4a12      	ldr	r2, [pc, #72]	; (80061ec <ip4_route+0x54>)
 80061a2:	6812      	ldr	r2, [r2, #0]
 80061a4:	b1ea      	cbz	r2, 80061e2 <ip4_route+0x4a>
 80061a6:	f892 102b 	ldrb.w	r1, [r2, #43]	; 0x2b
 80061aa:	f001 0105 	and.w	r1, r1, #5
 80061ae:	2905      	cmp	r1, #5
 80061b0:	d117      	bne.n	80061e2 <ip4_route+0x4a>
 80061b2:	6851      	ldr	r1, [r2, #4]
 80061b4:	2900      	cmp	r1, #0
 80061b6:	bf18      	it	ne
 80061b8:	4613      	movne	r3, r2
 80061ba:	e012      	b.n	80061e2 <ip4_route+0x4a>
 80061bc:	f893 402b 	ldrb.w	r4, [r3, #43]	; 0x2b
 80061c0:	f004 0205 	and.w	r2, r4, #5
 80061c4:	2a05      	cmp	r2, #5
 80061c6:	d1e9      	bne.n	800619c <ip4_route+0x4>
 80061c8:	685a      	ldr	r2, [r3, #4]
 80061ca:	2a00      	cmp	r2, #0
 80061cc:	d0e6      	beq.n	800619c <ip4_route+0x4>
 80061ce:	6801      	ldr	r1, [r0, #0]
 80061d0:	689d      	ldr	r5, [r3, #8]
 80061d2:	404a      	eors	r2, r1
 80061d4:	422a      	tst	r2, r5
 80061d6:	d004      	beq.n	80061e2 <ip4_route+0x4a>
 80061d8:	07a2      	lsls	r2, r4, #30
 80061da:	d4df      	bmi.n	800619c <ip4_route+0x4>
 80061dc:	68da      	ldr	r2, [r3, #12]
 80061de:	4291      	cmp	r1, r2
 80061e0:	d1dc      	bne.n	800619c <ip4_route+0x4>
 80061e2:	4618      	mov	r0, r3
 80061e4:	bd30      	pop	{r4, r5, pc}
 80061e6:	bf00      	nop
 80061e8:	200077e4 	.word	0x200077e4
 80061ec:	200077e8 	.word	0x200077e8

080061f0 <ip4_input>:
 80061f0:	e92d 4ff8 	stmdb	sp!, {r3, r4, r5, r6, r7, r8, r9, sl, fp, lr}
 80061f4:	6847      	ldr	r7, [r0, #4]
 80061f6:	4605      	mov	r5, r0
 80061f8:	4688      	mov	r8, r1
 80061fa:	f897 9000 	ldrb.w	r9, [r7]
 80061fe:	ea4f 1319 	mov.w	r3, r9, lsr #4
 8006202:	2b04      	cmp	r3, #4
 8006204:	d005      	beq.n	8006212 <ip4_input+0x22>
 8006206:	4628      	mov	r0, r5
 8006208:	f001 f908 	bl	800741c <pbuf_free>
 800620c:	2000      	movs	r0, #0
 800620e:	e8bd 8ff8 	ldmia.w	sp!, {r3, r4, r5, r6, r7, r8, r9, sl, fp, pc}
 8006212:	8878      	ldrh	r0, [r7, #2]
 8006214:	f009 090f 	and.w	r9, r9, #15
 8006218:	f7ff fb28 	bl	800586c <lwip_htons>
 800621c:	892b      	ldrh	r3, [r5, #8]
 800621e:	ea4f 0989 	mov.w	r9, r9, lsl #2
 8006222:	4604      	mov	r4, r0
 8006224:	4283      	cmp	r3, r0
 8006226:	d903      	bls.n	8006230 <ip4_input+0x40>
 8006228:	4601      	mov	r1, r0
 800622a:	4628      	mov	r0, r5
 800622c:	f001 fa3c 	bl	80076a8 <pbuf_realloc>
 8006230:	896b      	ldrh	r3, [r5, #10]
 8006232:	454b      	cmp	r3, r9
 8006234:	d3e7      	bcc.n	8006206 <ip4_input+0x16>
 8006236:	892b      	ldrh	r3, [r5, #8]
 8006238:	42a3      	cmp	r3, r4
 800623a:	d3e4      	bcc.n	8006206 <ip4_input+0x16>
 800623c:	f1b9 0f13 	cmp.w	r9, #19
 8006240:	d9e1      	bls.n	8006206 <ip4_input+0x16>
 8006242:	693b      	ldr	r3, [r7, #16]
 8006244:	4c49      	ldr	r4, [pc, #292]	; (800636c <ip4_input+0x17c>)
 8006246:	6163      	str	r3, [r4, #20]
 8006248:	f003 03f0 	and.w	r3, r3, #240	; 0xf0
 800624c:	68fa      	ldr	r2, [r7, #12]
 800624e:	2be0      	cmp	r3, #224	; 0xe0
 8006250:	6122      	str	r2, [r4, #16]
 8006252:	d139      	bne.n	80062c8 <ip4_input+0xd8>
 8006254:	f898 302b 	ldrb.w	r3, [r8, #43]	; 0x2b
 8006258:	07da      	lsls	r2, r3, #31
 800625a:	d503      	bpl.n	8006264 <ip4_input+0x74>
 800625c:	f8d8 3004 	ldr.w	r3, [r8, #4]
 8006260:	2b00      	cmp	r3, #0
 8006262:	d158      	bne.n	8006316 <ip4_input+0x126>
 8006264:	2600      	movs	r6, #0
 8006266:	4641      	mov	r1, r8
 8006268:	6920      	ldr	r0, [r4, #16]
 800626a:	f000 f90c 	bl	8006486 <ip4_addr_isbroadcast_u32>
 800626e:	2800      	cmp	r0, #0
 8006270:	d1c9      	bne.n	8006206 <ip4_input+0x16>
 8006272:	6923      	ldr	r3, [r4, #16]
 8006274:	f003 03f0 	and.w	r3, r3, #240	; 0xf0
 8006278:	2be0      	cmp	r3, #224	; 0xe0
 800627a:	d0c4      	beq.n	8006206 <ip4_input+0x16>
 800627c:	2e00      	cmp	r6, #0
 800627e:	d0c2      	beq.n	8006206 <ip4_input+0x16>
 8006280:	88fb      	ldrh	r3, [r7, #6]
 8006282:	f023 03c0 	bic.w	r3, r3, #192	; 0xc0
 8006286:	b133      	cbz	r3, 8006296 <ip4_input+0xa6>
 8006288:	4628      	mov	r0, r5
 800628a:	f000 fa2b 	bl	80066e4 <ip4_reass>
 800628e:	4605      	mov	r5, r0
 8006290:	2800      	cmp	r0, #0
 8006292:	d0bb      	beq.n	800620c <ip4_input+0x1c>
 8006294:	6847      	ldr	r7, [r0, #4]
 8006296:	60a7      	str	r7, [r4, #8]
 8006298:	f1c9 0100 	rsb	r1, r9, #0
 800629c:	4628      	mov	r0, r5
 800629e:	e884 0140 	stmia.w	r4, {r6, r8}
 80062a2:	783b      	ldrb	r3, [r7, #0]
 80062a4:	f003 030f 	and.w	r3, r3, #15
 80062a8:	009b      	lsls	r3, r3, #2
 80062aa:	81a3      	strh	r3, [r4, #12]
 80062ac:	f001 f8b0 	bl	8007410 <pbuf_header>
 80062b0:	7a7b      	ldrb	r3, [r7, #9]
 80062b2:	2b06      	cmp	r3, #6
 80062b4:	d03d      	beq.n	8006332 <ip4_input+0x142>
 80062b6:	2b11      	cmp	r3, #17
 80062b8:	d02f      	beq.n	800631a <ip4_input+0x12a>
 80062ba:	2b01      	cmp	r3, #1
 80062bc:	d13e      	bne.n	800633c <ip4_input+0x14c>
 80062be:	4641      	mov	r1, r8
 80062c0:	4628      	mov	r0, r5
 80062c2:	f7ff fec7 	bl	8006054 <icmp_input>
 80062c6:	e02c      	b.n	8006322 <ip4_input+0x132>
 80062c8:	4646      	mov	r6, r8
 80062ca:	f04f 0a01 	mov.w	sl, #1
 80062ce:	f8df b0a0 	ldr.w	fp, [pc, #160]	; 8006370 <ip4_input+0x180>
 80062d2:	f896 302b 	ldrb.w	r3, [r6, #43]	; 0x2b
 80062d6:	07db      	lsls	r3, r3, #31
 80062d8:	d404      	bmi.n	80062e4 <ip4_input+0xf4>
 80062da:	f1ba 0f00 	cmp.w	sl, #0
 80062de:	d10d      	bne.n	80062fc <ip4_input+0x10c>
 80062e0:	6836      	ldr	r6, [r6, #0]
 80062e2:	e010      	b.n	8006306 <ip4_input+0x116>
 80062e4:	6873      	ldr	r3, [r6, #4]
 80062e6:	2b00      	cmp	r3, #0
 80062e8:	d0f7      	beq.n	80062da <ip4_input+0xea>
 80062ea:	6960      	ldr	r0, [r4, #20]
 80062ec:	4283      	cmp	r3, r0
 80062ee:	d0ba      	beq.n	8006266 <ip4_input+0x76>
 80062f0:	4631      	mov	r1, r6
 80062f2:	f000 f8c8 	bl	8006486 <ip4_addr_isbroadcast_u32>
 80062f6:	2800      	cmp	r0, #0
 80062f8:	d0ef      	beq.n	80062da <ip4_input+0xea>
 80062fa:	e7b4      	b.n	8006266 <ip4_input+0x76>
 80062fc:	7d23      	ldrb	r3, [r4, #20]
 80062fe:	2b7f      	cmp	r3, #127	; 0x7f
 8006300:	d0b0      	beq.n	8006264 <ip4_input+0x74>
 8006302:	f8db 6000 	ldr.w	r6, [fp]
 8006306:	4546      	cmp	r6, r8
 8006308:	f04f 0a00 	mov.w	sl, #0
 800630c:	bf08      	it	eq
 800630e:	6836      	ldreq	r6, [r6, #0]
 8006310:	2e00      	cmp	r6, #0
 8006312:	d1de      	bne.n	80062d2 <ip4_input+0xe2>
 8006314:	e7a6      	b.n	8006264 <ip4_input+0x74>
 8006316:	4646      	mov	r6, r8
 8006318:	e7a5      	b.n	8006266 <ip4_input+0x76>
 800631a:	4641      	mov	r1, r8
 800631c:	4628      	mov	r0, r5
 800631e:	f004 f939 	bl	800a594 <udp_input>
 8006322:	2300      	movs	r3, #0
 8006324:	6023      	str	r3, [r4, #0]
 8006326:	6063      	str	r3, [r4, #4]
 8006328:	60a3      	str	r3, [r4, #8]
 800632a:	81a3      	strh	r3, [r4, #12]
 800632c:	6123      	str	r3, [r4, #16]
 800632e:	6163      	str	r3, [r4, #20]
 8006330:	e76c      	b.n	800620c <ip4_input+0x1c>
 8006332:	4641      	mov	r1, r8
 8006334:	4628      	mov	r0, r5
 8006336:	f002 fec3 	bl	80090c0 <tcp_input>
 800633a:	e7f2      	b.n	8006322 <ip4_input+0x132>
 800633c:	4631      	mov	r1, r6
 800633e:	6960      	ldr	r0, [r4, #20]
 8006340:	f000 f8a1 	bl	8006486 <ip4_addr_isbroadcast_u32>
 8006344:	b968      	cbnz	r0, 8006362 <ip4_input+0x172>
 8006346:	6963      	ldr	r3, [r4, #20]
 8006348:	f003 03f0 	and.w	r3, r3, #240	; 0xf0
 800634c:	2be0      	cmp	r3, #224	; 0xe0
 800634e:	d008      	beq.n	8006362 <ip4_input+0x172>
 8006350:	4649      	mov	r1, r9
 8006352:	4628      	mov	r0, r5
 8006354:	f001 f85f 	bl	8007416 <pbuf_header_force>
 8006358:	606f      	str	r7, [r5, #4]
 800635a:	2102      	movs	r1, #2
 800635c:	4628      	mov	r0, r5
 800635e:	f7ff ff11 	bl	8006184 <icmp_dest_unreach>
 8006362:	4628      	mov	r0, r5
 8006364:	f001 f85a 	bl	800741c <pbuf_free>
 8006368:	e7db      	b.n	8006322 <ip4_input+0x132>
 800636a:	bf00      	nop
 800636c:	200040f0 	.word	0x200040f0
 8006370:	200077e4 	.word	0x200077e4

08006374 <ip4_output_if_src>:
 8006374:	e92d 47f3 	stmdb	sp!, {r0, r1, r4, r5, r6, r7, r8, r9, sl, lr}
 8006378:	461f      	mov	r7, r3
 800637a:	89c3      	ldrh	r3, [r0, #14]
 800637c:	4605      	mov	r5, r0
 800637e:	468a      	mov	sl, r1
 8006380:	2b01      	cmp	r3, #1
 8006382:	4616      	mov	r6, r2
 8006384:	f8dd 8030 	ldr.w	r8, [sp, #48]	; 0x30
 8006388:	d006      	beq.n	8006398 <ip4_output_if_src+0x24>
 800638a:	4b30      	ldr	r3, [pc, #192]	; (800644c <ip4_output_if_src+0xd8>)
 800638c:	f240 3233 	movw	r2, #819	; 0x333
 8006390:	492f      	ldr	r1, [pc, #188]	; (8006450 <ip4_output_if_src+0xdc>)
 8006392:	4830      	ldr	r0, [pc, #192]	; (8006454 <ip4_output_if_src+0xe0>)
 8006394:	f005 fac4 	bl	800b920 <iprintf>
 8006398:	2e00      	cmp	r6, #0
 800639a:	d047      	beq.n	800642c <ip4_output_if_src+0xb8>
 800639c:	2114      	movs	r1, #20
 800639e:	4628      	mov	r0, r5
 80063a0:	f001 f836 	bl	8007410 <pbuf_header>
 80063a4:	2800      	cmp	r0, #0
 80063a6:	d14e      	bne.n	8006446 <ip4_output_if_src+0xd2>
 80063a8:	896b      	ldrh	r3, [r5, #10]
 80063aa:	686c      	ldr	r4, [r5, #4]
 80063ac:	2b13      	cmp	r3, #19
 80063ae:	d806      	bhi.n	80063be <ip4_output_if_src+0x4a>
 80063b0:	4b26      	ldr	r3, [pc, #152]	; (800644c <ip4_output_if_src+0xd8>)
 80063b2:	f240 3261 	movw	r2, #865	; 0x361
 80063b6:	4928      	ldr	r1, [pc, #160]	; (8006458 <ip4_output_if_src+0xe4>)
 80063b8:	4826      	ldr	r0, [pc, #152]	; (8006454 <ip4_output_if_src+0xe0>)
 80063ba:	f005 fab1 	bl	800b920 <iprintf>
 80063be:	f89d 302c 	ldrb.w	r3, [sp, #44]	; 0x2c
 80063c2:	7227      	strb	r7, [r4, #8]
 80063c4:	2700      	movs	r7, #0
 80063c6:	7263      	strb	r3, [r4, #9]
 80063c8:	6833      	ldr	r3, [r6, #0]
 80063ca:	f8df 9094 	ldr.w	r9, [pc, #148]	; 8006460 <ip4_output_if_src+0xec>
 80063ce:	6123      	str	r3, [r4, #16]
 80063d0:	2345      	movs	r3, #69	; 0x45
 80063d2:	7023      	strb	r3, [r4, #0]
 80063d4:	f89d 3028 	ldrb.w	r3, [sp, #40]	; 0x28
 80063d8:	7063      	strb	r3, [r4, #1]
 80063da:	8928      	ldrh	r0, [r5, #8]
 80063dc:	f7ff fa46 	bl	800586c <lwip_htons>
 80063e0:	71a7      	strb	r7, [r4, #6]
 80063e2:	8060      	strh	r0, [r4, #2]
 80063e4:	71e7      	strb	r7, [r4, #7]
 80063e6:	f8b9 0000 	ldrh.w	r0, [r9]
 80063ea:	f7ff fa3f 	bl	800586c <lwip_htons>
 80063ee:	f8b9 3000 	ldrh.w	r3, [r9]
 80063f2:	80a0      	strh	r0, [r4, #4]
 80063f4:	3301      	adds	r3, #1
 80063f6:	f8a9 3000 	strh.w	r3, [r9]
 80063fa:	f1ba 0f00 	cmp.w	sl, #0
 80063fe:	d112      	bne.n	8006426 <ip4_output_if_src+0xb2>
 8006400:	4b16      	ldr	r3, [pc, #88]	; (800645c <ip4_output_if_src+0xe8>)
 8006402:	681b      	ldr	r3, [r3, #0]
 8006404:	60e3      	str	r3, [r4, #12]
 8006406:	72a7      	strb	r7, [r4, #10]
 8006408:	72e7      	strb	r7, [r4, #11]
 800640a:	f8b8 3022 	ldrh.w	r3, [r8, #34]	; 0x22
 800640e:	b19b      	cbz	r3, 8006438 <ip4_output_if_src+0xc4>
 8006410:	892a      	ldrh	r2, [r5, #8]
 8006412:	429a      	cmp	r2, r3
 8006414:	d910      	bls.n	8006438 <ip4_output_if_src+0xc4>
 8006416:	4632      	mov	r2, r6
 8006418:	4641      	mov	r1, r8
 800641a:	4628      	mov	r0, r5
 800641c:	f000 fb0c 	bl	8006a38 <ip4_frag>
 8006420:	b002      	add	sp, #8
 8006422:	e8bd 87f0 	ldmia.w	sp!, {r4, r5, r6, r7, r8, r9, sl, pc}
 8006426:	f8da 3000 	ldr.w	r3, [sl]
 800642a:	e7eb      	b.n	8006404 <ip4_output_if_src+0x90>
 800642c:	686b      	ldr	r3, [r5, #4]
 800642e:	ae02      	add	r6, sp, #8
 8006430:	691b      	ldr	r3, [r3, #16]
 8006432:	f846 3d04 	str.w	r3, [r6, #-4]!
 8006436:	e7e8      	b.n	800640a <ip4_output_if_src+0x96>
 8006438:	f8d8 3014 	ldr.w	r3, [r8, #20]
 800643c:	4632      	mov	r2, r6
 800643e:	4629      	mov	r1, r5
 8006440:	4640      	mov	r0, r8
 8006442:	4798      	blx	r3
 8006444:	e7ec      	b.n	8006420 <ip4_output_if_src+0xac>
 8006446:	f06f 0001 	mvn.w	r0, #1
 800644a:	e7e9      	b.n	8006420 <ip4_output_if_src+0xac>
 800644c:	0800c956 	.word	0x0800c956
 8006450:	0800c98a 	.word	0x0800c98a
 8006454:	0800c6ba 	.word	0x0800c6ba
 8006458:	0800c996 	.word	0x0800c996
 800645c:	0800c9c4 	.word	0x0800c9c4
 8006460:	2000403e 	.word	0x2000403e

08006464 <ip4_output_if>:
 8006464:	b4f0      	push	{r4, r5, r6, r7}
 8006466:	9c06      	ldr	r4, [sp, #24]
 8006468:	f89d 5010 	ldrb.w	r5, [sp, #16]
 800646c:	f89d 6014 	ldrb.w	r6, [sp, #20]
 8006470:	b11a      	cbz	r2, 800647a <ip4_output_if+0x16>
 8006472:	b109      	cbz	r1, 8006478 <ip4_output_if+0x14>
 8006474:	680f      	ldr	r7, [r1, #0]
 8006476:	b907      	cbnz	r7, 800647a <ip4_output_if+0x16>
 8006478:	1d21      	adds	r1, r4, #4
 800647a:	9406      	str	r4, [sp, #24]
 800647c:	9605      	str	r6, [sp, #20]
 800647e:	9504      	str	r5, [sp, #16]
 8006480:	bcf0      	pop	{r4, r5, r6, r7}
 8006482:	f7ff bf77 	b.w	8006374 <ip4_output_if_src>

08006486 <ip4_addr_isbroadcast_u32>:
 8006486:	1e43      	subs	r3, r0, #1
 8006488:	3303      	adds	r3, #3
 800648a:	d811      	bhi.n	80064b0 <ip4_addr_isbroadcast_u32+0x2a>
 800648c:	f891 302b 	ldrb.w	r3, [r1, #43]	; 0x2b
 8006490:	f013 0302 	ands.w	r3, r3, #2
 8006494:	d00e      	beq.n	80064b4 <ip4_addr_isbroadcast_u32+0x2e>
 8006496:	684a      	ldr	r2, [r1, #4]
 8006498:	4290      	cmp	r0, r2
 800649a:	d00b      	beq.n	80064b4 <ip4_addr_isbroadcast_u32+0x2e>
 800649c:	688b      	ldr	r3, [r1, #8]
 800649e:	4042      	eors	r2, r0
 80064a0:	421a      	tst	r2, r3
 80064a2:	d107      	bne.n	80064b4 <ip4_addr_isbroadcast_u32+0x2e>
 80064a4:	43db      	mvns	r3, r3
 80064a6:	4383      	bics	r3, r0
 80064a8:	bf0c      	ite	eq
 80064aa:	2001      	moveq	r0, #1
 80064ac:	2000      	movne	r0, #0
 80064ae:	4770      	bx	lr
 80064b0:	2001      	movs	r0, #1
 80064b2:	4770      	bx	lr
 80064b4:	2000      	movs	r0, #0
 80064b6:	4770      	bx	lr

080064b8 <ip_reass_dequeue_datagram>:
 80064b8:	b538      	push	{r3, r4, r5, lr}
 80064ba:	4b0c      	ldr	r3, [pc, #48]	; (80064ec <ip_reass_dequeue_datagram+0x34>)
 80064bc:	4604      	mov	r4, r0
 80064be:	460d      	mov	r5, r1
 80064c0:	681a      	ldr	r2, [r3, #0]
 80064c2:	4282      	cmp	r2, r0
 80064c4:	d107      	bne.n	80064d6 <ip_reass_dequeue_datagram+0x1e>
 80064c6:	6802      	ldr	r2, [r0, #0]
 80064c8:	601a      	str	r2, [r3, #0]
 80064ca:	4621      	mov	r1, r4
 80064cc:	2004      	movs	r0, #4
 80064ce:	e8bd 4038 	ldmia.w	sp!, {r3, r4, r5, lr}
 80064d2:	f000 be1d 	b.w	8007110 <memp_free>
 80064d6:	b931      	cbnz	r1, 80064e6 <ip_reass_dequeue_datagram+0x2e>
 80064d8:	4b05      	ldr	r3, [pc, #20]	; (80064f0 <ip_reass_dequeue_datagram+0x38>)
 80064da:	f240 1245 	movw	r2, #325	; 0x145
 80064de:	4905      	ldr	r1, [pc, #20]	; (80064f4 <ip_reass_dequeue_datagram+0x3c>)
 80064e0:	4805      	ldr	r0, [pc, #20]	; (80064f8 <ip_reass_dequeue_datagram+0x40>)
 80064e2:	f005 fa1d 	bl	800b920 <iprintf>
 80064e6:	6823      	ldr	r3, [r4, #0]
 80064e8:	602b      	str	r3, [r5, #0]
 80064ea:	e7ee      	b.n	80064ca <ip_reass_dequeue_datagram+0x12>
 80064ec:	20004044 	.word	0x20004044
 80064f0:	0800caad 	.word	0x0800caad
 80064f4:	0800cae6 	.word	0x0800cae6
 80064f8:	0800c6ba 	.word	0x0800c6ba

080064fc <ip_reass_free_complete_datagram>:
 80064fc:	4281      	cmp	r1, r0
 80064fe:	e92d 4ff8 	stmdb	sp!, {r3, r4, r5, r6, r7, r8, r9, sl, fp, lr}
 8006502:	4605      	mov	r5, r0
 8006504:	460f      	mov	r7, r1
 8006506:	d105      	bne.n	8006514 <ip_reass_free_complete_datagram+0x18>
 8006508:	4b2f      	ldr	r3, [pc, #188]	; (80065c8 <ip_reass_free_complete_datagram+0xcc>)
 800650a:	22ab      	movs	r2, #171	; 0xab
 800650c:	492f      	ldr	r1, [pc, #188]	; (80065cc <ip_reass_free_complete_datagram+0xd0>)
 800650e:	4830      	ldr	r0, [pc, #192]	; (80065d0 <ip_reass_free_complete_datagram+0xd4>)
 8006510:	f005 fa06 	bl	800b920 <iprintf>
 8006514:	b147      	cbz	r7, 8006528 <ip_reass_free_complete_datagram+0x2c>
 8006516:	683b      	ldr	r3, [r7, #0]
 8006518:	429d      	cmp	r5, r3
 800651a:	d005      	beq.n	8006528 <ip_reass_free_complete_datagram+0x2c>
 800651c:	4b2a      	ldr	r3, [pc, #168]	; (80065c8 <ip_reass_free_complete_datagram+0xcc>)
 800651e:	22ad      	movs	r2, #173	; 0xad
 8006520:	492c      	ldr	r1, [pc, #176]	; (80065d4 <ip_reass_free_complete_datagram+0xd8>)
 8006522:	482b      	ldr	r0, [pc, #172]	; (80065d0 <ip_reass_free_complete_datagram+0xd4>)
 8006524:	f005 f9fc 	bl	800b920 <iprintf>
 8006528:	686e      	ldr	r6, [r5, #4]
 800652a:	6873      	ldr	r3, [r6, #4]
 800652c:	889a      	ldrh	r2, [r3, #4]
 800652e:	bb92      	cbnz	r2, 8006596 <ip_reass_free_complete_datagram+0x9a>
 8006530:	681a      	ldr	r2, [r3, #0]
 8006532:	f105 011c 	add.w	r1, r5, #28
 8006536:	606a      	str	r2, [r5, #4]
 8006538:	f105 0208 	add.w	r2, r5, #8
 800653c:	f852 0b04 	ldr.w	r0, [r2], #4
 8006540:	428a      	cmp	r2, r1
 8006542:	f843 0b04 	str.w	r0, [r3], #4
 8006546:	d1f9      	bne.n	800653c <ip_reass_free_complete_datagram+0x40>
 8006548:	2101      	movs	r1, #1
 800654a:	4630      	mov	r0, r6
 800654c:	f7ff fe1f 	bl	800618e <icmp_time_exceeded>
 8006550:	4630      	mov	r0, r6
 8006552:	f001 f919 	bl	8007788 <pbuf_clen>
 8006556:	4604      	mov	r4, r0
 8006558:	4630      	mov	r0, r6
 800655a:	f000 ff5f 	bl	800741c <pbuf_free>
 800655e:	686e      	ldr	r6, [r5, #4]
 8006560:	f8df 8064 	ldr.w	r8, [pc, #100]	; 80065c8 <ip_reass_free_complete_datagram+0xcc>
 8006564:	f8df 9078 	ldr.w	r9, [pc, #120]	; 80065e0 <ip_reass_free_complete_datagram+0xe4>
 8006568:	f8df a064 	ldr.w	sl, [pc, #100]	; 80065d0 <ip_reass_free_complete_datagram+0xd4>
 800656c:	b9ae      	cbnz	r6, 800659a <ip_reass_free_complete_datagram+0x9e>
 800656e:	4628      	mov	r0, r5
 8006570:	4d19      	ldr	r5, [pc, #100]	; (80065d8 <ip_reass_free_complete_datagram+0xdc>)
 8006572:	4639      	mov	r1, r7
 8006574:	f7ff ffa0 	bl	80064b8 <ip_reass_dequeue_datagram>
 8006578:	882b      	ldrh	r3, [r5, #0]
 800657a:	42a3      	cmp	r3, r4
 800657c:	d205      	bcs.n	800658a <ip_reass_free_complete_datagram+0x8e>
 800657e:	4b12      	ldr	r3, [pc, #72]	; (80065c8 <ip_reass_free_complete_datagram+0xcc>)
 8006580:	22d2      	movs	r2, #210	; 0xd2
 8006582:	4916      	ldr	r1, [pc, #88]	; (80065dc <ip_reass_free_complete_datagram+0xe0>)
 8006584:	4812      	ldr	r0, [pc, #72]	; (80065d0 <ip_reass_free_complete_datagram+0xd4>)
 8006586:	f005 f9cb 	bl	800b920 <iprintf>
 800658a:	882b      	ldrh	r3, [r5, #0]
 800658c:	4620      	mov	r0, r4
 800658e:	1b1b      	subs	r3, r3, r4
 8006590:	802b      	strh	r3, [r5, #0]
 8006592:	e8bd 8ff8 	ldmia.w	sp!, {r3, r4, r5, r6, r7, r8, r9, sl, fp, pc}
 8006596:	2400      	movs	r4, #0
 8006598:	e7e1      	b.n	800655e <ip_reass_free_complete_datagram+0x62>
 800659a:	6873      	ldr	r3, [r6, #4]
 800659c:	4630      	mov	r0, r6
 800659e:	f8d3 b000 	ldr.w	fp, [r3]
 80065a2:	f001 f8f1 	bl	8007788 <pbuf_clen>
 80065a6:	4404      	add	r4, r0
 80065a8:	f5b4 3f80 	cmp.w	r4, #65536	; 0x10000
 80065ac:	db05      	blt.n	80065ba <ip_reass_free_complete_datagram+0xbe>
 80065ae:	4643      	mov	r3, r8
 80065b0:	22cc      	movs	r2, #204	; 0xcc
 80065b2:	4649      	mov	r1, r9
 80065b4:	4650      	mov	r0, sl
 80065b6:	f005 f9b3 	bl	800b920 <iprintf>
 80065ba:	4630      	mov	r0, r6
 80065bc:	b2a4      	uxth	r4, r4
 80065be:	f000 ff2d 	bl	800741c <pbuf_free>
 80065c2:	465e      	mov	r6, fp
 80065c4:	e7d2      	b.n	800656c <ip_reass_free_complete_datagram+0x70>
 80065c6:	bf00      	nop
 80065c8:	0800caad 	.word	0x0800caad
 80065cc:	0800caff 	.word	0x0800caff
 80065d0:	0800c6ba 	.word	0x0800c6ba
 80065d4:	0800cb0b 	.word	0x0800cb0b
 80065d8:	20004040 	.word	0x20004040
 80065dc:	0800cb3a 	.word	0x0800cb3a
 80065e0:	0800cb1d 	.word	0x0800cb1d

080065e4 <ip_reass_remove_oldest_datagram>:
 80065e4:	e92d 41f0 	stmdb	sp!, {r4, r5, r6, r7, r8, lr}
 80065e8:	4606      	mov	r6, r0
 80065ea:	460f      	mov	r7, r1
 80065ec:	2500      	movs	r5, #0
 80065ee:	f8df 8068 	ldr.w	r8, [pc, #104]	; 8006658 <ip_reass_remove_oldest_datagram+0x74>
 80065f2:	2400      	movs	r4, #0
 80065f4:	f8d8 3000 	ldr.w	r3, [r8]
 80065f8:	4621      	mov	r1, r4
 80065fa:	46a6      	mov	lr, r4
 80065fc:	4620      	mov	r0, r4
 80065fe:	b953      	cbnz	r3, 8006616 <ip_reass_remove_oldest_datagram+0x32>
 8006600:	b110      	cbz	r0, 8006608 <ip_reass_remove_oldest_datagram+0x24>
 8006602:	f7ff ff7b 	bl	80064fc <ip_reass_free_complete_datagram>
 8006606:	4405      	add	r5, r0
 8006608:	42bd      	cmp	r5, r7
 800660a:	da01      	bge.n	8006610 <ip_reass_remove_oldest_datagram+0x2c>
 800660c:	2c01      	cmp	r4, #1
 800660e:	dcf0      	bgt.n	80065f2 <ip_reass_remove_oldest_datagram+0xe>
 8006610:	4628      	mov	r0, r5
 8006612:	e8bd 81f0 	ldmia.w	sp!, {r4, r5, r6, r7, r8, pc}
 8006616:	f8d6 c00c 	ldr.w	ip, [r6, #12]
 800661a:	695a      	ldr	r2, [r3, #20]
 800661c:	4562      	cmp	r2, ip
 800661e:	d109      	bne.n	8006634 <ip_reass_remove_oldest_datagram+0x50>
 8006620:	f8d6 c010 	ldr.w	ip, [r6, #16]
 8006624:	699a      	ldr	r2, [r3, #24]
 8006626:	4562      	cmp	r2, ip
 8006628:	d104      	bne.n	8006634 <ip_reass_remove_oldest_datagram+0x50>
 800662a:	f8b3 c00c 	ldrh.w	ip, [r3, #12]
 800662e:	88b2      	ldrh	r2, [r6, #4]
 8006630:	4594      	cmp	ip, r2
 8006632:	d008      	beq.n	8006646 <ip_reass_remove_oldest_datagram+0x62>
 8006634:	3401      	adds	r4, #1
 8006636:	b160      	cbz	r0, 8006652 <ip_reass_remove_oldest_datagram+0x6e>
 8006638:	7fc2      	ldrb	r2, [r0, #31]
 800663a:	f893 c01f 	ldrb.w	ip, [r3, #31]
 800663e:	4594      	cmp	ip, r2
 8006640:	bf9c      	itt	ls
 8006642:	4671      	movls	r1, lr
 8006644:	4618      	movls	r0, r3
 8006646:	681a      	ldr	r2, [r3, #0]
 8006648:	2a00      	cmp	r2, #0
 800664a:	bf18      	it	ne
 800664c:	469e      	movne	lr, r3
 800664e:	4613      	mov	r3, r2
 8006650:	e7d5      	b.n	80065fe <ip_reass_remove_oldest_datagram+0x1a>
 8006652:	4671      	mov	r1, lr
 8006654:	4618      	mov	r0, r3
 8006656:	e7f6      	b.n	8006646 <ip_reass_remove_oldest_datagram+0x62>
 8006658:	20004044 	.word	0x20004044

0800665c <ip_frag_free_pbuf_custom_ref>:
 800665c:	b510      	push	{r4, lr}
 800665e:	4604      	mov	r4, r0
 8006660:	b930      	cbnz	r0, 8006670 <ip_frag_free_pbuf_custom_ref+0x14>
 8006662:	4b06      	ldr	r3, [pc, #24]	; (800667c <ip_frag_free_pbuf_custom_ref+0x20>)
 8006664:	f240 22ae 	movw	r2, #686	; 0x2ae
 8006668:	4905      	ldr	r1, [pc, #20]	; (8006680 <ip_frag_free_pbuf_custom_ref+0x24>)
 800666a:	4806      	ldr	r0, [pc, #24]	; (8006684 <ip_frag_free_pbuf_custom_ref+0x28>)
 800666c:	f005 f958 	bl	800b920 <iprintf>
 8006670:	4621      	mov	r1, r4
 8006672:	2005      	movs	r0, #5
 8006674:	e8bd 4010 	ldmia.w	sp!, {r4, lr}
 8006678:	f000 bd4a 	b.w	8007110 <memp_free>
 800667c:	0800caad 	.word	0x0800caad
 8006680:	0800d1d3 	.word	0x0800d1d3
 8006684:	0800c6ba 	.word	0x0800c6ba

08006688 <ipfrag_free_pbuf_custom>:
 8006688:	b510      	push	{r4, lr}
 800668a:	4604      	mov	r4, r0
 800668c:	b930      	cbnz	r0, 800669c <ipfrag_free_pbuf_custom+0x14>
 800668e:	4b08      	ldr	r3, [pc, #32]	; (80066b0 <ipfrag_free_pbuf_custom+0x28>)
 8006690:	f44f 722e 	mov.w	r2, #696	; 0x2b8
 8006694:	4907      	ldr	r1, [pc, #28]	; (80066b4 <ipfrag_free_pbuf_custom+0x2c>)
 8006696:	4808      	ldr	r0, [pc, #32]	; (80066b8 <ipfrag_free_pbuf_custom+0x30>)
 8006698:	f005 f942 	bl	800b920 <iprintf>
 800669c:	6960      	ldr	r0, [r4, #20]
 800669e:	b108      	cbz	r0, 80066a4 <ipfrag_free_pbuf_custom+0x1c>
 80066a0:	f000 febc 	bl	800741c <pbuf_free>
 80066a4:	4620      	mov	r0, r4
 80066a6:	e8bd 4010 	ldmia.w	sp!, {r4, lr}
 80066aa:	f7ff bfd7 	b.w	800665c <ip_frag_free_pbuf_custom_ref>
 80066ae:	bf00      	nop
 80066b0:	0800caad 	.word	0x0800caad
 80066b4:	0800cb55 	.word	0x0800cb55
 80066b8:	0800c6ba 	.word	0x0800c6ba

080066bc <ip_reass_tmr>:
 80066bc:	b538      	push	{r3, r4, r5, lr}
 80066be:	4b08      	ldr	r3, [pc, #32]	; (80066e0 <ip_reass_tmr+0x24>)
 80066c0:	2400      	movs	r4, #0
 80066c2:	6818      	ldr	r0, [r3, #0]
 80066c4:	b900      	cbnz	r0, 80066c8 <ip_reass_tmr+0xc>
 80066c6:	bd38      	pop	{r3, r4, r5, pc}
 80066c8:	7fc3      	ldrb	r3, [r0, #31]
 80066ca:	6805      	ldr	r5, [r0, #0]
 80066cc:	b123      	cbz	r3, 80066d8 <ip_reass_tmr+0x1c>
 80066ce:	3b01      	subs	r3, #1
 80066d0:	4604      	mov	r4, r0
 80066d2:	77c3      	strb	r3, [r0, #31]
 80066d4:	4628      	mov	r0, r5
 80066d6:	e7f5      	b.n	80066c4 <ip_reass_tmr+0x8>
 80066d8:	4621      	mov	r1, r4
 80066da:	f7ff ff0f 	bl	80064fc <ip_reass_free_complete_datagram>
 80066de:	e7f9      	b.n	80066d4 <ip_reass_tmr+0x18>
 80066e0:	20004044 	.word	0x20004044

080066e4 <ip4_reass>:
 80066e4:	e92d 4ff7 	stmdb	sp!, {r0, r1, r2, r4, r5, r6, r7, r8, r9, sl, fp, lr}
 80066e8:	6845      	ldr	r5, [r0, #4]
 80066ea:	4607      	mov	r7, r0
 80066ec:	782b      	ldrb	r3, [r5, #0]
 80066ee:	f003 030f 	and.w	r3, r3, #15
 80066f2:	2b05      	cmp	r3, #5
 80066f4:	f040 808c 	bne.w	8006810 <ip4_reass+0x12c>
 80066f8:	88e8      	ldrh	r0, [r5, #6]
 80066fa:	f7ff f8b7 	bl	800586c <lwip_htons>
 80066fe:	f3c0 000c 	ubfx	r0, r0, #0, #13
 8006702:	4cb2      	ldr	r4, [pc, #712]	; (80069cc <ip4_reass+0x2e8>)
 8006704:	ea4f 09c0 	mov.w	r9, r0, lsl #3
 8006708:	8868      	ldrh	r0, [r5, #2]
 800670a:	f7ff f8af 	bl	800586c <lwip_htons>
 800670e:	782b      	ldrb	r3, [r5, #0]
 8006710:	f003 030f 	and.w	r3, r3, #15
 8006714:	eba0 0083 	sub.w	r0, r0, r3, lsl #2
 8006718:	b283      	uxth	r3, r0
 800671a:	4638      	mov	r0, r7
 800671c:	9301      	str	r3, [sp, #4]
 800671e:	f001 f833 	bl	8007788 <pbuf_clen>
 8006722:	8823      	ldrh	r3, [r4, #0]
 8006724:	4682      	mov	sl, r0
 8006726:	4403      	add	r3, r0
 8006728:	2b0a      	cmp	r3, #10
 800672a:	dc68      	bgt.n	80067fe <ip4_reass+0x11a>
 800672c:	4ea8      	ldr	r6, [pc, #672]	; (80069d0 <ip4_reass+0x2ec>)
 800672e:	6834      	ldr	r4, [r6, #0]
 8006730:	2c00      	cmp	r4, #0
 8006732:	d172      	bne.n	800681a <ip4_reass+0x136>
 8006734:	2004      	movs	r0, #4
 8006736:	f000 fccf 	bl	80070d8 <memp_malloc>
 800673a:	4604      	mov	r4, r0
 800673c:	b958      	cbnz	r0, 8006756 <ip4_reass+0x72>
 800673e:	4651      	mov	r1, sl
 8006740:	4628      	mov	r0, r5
 8006742:	f7ff ff4f 	bl	80065e4 <ip_reass_remove_oldest_datagram>
 8006746:	4582      	cmp	sl, r0
 8006748:	dc62      	bgt.n	8006810 <ip4_reass+0x12c>
 800674a:	2004      	movs	r0, #4
 800674c:	f000 fcc4 	bl	80070d8 <memp_malloc>
 8006750:	4604      	mov	r4, r0
 8006752:	2800      	cmp	r0, #0
 8006754:	d05c      	beq.n	8006810 <ip4_reass+0x12c>
 8006756:	2220      	movs	r2, #32
 8006758:	2100      	movs	r1, #0
 800675a:	4620      	mov	r0, r4
 800675c:	f005 f82c 	bl	800b7b8 <memset>
 8006760:	2303      	movs	r3, #3
 8006762:	f104 0208 	add.w	r2, r4, #8
 8006766:	f105 0114 	add.w	r1, r5, #20
 800676a:	77e3      	strb	r3, [r4, #31]
 800676c:	6833      	ldr	r3, [r6, #0]
 800676e:	6034      	str	r4, [r6, #0]
 8006770:	6023      	str	r3, [r4, #0]
 8006772:	462b      	mov	r3, r5
 8006774:	f853 0b04 	ldr.w	r0, [r3], #4
 8006778:	428b      	cmp	r3, r1
 800677a:	f842 0b04 	str.w	r0, [r2], #4
 800677e:	d1f9      	bne.n	8006774 <ip4_reass+0x90>
 8006780:	f8b5 b006 	ldrh.w	fp, [r5, #6]
 8006784:	f01b 0b20 	ands.w	fp, fp, #32
 8006788:	d108      	bne.n	800679c <ip4_reass+0xb8>
 800678a:	9b01      	ldr	r3, [sp, #4]
 800678c:	444b      	add	r3, r9
 800678e:	b29b      	uxth	r3, r3
 8006790:	4599      	cmp	r9, r3
 8006792:	d83d      	bhi.n	8006810 <ip4_reass+0x12c>
 8006794:	f64f 72eb 	movw	r2, #65515	; 0xffeb
 8006798:	4293      	cmp	r3, r2
 800679a:	d839      	bhi.n	8006810 <ip4_reass+0x12c>
 800679c:	687d      	ldr	r5, [r7, #4]
 800679e:	8868      	ldrh	r0, [r5, #2]
 80067a0:	f7ff f864 	bl	800586c <lwip_htons>
 80067a4:	f895 8000 	ldrb.w	r8, [r5]
 80067a8:	f008 080f 	and.w	r8, r8, #15
 80067ac:	eba0 0888 	sub.w	r8, r0, r8, lsl #2
 80067b0:	88e8      	ldrh	r0, [r5, #6]
 80067b2:	f7ff f85b 	bl	800586c <lwip_htons>
 80067b6:	f3c0 000c 	ubfx	r0, r0, #0, #13
 80067ba:	fa1f f888 	uxth.w	r8, r8
 80067be:	f8d4 e004 	ldr.w	lr, [r4, #4]
 80067c2:	00c0      	lsls	r0, r0, #3
 80067c4:	687e      	ldr	r6, [r7, #4]
 80067c6:	2500      	movs	r5, #0
 80067c8:	4672      	mov	r2, lr
 80067ca:	eb08 0300 	add.w	r3, r8, r0
 80067ce:	f04f 0801 	mov.w	r8, #1
 80067d2:	7035      	strb	r5, [r6, #0]
 80067d4:	b29b      	uxth	r3, r3
 80067d6:	7075      	strb	r5, [r6, #1]
 80067d8:	70b5      	strb	r5, [r6, #2]
 80067da:	70f5      	strb	r5, [r6, #3]
 80067dc:	80b0      	strh	r0, [r6, #4]
 80067de:	80f3      	strh	r3, [r6, #6]
 80067e0:	bb52      	cbnz	r2, 8006838 <ip4_reass+0x154>
 80067e2:	2d00      	cmp	r5, #0
 80067e4:	f040 8092 	bne.w	800690c <ip4_reass+0x228>
 80067e8:	f1be 0f00 	cmp.w	lr, #0
 80067ec:	d07d      	beq.n	80068ea <ip4_reass+0x206>
 80067ee:	4b79      	ldr	r3, [pc, #484]	; (80069d4 <ip4_reass+0x2f0>)
 80067f0:	f44f 72da 	mov.w	r2, #436	; 0x1b4
 80067f4:	4978      	ldr	r1, [pc, #480]	; (80069d8 <ip4_reass+0x2f4>)
 80067f6:	4879      	ldr	r0, [pc, #484]	; (80069dc <ip4_reass+0x2f8>)
 80067f8:	f005 f892 	bl	800b920 <iprintf>
 80067fc:	e075      	b.n	80068ea <ip4_reass+0x206>
 80067fe:	4601      	mov	r1, r0
 8006800:	4628      	mov	r0, r5
 8006802:	f7ff feef 	bl	80065e4 <ip_reass_remove_oldest_datagram>
 8006806:	b118      	cbz	r0, 8006810 <ip4_reass+0x12c>
 8006808:	8823      	ldrh	r3, [r4, #0]
 800680a:	4453      	add	r3, sl
 800680c:	2b0a      	cmp	r3, #10
 800680e:	dd8d      	ble.n	800672c <ip4_reass+0x48>
 8006810:	4638      	mov	r0, r7
 8006812:	f000 fe03 	bl	800741c <pbuf_free>
 8006816:	2500      	movs	r5, #0
 8006818:	e0d4      	b.n	80069c4 <ip4_reass+0x2e0>
 800681a:	68eb      	ldr	r3, [r5, #12]
 800681c:	6962      	ldr	r2, [r4, #20]
 800681e:	429a      	cmp	r2, r3
 8006820:	d108      	bne.n	8006834 <ip4_reass+0x150>
 8006822:	692b      	ldr	r3, [r5, #16]
 8006824:	69a2      	ldr	r2, [r4, #24]
 8006826:	429a      	cmp	r2, r3
 8006828:	d104      	bne.n	8006834 <ip4_reass+0x150>
 800682a:	89a2      	ldrh	r2, [r4, #12]
 800682c:	88ab      	ldrh	r3, [r5, #4]
 800682e:	429a      	cmp	r2, r3
 8006830:	f000 80dc 	beq.w	80069ec <ip4_reass+0x308>
 8006834:	6824      	ldr	r4, [r4, #0]
 8006836:	e77b      	b.n	8006730 <ip4_reass+0x4c>
 8006838:	f8d2 c004 	ldr.w	ip, [r2, #4]
 800683c:	f8bc 1004 	ldrh.w	r1, [ip, #4]
 8006840:	4288      	cmp	r0, r1
 8006842:	d254      	bcs.n	80068ee <ip4_reass+0x20a>
 8006844:	6032      	str	r2, [r6, #0]
 8006846:	2d00      	cmp	r5, #0
 8006848:	d04d      	beq.n	80068e6 <ip4_reass+0x202>
 800684a:	88ea      	ldrh	r2, [r5, #6]
 800684c:	4290      	cmp	r0, r2
 800684e:	f0c0 8091 	bcc.w	8006974 <ip4_reass+0x290>
 8006852:	428b      	cmp	r3, r1
 8006854:	f200 808e 	bhi.w	8006974 <ip4_reass+0x290>
 8006858:	4290      	cmp	r0, r2
 800685a:	602f      	str	r7, [r5, #0]
 800685c:	f040 80e4 	bne.w	8006a28 <ip4_reass+0x344>
 8006860:	f1bb 0f00 	cmp.w	fp, #0
 8006864:	d004      	beq.n	8006870 <ip4_reass+0x18c>
 8006866:	7fa3      	ldrb	r3, [r4, #30]
 8006868:	f013 0301 	ands.w	r3, r3, #1
 800686c:	f000 80da 	beq.w	8006a24 <ip4_reass+0x340>
 8006870:	f1b8 0f00 	cmp.w	r8, #0
 8006874:	d159      	bne.n	800692a <ip4_reass+0x246>
 8006876:	f04f 0800 	mov.w	r8, #0
 800687a:	4e54      	ldr	r6, [pc, #336]	; (80069cc <ip4_reass+0x2e8>)
 800687c:	8833      	ldrh	r3, [r6, #0]
 800687e:	449a      	add	sl, r3
 8006880:	f8a6 a000 	strh.w	sl, [r6]
 8006884:	f1bb 0f00 	cmp.w	fp, #0
 8006888:	d107      	bne.n	800689a <ip4_reass+0x1b6>
 800688a:	9b01      	ldr	r3, [sp, #4]
 800688c:	4499      	add	r9, r3
 800688e:	7fa3      	ldrb	r3, [r4, #30]
 8006890:	f043 0301 	orr.w	r3, r3, #1
 8006894:	f8a4 901c 	strh.w	r9, [r4, #28]
 8006898:	77a3      	strb	r3, [r4, #30]
 800689a:	f1b8 0f01 	cmp.w	r8, #1
 800689e:	d1ba      	bne.n	8006816 <ip4_reass+0x132>
 80068a0:	8ba3      	ldrh	r3, [r4, #28]
 80068a2:	f104 011c 	add.w	r1, r4, #28
 80068a6:	3314      	adds	r3, #20
 80068a8:	83a3      	strh	r3, [r4, #28]
 80068aa:	6863      	ldr	r3, [r4, #4]
 80068ac:	685d      	ldr	r5, [r3, #4]
 80068ae:	f104 0308 	add.w	r3, r4, #8
 80068b2:	682f      	ldr	r7, [r5, #0]
 80068b4:	462a      	mov	r2, r5
 80068b6:	f853 0b04 	ldr.w	r0, [r3], #4
 80068ba:	428b      	cmp	r3, r1
 80068bc:	f842 0b04 	str.w	r0, [r2], #4
 80068c0:	d1f9      	bne.n	80068b6 <ip4_reass+0x1d2>
 80068c2:	8ba0      	ldrh	r0, [r4, #28]
 80068c4:	f7fe ffd2 	bl	800586c <lwip_htons>
 80068c8:	2300      	movs	r3, #0
 80068ca:	8068      	strh	r0, [r5, #2]
 80068cc:	71ab      	strb	r3, [r5, #6]
 80068ce:	71eb      	strb	r3, [r5, #7]
 80068d0:	72ab      	strb	r3, [r5, #10]
 80068d2:	72eb      	strb	r3, [r5, #11]
 80068d4:	6865      	ldr	r5, [r4, #4]
 80068d6:	2f00      	cmp	r7, #0
 80068d8:	d157      	bne.n	800698a <ip4_reass+0x2a6>
 80068da:	4b3d      	ldr	r3, [pc, #244]	; (80069d0 <ip4_reass+0x2ec>)
 80068dc:	6819      	ldr	r1, [r3, #0]
 80068de:	428c      	cmp	r4, r1
 80068e0:	d165      	bne.n	80069ae <ip4_reass+0x2ca>
 80068e2:	4639      	mov	r1, r7
 80068e4:	e065      	b.n	80069b2 <ip4_reass+0x2ce>
 80068e6:	428b      	cmp	r3, r1
 80068e8:	d844      	bhi.n	8006974 <ip4_reass+0x290>
 80068ea:	6067      	str	r7, [r4, #4]
 80068ec:	e7b8      	b.n	8006860 <ip4_reass+0x17c>
 80068ee:	d041      	beq.n	8006974 <ip4_reass+0x290>
 80068f0:	f8bc 2006 	ldrh.w	r2, [ip, #6]
 80068f4:	4282      	cmp	r2, r0
 80068f6:	d83d      	bhi.n	8006974 <ip4_reass+0x290>
 80068f8:	b125      	cbz	r5, 8006904 <ip4_reass+0x220>
 80068fa:	88ea      	ldrh	r2, [r5, #6]
 80068fc:	428a      	cmp	r2, r1
 80068fe:	bf18      	it	ne
 8006900:	f04f 0800 	movne.w	r8, #0
 8006904:	f8dc 2000 	ldr.w	r2, [ip]
 8006908:	4665      	mov	r5, ip
 800690a:	e769      	b.n	80067e0 <ip4_reass+0xfc>
 800690c:	88eb      	ldrh	r3, [r5, #6]
 800690e:	4283      	cmp	r3, r0
 8006910:	d906      	bls.n	8006920 <ip4_reass+0x23c>
 8006912:	4b30      	ldr	r3, [pc, #192]	; (80069d4 <ip4_reass+0x2f0>)
 8006914:	f240 12ab 	movw	r2, #427	; 0x1ab
 8006918:	4931      	ldr	r1, [pc, #196]	; (80069e0 <ip4_reass+0x2fc>)
 800691a:	4830      	ldr	r0, [pc, #192]	; (80069dc <ip4_reass+0x2f8>)
 800691c:	f005 f800 	bl	800b920 <iprintf>
 8006920:	602f      	str	r7, [r5, #0]
 8006922:	88ea      	ldrh	r2, [r5, #6]
 8006924:	88b3      	ldrh	r3, [r6, #4]
 8006926:	429a      	cmp	r2, r3
 8006928:	e798      	b.n	800685c <ip4_reass+0x178>
 800692a:	6863      	ldr	r3, [r4, #4]
 800692c:	2b00      	cmp	r3, #0
 800692e:	d0a2      	beq.n	8006876 <ip4_reass+0x192>
 8006930:	6859      	ldr	r1, [r3, #4]
 8006932:	888b      	ldrh	r3, [r1, #4]
 8006934:	2b00      	cmp	r3, #0
 8006936:	d19e      	bne.n	8006876 <ip4_reass+0x192>
 8006938:	6833      	ldr	r3, [r6, #0]
 800693a:	b99b      	cbnz	r3, 8006964 <ip4_reass+0x280>
 800693c:	42b1      	cmp	r1, r6
 800693e:	d106      	bne.n	800694e <ip4_reass+0x26a>
 8006940:	4b24      	ldr	r3, [pc, #144]	; (80069d4 <ip4_reass+0x2f0>)
 8006942:	f44f 72eb 	mov.w	r2, #470	; 0x1d6
 8006946:	4927      	ldr	r1, [pc, #156]	; (80069e4 <ip4_reass+0x300>)
 8006948:	4824      	ldr	r0, [pc, #144]	; (80069dc <ip4_reass+0x2f8>)
 800694a:	f004 ffe9 	bl	800b920 <iprintf>
 800694e:	6833      	ldr	r3, [r6, #0]
 8006950:	2b00      	cmp	r3, #0
 8006952:	d092      	beq.n	800687a <ip4_reass+0x196>
 8006954:	4b1f      	ldr	r3, [pc, #124]	; (80069d4 <ip4_reass+0x2f0>)
 8006956:	f44f 72ec 	mov.w	r2, #472	; 0x1d8
 800695a:	4923      	ldr	r1, [pc, #140]	; (80069e8 <ip4_reass+0x304>)
 800695c:	481f      	ldr	r0, [pc, #124]	; (80069dc <ip4_reass+0x2f8>)
 800695e:	f004 ffdf 	bl	800b920 <iprintf>
 8006962:	e78a      	b.n	800687a <ip4_reass+0x196>
 8006964:	685a      	ldr	r2, [r3, #4]
 8006966:	88f0      	ldrh	r0, [r6, #6]
 8006968:	8893      	ldrh	r3, [r2, #4]
 800696a:	4298      	cmp	r0, r3
 800696c:	d183      	bne.n	8006876 <ip4_reass+0x192>
 800696e:	6813      	ldr	r3, [r2, #0]
 8006970:	4616      	mov	r6, r2
 8006972:	e7e2      	b.n	800693a <ip4_reass+0x256>
 8006974:	4638      	mov	r0, r7
 8006976:	f000 ff07 	bl	8007788 <pbuf_clen>
 800697a:	4a14      	ldr	r2, [pc, #80]	; (80069cc <ip4_reass+0x2e8>)
 800697c:	8813      	ldrh	r3, [r2, #0]
 800697e:	1a18      	subs	r0, r3, r0
 8006980:	8010      	strh	r0, [r2, #0]
 8006982:	4638      	mov	r0, r7
 8006984:	f000 fd4a 	bl	800741c <pbuf_free>
 8006988:	e742      	b.n	8006810 <ip4_reass+0x12c>
 800698a:	f8d7 8004 	ldr.w	r8, [r7, #4]
 800698e:	f06f 0113 	mvn.w	r1, #19
 8006992:	4638      	mov	r0, r7
 8006994:	f000 fd3c 	bl	8007410 <pbuf_header>
 8006998:	4639      	mov	r1, r7
 800699a:	4628      	mov	r0, r5
 800699c:	f000 ff18 	bl	80077d0 <pbuf_cat>
 80069a0:	f8d8 7000 	ldr.w	r7, [r8]
 80069a4:	e797      	b.n	80068d6 <ip4_reass+0x1f2>
 80069a6:	680b      	ldr	r3, [r1, #0]
 80069a8:	429c      	cmp	r4, r3
 80069aa:	d002      	beq.n	80069b2 <ip4_reass+0x2ce>
 80069ac:	4619      	mov	r1, r3
 80069ae:	2900      	cmp	r1, #0
 80069b0:	d1f9      	bne.n	80069a6 <ip4_reass+0x2c2>
 80069b2:	4620      	mov	r0, r4
 80069b4:	f7ff fd80 	bl	80064b8 <ip_reass_dequeue_datagram>
 80069b8:	4628      	mov	r0, r5
 80069ba:	f000 fee5 	bl	8007788 <pbuf_clen>
 80069be:	8833      	ldrh	r3, [r6, #0]
 80069c0:	1a18      	subs	r0, r3, r0
 80069c2:	8030      	strh	r0, [r6, #0]
 80069c4:	4628      	mov	r0, r5
 80069c6:	b003      	add	sp, #12
 80069c8:	e8bd 8ff0 	ldmia.w	sp!, {r4, r5, r6, r7, r8, r9, sl, fp, pc}
 80069cc:	20004040 	.word	0x20004040
 80069d0:	20004044 	.word	0x20004044
 80069d4:	0800caad 	.word	0x0800caad
 80069d8:	0800ca47 	.word	0x0800ca47
 80069dc:	0800c6ba 	.word	0x0800c6ba
 80069e0:	0800ca29 	.word	0x0800ca29
 80069e4:	0800ca7e 	.word	0x0800ca7e
 80069e8:	0800ca8b 	.word	0x0800ca8b
 80069ec:	88e8      	ldrh	r0, [r5, #6]
 80069ee:	f7fe ff3d 	bl	800586c <lwip_htons>
 80069f2:	f3c0 000c 	ubfx	r0, r0, #0, #13
 80069f6:	2800      	cmp	r0, #0
 80069f8:	f47f aec2 	bne.w	8006780 <ip4_reass+0x9c>
 80069fc:	89e0      	ldrh	r0, [r4, #14]
 80069fe:	f7fe ff35 	bl	800586c <lwip_htons>
 8006a02:	f3c0 000c 	ubfx	r0, r0, #0, #13
 8006a06:	2800      	cmp	r0, #0
 8006a08:	f43f aeba 	beq.w	8006780 <ip4_reass+0x9c>
 8006a0c:	462b      	mov	r3, r5
 8006a0e:	f104 0208 	add.w	r2, r4, #8
 8006a12:	f105 0114 	add.w	r1, r5, #20
 8006a16:	f853 0b04 	ldr.w	r0, [r3], #4
 8006a1a:	428b      	cmp	r3, r1
 8006a1c:	f842 0b04 	str.w	r0, [r2], #4
 8006a20:	d1f9      	bne.n	8006a16 <ip4_reass+0x332>
 8006a22:	e6ad      	b.n	8006780 <ip4_reass+0x9c>
 8006a24:	4698      	mov	r8, r3
 8006a26:	e728      	b.n	800687a <ip4_reass+0x196>
 8006a28:	f1bb 0f00 	cmp.w	fp, #0
 8006a2c:	f43f af23 	beq.w	8006876 <ip4_reass+0x192>
 8006a30:	f04f 0800 	mov.w	r8, #0
 8006a34:	e717      	b.n	8006866 <ip4_reass+0x182>
 8006a36:	bf00      	nop

08006a38 <ip4_frag>:
 8006a38:	e92d 4ff0 	stmdb	sp!, {r4, r5, r6, r7, r8, r9, sl, fp, lr}
 8006a3c:	f8b1 8022 	ldrh.w	r8, [r1, #34]	; 0x22
 8006a40:	2308      	movs	r3, #8
 8006a42:	b08b      	sub	sp, #44	; 0x2c
 8006a44:	4607      	mov	r7, r0
 8006a46:	f1a8 0814 	sub.w	r8, r8, #20
 8006a4a:	468b      	mov	fp, r1
 8006a4c:	9208      	str	r2, [sp, #32]
 8006a4e:	fb98 f8f3 	sdiv	r8, r8, r3
 8006a52:	fa1f f388 	uxth.w	r3, r8
 8006a56:	9306      	str	r3, [sp, #24]
 8006a58:	6843      	ldr	r3, [r0, #4]
 8006a5a:	781e      	ldrb	r6, [r3, #0]
 8006a5c:	9302      	str	r3, [sp, #8]
 8006a5e:	f006 060f 	and.w	r6, r6, #15
 8006a62:	00b6      	lsls	r6, r6, #2
 8006a64:	2e14      	cmp	r6, #20
 8006a66:	d00b      	beq.n	8006a80 <ip4_frag+0x48>
 8006a68:	4b5a      	ldr	r3, [pc, #360]	; (8006bd4 <ip4_frag+0x19c>)
 8006a6a:	f240 22e1 	movw	r2, #737	; 0x2e1
 8006a6e:	495a      	ldr	r1, [pc, #360]	; (8006bd8 <ip4_frag+0x1a0>)
 8006a70:	485a      	ldr	r0, [pc, #360]	; (8006bdc <ip4_frag+0x1a4>)
 8006a72:	f004 ff55 	bl	800b920 <iprintf>
 8006a76:	f06f 0005 	mvn.w	r0, #5
 8006a7a:	b00b      	add	sp, #44	; 0x2c
 8006a7c:	e8bd 8ff0 	ldmia.w	sp!, {r4, r5, r6, r7, r8, r9, sl, fp, pc}
 8006a80:	9b02      	ldr	r3, [sp, #8]
 8006a82:	88d8      	ldrh	r0, [r3, #6]
 8006a84:	f7fe fef2 	bl	800586c <lwip_htons>
 8006a88:	f3c0 030c 	ubfx	r3, r0, #0, #13
 8006a8c:	f410 5400 	ands.w	r4, r0, #8192	; 0x2000
 8006a90:	9304      	str	r3, [sp, #16]
 8006a92:	d004      	beq.n	8006a9e <ip4_frag+0x66>
 8006a94:	4b4f      	ldr	r3, [pc, #316]	; (8006bd4 <ip4_frag+0x19c>)
 8006a96:	f240 22e6 	movw	r2, #742	; 0x2e6
 8006a9a:	4951      	ldr	r1, [pc, #324]	; (8006be0 <ip4_frag+0x1a8>)
 8006a9c:	e7e8      	b.n	8006a70 <ip4_frag+0x38>
 8006a9e:	893d      	ldrh	r5, [r7, #8]
 8006aa0:	fa1f f888 	uxth.w	r8, r8
 8006aa4:	3d14      	subs	r5, #20
 8006aa6:	ea4f 03c8 	mov.w	r3, r8, lsl #3
 8006aaa:	b2ad      	uxth	r5, r5
 8006aac:	9307      	str	r3, [sp, #28]
 8006aae:	b90d      	cbnz	r5, 8006ab4 <ip4_frag+0x7c>
 8006ab0:	4628      	mov	r0, r5
 8006ab2:	e7e2      	b.n	8006a7a <ip4_frag+0x42>
 8006ab4:	9b07      	ldr	r3, [sp, #28]
 8006ab6:	2200      	movs	r2, #0
 8006ab8:	2114      	movs	r1, #20
 8006aba:	2002      	movs	r0, #2
 8006abc:	42ab      	cmp	r3, r5
 8006abe:	bfa8      	it	ge
 8006ac0:	462b      	movge	r3, r5
 8006ac2:	b29b      	uxth	r3, r3
 8006ac4:	9305      	str	r3, [sp, #20]
 8006ac6:	f000 fd13 	bl	80074f0 <pbuf_alloc>
 8006aca:	4680      	mov	r8, r0
 8006acc:	b370      	cbz	r0, 8006b2c <ip4_frag+0xf4>
 8006ace:	897b      	ldrh	r3, [r7, #10]
 8006ad0:	2b13      	cmp	r3, #19
 8006ad2:	d806      	bhi.n	8006ae2 <ip4_frag+0xaa>
 8006ad4:	4b3f      	ldr	r3, [pc, #252]	; (8006bd4 <ip4_frag+0x19c>)
 8006ad6:	f240 3209 	movw	r2, #777	; 0x309
 8006ada:	4942      	ldr	r1, [pc, #264]	; (8006be4 <ip4_frag+0x1ac>)
 8006adc:	483f      	ldr	r0, [pc, #252]	; (8006bdc <ip4_frag+0x1a4>)
 8006ade:	f004 ff1f 	bl	800b920 <iprintf>
 8006ae2:	9b02      	ldr	r3, [sp, #8]
 8006ae4:	f8d8 2004 	ldr.w	r2, [r8, #4]
 8006ae8:	4619      	mov	r1, r3
 8006aea:	3114      	adds	r1, #20
 8006aec:	f853 0b04 	ldr.w	r0, [r3], #4
 8006af0:	428b      	cmp	r3, r1
 8006af2:	f842 0b04 	str.w	r0, [r2], #4
 8006af6:	d1f9      	bne.n	8006aec <ip4_frag+0xb4>
 8006af8:	f8d8 3004 	ldr.w	r3, [r8, #4]
 8006afc:	f8dd 9014 	ldr.w	r9, [sp, #20]
 8006b00:	9303      	str	r3, [sp, #12]
 8006b02:	f1b9 0f00 	cmp.w	r9, #0
 8006b06:	d037      	beq.n	8006b78 <ip4_frag+0x140>
 8006b08:	897c      	ldrh	r4, [r7, #10]
 8006b0a:	1ba4      	subs	r4, r4, r6
 8006b0c:	b2a4      	uxth	r4, r4
 8006b0e:	454c      	cmp	r4, r9
 8006b10:	bf28      	it	cs
 8006b12:	464c      	movcs	r4, r9
 8006b14:	b914      	cbnz	r4, 8006b1c <ip4_frag+0xe4>
 8006b16:	683f      	ldr	r7, [r7, #0]
 8006b18:	2600      	movs	r6, #0
 8006b1a:	e7f2      	b.n	8006b02 <ip4_frag+0xca>
 8006b1c:	2005      	movs	r0, #5
 8006b1e:	f000 fadb 	bl	80070d8 <memp_malloc>
 8006b22:	4682      	mov	sl, r0
 8006b24:	b928      	cbnz	r0, 8006b32 <ip4_frag+0xfa>
 8006b26:	4640      	mov	r0, r8
 8006b28:	f000 fc78 	bl	800741c <pbuf_free>
 8006b2c:	f04f 30ff 	mov.w	r0, #4294967295
 8006b30:	e7a3      	b.n	8006a7a <ip4_frag+0x42>
 8006b32:	9401      	str	r4, [sp, #4]
 8006b34:	2202      	movs	r2, #2
 8006b36:	687b      	ldr	r3, [r7, #4]
 8006b38:	4621      	mov	r1, r4
 8006b3a:	4433      	add	r3, r6
 8006b3c:	9300      	str	r3, [sp, #0]
 8006b3e:	4603      	mov	r3, r0
 8006b40:	2004      	movs	r0, #4
 8006b42:	f000 fc2d 	bl	80073a0 <pbuf_alloced_custom>
 8006b46:	b918      	cbnz	r0, 8006b50 <ip4_frag+0x118>
 8006b48:	4650      	mov	r0, sl
 8006b4a:	f7ff fd87 	bl	800665c <ip_frag_free_pbuf_custom_ref>
 8006b4e:	e7ea      	b.n	8006b26 <ip4_frag+0xee>
 8006b50:	9009      	str	r0, [sp, #36]	; 0x24
 8006b52:	eba9 0904 	sub.w	r9, r9, r4
 8006b56:	4638      	mov	r0, r7
 8006b58:	f000 fe1e 	bl	8007798 <pbuf_ref>
 8006b5c:	4b22      	ldr	r3, [pc, #136]	; (8006be8 <ip4_frag+0x1b0>)
 8006b5e:	fa1f f989 	uxth.w	r9, r9
 8006b62:	f8ca 7014 	str.w	r7, [sl, #20]
 8006b66:	f8ca 3010 	str.w	r3, [sl, #16]
 8006b6a:	4640      	mov	r0, r8
 8006b6c:	9909      	ldr	r1, [sp, #36]	; 0x24
 8006b6e:	f000 fe2f 	bl	80077d0 <pbuf_cat>
 8006b72:	f1b9 0f00 	cmp.w	r9, #0
 8006b76:	d1ce      	bne.n	8006b16 <ip4_frag+0xde>
 8006b78:	9b04      	ldr	r3, [sp, #16]
 8006b7a:	4426      	add	r6, r4
 8006b7c:	f3c3 000c 	ubfx	r0, r3, #0, #13
 8006b80:	f8bb 3022 	ldrh.w	r3, [fp, #34]	; 0x22
 8006b84:	b2b6      	uxth	r6, r6
 8006b86:	3b13      	subs	r3, #19
 8006b88:	429d      	cmp	r5, r3
 8006b8a:	bfa8      	it	ge
 8006b8c:	f440 5000 	orrge.w	r0, r0, #8192	; 0x2000
 8006b90:	f7fe fe6c 	bl	800586c <lwip_htons>
 8006b94:	9b03      	ldr	r3, [sp, #12]
 8006b96:	80d8      	strh	r0, [r3, #6]
 8006b98:	9b05      	ldr	r3, [sp, #20]
 8006b9a:	f103 0014 	add.w	r0, r3, #20
 8006b9e:	b280      	uxth	r0, r0
 8006ba0:	f7fe fe64 	bl	800586c <lwip_htons>
 8006ba4:	9b03      	ldr	r3, [sp, #12]
 8006ba6:	9a03      	ldr	r2, [sp, #12]
 8006ba8:	4641      	mov	r1, r8
 8006baa:	8058      	strh	r0, [r3, #2]
 8006bac:	2300      	movs	r3, #0
 8006bae:	4658      	mov	r0, fp
 8006bb0:	7293      	strb	r3, [r2, #10]
 8006bb2:	72d3      	strb	r3, [r2, #11]
 8006bb4:	f8db 3014 	ldr.w	r3, [fp, #20]
 8006bb8:	9a08      	ldr	r2, [sp, #32]
 8006bba:	4798      	blx	r3
 8006bbc:	4640      	mov	r0, r8
 8006bbe:	f000 fc2d 	bl	800741c <pbuf_free>
 8006bc2:	9b05      	ldr	r3, [sp, #20]
 8006bc4:	9a06      	ldr	r2, [sp, #24]
 8006bc6:	1aed      	subs	r5, r5, r3
 8006bc8:	9b04      	ldr	r3, [sp, #16]
 8006bca:	4413      	add	r3, r2
 8006bcc:	b2ad      	uxth	r5, r5
 8006bce:	b29b      	uxth	r3, r3
 8006bd0:	9304      	str	r3, [sp, #16]
 8006bd2:	e76c      	b.n	8006aae <ip4_frag+0x76>
 8006bd4:	0800caad 	.word	0x0800caad
 8006bd8:	0800c9c8 	.word	0x0800c9c8
 8006bdc:	0800c6ba 	.word	0x0800c6ba
 8006be0:	0800c9ef 	.word	0x0800c9ef
 8006be4:	0800ca09 	.word	0x0800ca09
 8006be8:	08006689 	.word	0x08006689

08006bec <mem_init>:
 8006bec:	4b12      	ldr	r3, [pc, #72]	; (8006c38 <mem_init+0x4c>)
 8006bee:	2100      	movs	r1, #0
 8006bf0:	4a12      	ldr	r2, [pc, #72]	; (8006c3c <mem_init+0x50>)
 8006bf2:	f023 0303 	bic.w	r3, r3, #3
 8006bf6:	b510      	push	{r4, lr}
 8006bf8:	6013      	str	r3, [r2, #0]
 8006bfa:	f44f 62c8 	mov.w	r2, #1600	; 0x640
 8006bfe:	8059      	strh	r1, [r3, #2]
 8006c00:	1898      	adds	r0, r3, r2
 8006c02:	7119      	strb	r1, [r3, #4]
 8006c04:	490e      	ldr	r1, [pc, #56]	; (8006c40 <mem_init+0x54>)
 8006c06:	801a      	strh	r2, [r3, #0]
 8006c08:	6008      	str	r0, [r1, #0]
 8006c0a:	2101      	movs	r1, #1
 8006c0c:	f8a3 2640 	strh.w	r2, [r3, #1600]	; 0x640
 8006c10:	f8a3 2642 	strh.w	r2, [r3, #1602]	; 0x642
 8006c14:	4a0b      	ldr	r2, [pc, #44]	; (8006c44 <mem_init+0x58>)
 8006c16:	f883 1644 	strb.w	r1, [r3, #1604]	; 0x644
 8006c1a:	480b      	ldr	r0, [pc, #44]	; (8006c48 <mem_init+0x5c>)
 8006c1c:	6013      	str	r3, [r2, #0]
 8006c1e:	f003 fe45 	bl	800a8ac <sys_mutex_new>
 8006c22:	b140      	cbz	r0, 8006c36 <mem_init+0x4a>
 8006c24:	4b09      	ldr	r3, [pc, #36]	; (8006c4c <mem_init+0x60>)
 8006c26:	f44f 72cc 	mov.w	r2, #408	; 0x198
 8006c2a:	4909      	ldr	r1, [pc, #36]	; (8006c50 <mem_init+0x64>)
 8006c2c:	4809      	ldr	r0, [pc, #36]	; (8006c54 <mem_init+0x68>)
 8006c2e:	e8bd 4010 	ldmia.w	sp!, {r4, lr}
 8006c32:	f004 be75 	b.w	800b920 <iprintf>
 8006c36:	bd10      	pop	{r4, pc}
 8006c38:	2000410b 	.word	0x2000410b
 8006c3c:	20004050 	.word	0x20004050
 8006c40:	20004054 	.word	0x20004054
 8006c44:	20004048 	.word	0x20004048
 8006c48:	2000404c 	.word	0x2000404c
 8006c4c:	0800cc23 	.word	0x0800cc23
 8006c50:	0800cc52 	.word	0x0800cc52
 8006c54:	0800c6ba 	.word	0x0800c6ba

08006c58 <mem_free>:
 8006c58:	e92d 41f0 	stmdb	sp!, {r4, r5, r6, r7, r8, lr}
 8006c5c:	4604      	mov	r4, r0
 8006c5e:	2800      	cmp	r0, #0
 8006c60:	f000 8097 	beq.w	8006d92 <mem_free+0x13a>
 8006c64:	0783      	lsls	r3, r0, #30
 8006c66:	d006      	beq.n	8006c76 <mem_free+0x1e>
 8006c68:	4b4b      	ldr	r3, [pc, #300]	; (8006d98 <mem_free+0x140>)
 8006c6a:	f44f 72d6 	mov.w	r2, #428	; 0x1ac
 8006c6e:	494b      	ldr	r1, [pc, #300]	; (8006d9c <mem_free+0x144>)
 8006c70:	484b      	ldr	r0, [pc, #300]	; (8006da0 <mem_free+0x148>)
 8006c72:	f004 fe55 	bl	800b920 <iprintf>
 8006c76:	4f4b      	ldr	r7, [pc, #300]	; (8006da4 <mem_free+0x14c>)
 8006c78:	683b      	ldr	r3, [r7, #0]
 8006c7a:	429c      	cmp	r4, r3
 8006c7c:	d303      	bcc.n	8006c86 <mem_free+0x2e>
 8006c7e:	4b4a      	ldr	r3, [pc, #296]	; (8006da8 <mem_free+0x150>)
 8006c80:	681b      	ldr	r3, [r3, #0]
 8006c82:	429c      	cmp	r4, r3
 8006c84:	d306      	bcc.n	8006c94 <mem_free+0x3c>
 8006c86:	4b44      	ldr	r3, [pc, #272]	; (8006d98 <mem_free+0x140>)
 8006c88:	f240 12af 	movw	r2, #431	; 0x1af
 8006c8c:	4947      	ldr	r1, [pc, #284]	; (8006dac <mem_free+0x154>)
 8006c8e:	4844      	ldr	r0, [pc, #272]	; (8006da0 <mem_free+0x148>)
 8006c90:	f004 fe46 	bl	800b920 <iprintf>
 8006c94:	683b      	ldr	r3, [r7, #0]
 8006c96:	429c      	cmp	r4, r3
 8006c98:	d304      	bcc.n	8006ca4 <mem_free+0x4c>
 8006c9a:	4b43      	ldr	r3, [pc, #268]	; (8006da8 <mem_free+0x150>)
 8006c9c:	681a      	ldr	r2, [r3, #0]
 8006c9e:	4698      	mov	r8, r3
 8006ca0:	4294      	cmp	r4, r2
 8006ca2:	d305      	bcc.n	8006cb0 <mem_free+0x58>
 8006ca4:	f003 fe2a 	bl	800a8fc <sys_arch_protect>
 8006ca8:	e8bd 41f0 	ldmia.w	sp!, {r4, r5, r6, r7, r8, lr}
 8006cac:	f003 be32 	b.w	800a914 <sys_arch_unprotect>
 8006cb0:	483f      	ldr	r0, [pc, #252]	; (8006db0 <mem_free+0x158>)
 8006cb2:	f1a4 0508 	sub.w	r5, r4, #8
 8006cb6:	f003 fe08 	bl	800a8ca <sys_mutex_lock>
 8006cba:	f814 3c04 	ldrb.w	r3, [r4, #-4]
 8006cbe:	b933      	cbnz	r3, 8006cce <mem_free+0x76>
 8006cc0:	4b35      	ldr	r3, [pc, #212]	; (8006d98 <mem_free+0x140>)
 8006cc2:	f44f 72e0 	mov.w	r2, #448	; 0x1c0
 8006cc6:	493b      	ldr	r1, [pc, #236]	; (8006db4 <mem_free+0x15c>)
 8006cc8:	4835      	ldr	r0, [pc, #212]	; (8006da0 <mem_free+0x148>)
 8006cca:	f004 fe29 	bl	800b920 <iprintf>
 8006cce:	2300      	movs	r3, #0
 8006cd0:	4e39      	ldr	r6, [pc, #228]	; (8006db8 <mem_free+0x160>)
 8006cd2:	f804 3c04 	strb.w	r3, [r4, #-4]
 8006cd6:	6833      	ldr	r3, [r6, #0]
 8006cd8:	429d      	cmp	r5, r3
 8006cda:	683b      	ldr	r3, [r7, #0]
 8006cdc:	bf38      	it	cc
 8006cde:	6035      	strcc	r5, [r6, #0]
 8006ce0:	429d      	cmp	r5, r3
 8006ce2:	d206      	bcs.n	8006cf2 <mem_free+0x9a>
 8006ce4:	4b2c      	ldr	r3, [pc, #176]	; (8006d98 <mem_free+0x140>)
 8006ce6:	f240 125d 	movw	r2, #349	; 0x15d
 8006cea:	4934      	ldr	r1, [pc, #208]	; (8006dbc <mem_free+0x164>)
 8006cec:	482c      	ldr	r0, [pc, #176]	; (8006da0 <mem_free+0x148>)
 8006cee:	f004 fe17 	bl	800b920 <iprintf>
 8006cf2:	f8d8 3000 	ldr.w	r3, [r8]
 8006cf6:	429d      	cmp	r5, r3
 8006cf8:	d306      	bcc.n	8006d08 <mem_free+0xb0>
 8006cfa:	4b27      	ldr	r3, [pc, #156]	; (8006d98 <mem_free+0x140>)
 8006cfc:	f44f 72af 	mov.w	r2, #350	; 0x15e
 8006d00:	492f      	ldr	r1, [pc, #188]	; (8006dc0 <mem_free+0x168>)
 8006d02:	4827      	ldr	r0, [pc, #156]	; (8006da0 <mem_free+0x148>)
 8006d04:	f004 fe0c 	bl	800b920 <iprintf>
 8006d08:	f814 3c04 	ldrb.w	r3, [r4, #-4]
 8006d0c:	b133      	cbz	r3, 8006d1c <mem_free+0xc4>
 8006d0e:	4b22      	ldr	r3, [pc, #136]	; (8006d98 <mem_free+0x140>)
 8006d10:	f240 125f 	movw	r2, #351	; 0x15f
 8006d14:	492b      	ldr	r1, [pc, #172]	; (8006dc4 <mem_free+0x16c>)
 8006d16:	4822      	ldr	r0, [pc, #136]	; (8006da0 <mem_free+0x148>)
 8006d18:	f004 fe02 	bl	800b920 <iprintf>
 8006d1c:	f834 3c08 	ldrh.w	r3, [r4, #-8]
 8006d20:	f5b3 6fc8 	cmp.w	r3, #1600	; 0x640
 8006d24:	d906      	bls.n	8006d34 <mem_free+0xdc>
 8006d26:	4b1c      	ldr	r3, [pc, #112]	; (8006d98 <mem_free+0x140>)
 8006d28:	f44f 72b1 	mov.w	r2, #354	; 0x162
 8006d2c:	4926      	ldr	r1, [pc, #152]	; (8006dc8 <mem_free+0x170>)
 8006d2e:	481c      	ldr	r0, [pc, #112]	; (8006da0 <mem_free+0x148>)
 8006d30:	f004 fdf6 	bl	800b920 <iprintf>
 8006d34:	683b      	ldr	r3, [r7, #0]
 8006d36:	f834 1c08 	ldrh.w	r1, [r4, #-8]
 8006d3a:	185a      	adds	r2, r3, r1
 8006d3c:	4295      	cmp	r5, r2
 8006d3e:	d011      	beq.n	8006d64 <mem_free+0x10c>
 8006d40:	7910      	ldrb	r0, [r2, #4]
 8006d42:	b978      	cbnz	r0, 8006d64 <mem_free+0x10c>
 8006d44:	f8d8 0000 	ldr.w	r0, [r8]
 8006d48:	4282      	cmp	r2, r0
 8006d4a:	d00b      	beq.n	8006d64 <mem_free+0x10c>
 8006d4c:	6830      	ldr	r0, [r6, #0]
 8006d4e:	4282      	cmp	r2, r0
 8006d50:	5a5a      	ldrh	r2, [r3, r1]
 8006d52:	f824 2c08 	strh.w	r2, [r4, #-8]
 8006d56:	5a5a      	ldrh	r2, [r3, r1]
 8006d58:	eba5 0103 	sub.w	r1, r5, r3
 8006d5c:	bf08      	it	eq
 8006d5e:	6035      	streq	r5, [r6, #0]
 8006d60:	441a      	add	r2, r3
 8006d62:	8051      	strh	r1, [r2, #2]
 8006d64:	f834 2c06 	ldrh.w	r2, [r4, #-6]
 8006d68:	1899      	adds	r1, r3, r2
 8006d6a:	428d      	cmp	r5, r1
 8006d6c:	d00c      	beq.n	8006d88 <mem_free+0x130>
 8006d6e:	7908      	ldrb	r0, [r1, #4]
 8006d70:	b950      	cbnz	r0, 8006d88 <mem_free+0x130>
 8006d72:	6830      	ldr	r0, [r6, #0]
 8006d74:	4285      	cmp	r5, r0
 8006d76:	bf08      	it	eq
 8006d78:	6031      	streq	r1, [r6, #0]
 8006d7a:	f834 1c08 	ldrh.w	r1, [r4, #-8]
 8006d7e:	5299      	strh	r1, [r3, r2]
 8006d80:	f834 1c08 	ldrh.w	r1, [r4, #-8]
 8006d84:	440b      	add	r3, r1
 8006d86:	805a      	strh	r2, [r3, #2]
 8006d88:	4809      	ldr	r0, [pc, #36]	; (8006db0 <mem_free+0x158>)
 8006d8a:	e8bd 41f0 	ldmia.w	sp!, {r4, r5, r6, r7, r8, lr}
 8006d8e:	f003 bda1 	b.w	800a8d4 <sys_mutex_unlock>
 8006d92:	e8bd 81f0 	ldmia.w	sp!, {r4, r5, r6, r7, r8, pc}
 8006d96:	bf00      	nop
 8006d98:	0800cc23 	.word	0x0800cc23
 8006d9c:	0800cb61 	.word	0x0800cb61
 8006da0:	0800c6ba 	.word	0x0800c6ba
 8006da4:	20004050 	.word	0x20004050
 8006da8:	20004054 	.word	0x20004054
 8006dac:	0800cb82 	.word	0x0800cb82
 8006db0:	2000404c 	.word	0x2000404c
 8006db4:	0800cb99 	.word	0x0800cb99
 8006db8:	20004048 	.word	0x20004048
 8006dbc:	0800cbad 	.word	0x0800cbad
 8006dc0:	0800cbc4 	.word	0x0800cbc4
 8006dc4:	0800cbde 	.word	0x0800cbde
 8006dc8:	0800cbf9 	.word	0x0800cbf9

08006dcc <mem_trim>:
 8006dcc:	e92d 41f0 	stmdb	sp!, {r4, r5, r6, r7, r8, lr}
 8006dd0:	3103      	adds	r1, #3
 8006dd2:	f64f 75fc 	movw	r5, #65532	; 0xfffc
 8006dd6:	4604      	mov	r4, r0
 8006dd8:	400d      	ands	r5, r1
 8006dda:	2d0b      	cmp	r5, #11
 8006ddc:	d904      	bls.n	8006de8 <mem_trim+0x1c>
 8006dde:	f5b5 6fc8 	cmp.w	r5, #1600	; 0x640
 8006de2:	d902      	bls.n	8006dea <mem_trim+0x1e>
 8006de4:	2400      	movs	r4, #0
 8006de6:	e01c      	b.n	8006e22 <mem_trim+0x56>
 8006de8:	250c      	movs	r5, #12
 8006dea:	4b36      	ldr	r3, [pc, #216]	; (8006ec4 <mem_trim+0xf8>)
 8006dec:	681a      	ldr	r2, [r3, #0]
 8006dee:	4698      	mov	r8, r3
 8006df0:	42a2      	cmp	r2, r4
 8006df2:	d803      	bhi.n	8006dfc <mem_trim+0x30>
 8006df4:	4b34      	ldr	r3, [pc, #208]	; (8006ec8 <mem_trim+0xfc>)
 8006df6:	681b      	ldr	r3, [r3, #0]
 8006df8:	429c      	cmp	r4, r3
 8006dfa:	d306      	bcc.n	8006e0a <mem_trim+0x3e>
 8006dfc:	4b33      	ldr	r3, [pc, #204]	; (8006ecc <mem_trim+0x100>)
 8006dfe:	f44f 72fa 	mov.w	r2, #500	; 0x1f4
 8006e02:	4933      	ldr	r1, [pc, #204]	; (8006ed0 <mem_trim+0x104>)
 8006e04:	4833      	ldr	r0, [pc, #204]	; (8006ed4 <mem_trim+0x108>)
 8006e06:	f004 fd8b 	bl	800b920 <iprintf>
 8006e0a:	f8d8 3000 	ldr.w	r3, [r8]
 8006e0e:	429c      	cmp	r4, r3
 8006e10:	d303      	bcc.n	8006e1a <mem_trim+0x4e>
 8006e12:	4a2d      	ldr	r2, [pc, #180]	; (8006ec8 <mem_trim+0xfc>)
 8006e14:	6812      	ldr	r2, [r2, #0]
 8006e16:	4294      	cmp	r4, r2
 8006e18:	d306      	bcc.n	8006e28 <mem_trim+0x5c>
 8006e1a:	f003 fd6f 	bl	800a8fc <sys_arch_protect>
 8006e1e:	f003 fd79 	bl	800a914 <sys_arch_unprotect>
 8006e22:	4620      	mov	r0, r4
 8006e24:	e8bd 81f0 	ldmia.w	sp!, {r4, r5, r6, r7, r8, pc}
 8006e28:	f1a4 0608 	sub.w	r6, r4, #8
 8006e2c:	f834 7c08 	ldrh.w	r7, [r4, #-8]
 8006e30:	1af6      	subs	r6, r6, r3
 8006e32:	3f08      	subs	r7, #8
 8006e34:	b2b6      	uxth	r6, r6
 8006e36:	1bbf      	subs	r7, r7, r6
 8006e38:	b2bf      	uxth	r7, r7
 8006e3a:	42af      	cmp	r7, r5
 8006e3c:	d219      	bcs.n	8006e72 <mem_trim+0xa6>
 8006e3e:	4b23      	ldr	r3, [pc, #140]	; (8006ecc <mem_trim+0x100>)
 8006e40:	f240 2206 	movw	r2, #518	; 0x206
 8006e44:	4924      	ldr	r1, [pc, #144]	; (8006ed8 <mem_trim+0x10c>)
 8006e46:	4823      	ldr	r0, [pc, #140]	; (8006ed4 <mem_trim+0x108>)
 8006e48:	f004 fd6a 	bl	800b920 <iprintf>
 8006e4c:	e7ca      	b.n	8006de4 <mem_trim+0x18>
 8006e4e:	f105 0214 	add.w	r2, r5, #20
 8006e52:	42ba      	cmp	r2, r7
 8006e54:	d831      	bhi.n	8006eba <mem_trim+0xee>
 8006e56:	f106 0208 	add.w	r2, r6, #8
 8006e5a:	4820      	ldr	r0, [pc, #128]	; (8006edc <mem_trim+0x110>)
 8006e5c:	4415      	add	r5, r2
 8006e5e:	6807      	ldr	r7, [r0, #0]
 8006e60:	b2ad      	uxth	r5, r5
 8006e62:	195a      	adds	r2, r3, r5
 8006e64:	42ba      	cmp	r2, r7
 8006e66:	bf38      	it	cc
 8006e68:	6002      	strcc	r2, [r0, #0]
 8006e6a:	2000      	movs	r0, #0
 8006e6c:	7110      	strb	r0, [r2, #4]
 8006e6e:	5359      	strh	r1, [r3, r5]
 8006e70:	e01a      	b.n	8006ea8 <mem_trim+0xdc>
 8006e72:	d0d6      	beq.n	8006e22 <mem_trim+0x56>
 8006e74:	481a      	ldr	r0, [pc, #104]	; (8006ee0 <mem_trim+0x114>)
 8006e76:	f003 fd28 	bl	800a8ca <sys_mutex_lock>
 8006e7a:	f8d8 3000 	ldr.w	r3, [r8]
 8006e7e:	f834 1c08 	ldrh.w	r1, [r4, #-8]
 8006e82:	1858      	adds	r0, r3, r1
 8006e84:	7902      	ldrb	r2, [r0, #4]
 8006e86:	2a00      	cmp	r2, #0
 8006e88:	d1e1      	bne.n	8006e4e <mem_trim+0x82>
 8006e8a:	f106 0208 	add.w	r2, r6, #8
 8006e8e:	5a5f      	ldrh	r7, [r3, r1]
 8006e90:	4912      	ldr	r1, [pc, #72]	; (8006edc <mem_trim+0x110>)
 8006e92:	4415      	add	r5, r2
 8006e94:	680a      	ldr	r2, [r1, #0]
 8006e96:	b2ad      	uxth	r5, r5
 8006e98:	4290      	cmp	r0, r2
 8006e9a:	eb03 0205 	add.w	r2, r3, r5
 8006e9e:	bf08      	it	eq
 8006ea0:	600a      	streq	r2, [r1, #0]
 8006ea2:	2100      	movs	r1, #0
 8006ea4:	7111      	strb	r1, [r2, #4]
 8006ea6:	535f      	strh	r7, [r3, r5]
 8006ea8:	8056      	strh	r6, [r2, #2]
 8006eaa:	f824 5c08 	strh.w	r5, [r4, #-8]
 8006eae:	5b5a      	ldrh	r2, [r3, r5]
 8006eb0:	f5b2 6fc8 	cmp.w	r2, #1600	; 0x640
 8006eb4:	bf1c      	itt	ne
 8006eb6:	189b      	addne	r3, r3, r2
 8006eb8:	805d      	strhne	r5, [r3, #2]
 8006eba:	4809      	ldr	r0, [pc, #36]	; (8006ee0 <mem_trim+0x114>)
 8006ebc:	f003 fd0a 	bl	800a8d4 <sys_mutex_unlock>
 8006ec0:	e7af      	b.n	8006e22 <mem_trim+0x56>
 8006ec2:	bf00      	nop
 8006ec4:	20004050 	.word	0x20004050
 8006ec8:	20004054 	.word	0x20004054
 8006ecc:	0800cc23 	.word	0x0800cc23
 8006ed0:	0800cd08 	.word	0x0800cd08
 8006ed4:	0800c6ba 	.word	0x0800c6ba
 8006ed8:	0800cd1f 	.word	0x0800cd1f
 8006edc:	20004048 	.word	0x20004048
 8006ee0:	2000404c 	.word	0x2000404c

08006ee4 <mem_malloc>:
 8006ee4:	e92d 43f8 	stmdb	sp!, {r3, r4, r5, r6, r7, r8, r9, lr}
 8006ee8:	b148      	cbz	r0, 8006efe <mem_malloc+0x1a>
 8006eea:	3003      	adds	r0, #3
 8006eec:	f64f 75fc 	movw	r5, #65532	; 0xfffc
 8006ef0:	4005      	ands	r5, r0
 8006ef2:	2d0b      	cmp	r5, #11
 8006ef4:	d905      	bls.n	8006f02 <mem_malloc+0x1e>
 8006ef6:	f5b5 6fc8 	cmp.w	r5, #1600	; 0x640
 8006efa:	d903      	bls.n	8006f04 <mem_malloc+0x20>
 8006efc:	2000      	movs	r0, #0
 8006efe:	e8bd 83f8 	ldmia.w	sp!, {r3, r4, r5, r6, r7, r8, r9, pc}
 8006f02:	250c      	movs	r5, #12
 8006f04:	483c      	ldr	r0, [pc, #240]	; (8006ff8 <mem_malloc+0x114>)
 8006f06:	f5c5 68c8 	rsb	r8, r5, #1600	; 0x640
 8006f0a:	f003 fcde 	bl	800a8ca <sys_mutex_lock>
 8006f0e:	4e3b      	ldr	r6, [pc, #236]	; (8006ffc <mem_malloc+0x118>)
 8006f10:	483b      	ldr	r0, [pc, #236]	; (8007000 <mem_malloc+0x11c>)
 8006f12:	f06f 0907 	mvn.w	r9, #7
 8006f16:	6831      	ldr	r1, [r6, #0]
 8006f18:	6807      	ldr	r7, [r0, #0]
 8006f1a:	1a7b      	subs	r3, r7, r1
 8006f1c:	b29b      	uxth	r3, r3
 8006f1e:	4543      	cmp	r3, r8
 8006f20:	d303      	bcc.n	8006f2a <mem_malloc+0x46>
 8006f22:	4835      	ldr	r0, [pc, #212]	; (8006ff8 <mem_malloc+0x114>)
 8006f24:	f003 fcd6 	bl	800a8d4 <sys_mutex_unlock>
 8006f28:	e7e8      	b.n	8006efc <mem_malloc+0x18>
 8006f2a:	18cc      	adds	r4, r1, r3
 8006f2c:	f831 e003 	ldrh.w	lr, [r1, r3]
 8006f30:	f894 c004 	ldrb.w	ip, [r4, #4]
 8006f34:	f1bc 0f00 	cmp.w	ip, #0
 8006f38:	d15b      	bne.n	8006ff2 <mem_malloc+0x10e>
 8006f3a:	eba9 0203 	sub.w	r2, r9, r3
 8006f3e:	4472      	add	r2, lr
 8006f40:	4295      	cmp	r5, r2
 8006f42:	d856      	bhi.n	8006ff2 <mem_malloc+0x10e>
 8006f44:	f105 0814 	add.w	r8, r5, #20
 8006f48:	4542      	cmp	r2, r8
 8006f4a:	d34c      	bcc.n	8006fe6 <mem_malloc+0x102>
 8006f4c:	f105 0208 	add.w	r2, r5, #8
 8006f50:	441a      	add	r2, r3
 8006f52:	b292      	uxth	r2, r2
 8006f54:	eb01 0802 	add.w	r8, r1, r2
 8006f58:	f888 c004 	strb.w	ip, [r8, #4]
 8006f5c:	f821 e002 	strh.w	lr, [r1, r2]
 8006f60:	f8a8 3002 	strh.w	r3, [r8, #2]
 8006f64:	2301      	movs	r3, #1
 8006f66:	8022      	strh	r2, [r4, #0]
 8006f68:	7123      	strb	r3, [r4, #4]
 8006f6a:	5a8b      	ldrh	r3, [r1, r2]
 8006f6c:	f5b3 6fc8 	cmp.w	r3, #1600	; 0x640
 8006f70:	d001      	beq.n	8006f76 <mem_malloc+0x92>
 8006f72:	4419      	add	r1, r3
 8006f74:	804a      	strh	r2, [r1, #2]
 8006f76:	42a7      	cmp	r7, r4
 8006f78:	4f22      	ldr	r7, [pc, #136]	; (8007004 <mem_malloc+0x120>)
 8006f7a:	d111      	bne.n	8006fa0 <mem_malloc+0xbc>
 8006f7c:	6839      	ldr	r1, [r7, #0]
 8006f7e:	4623      	mov	r3, r4
 8006f80:	6836      	ldr	r6, [r6, #0]
 8006f82:	791a      	ldrb	r2, [r3, #4]
 8006f84:	b10a      	cbz	r2, 8006f8a <mem_malloc+0xa6>
 8006f86:	428b      	cmp	r3, r1
 8006f88:	d130      	bne.n	8006fec <mem_malloc+0x108>
 8006f8a:	428b      	cmp	r3, r1
 8006f8c:	6003      	str	r3, [r0, #0]
 8006f8e:	d007      	beq.n	8006fa0 <mem_malloc+0xbc>
 8006f90:	b132      	cbz	r2, 8006fa0 <mem_malloc+0xbc>
 8006f92:	4b1d      	ldr	r3, [pc, #116]	; (8007008 <mem_malloc+0x124>)
 8006f94:	f240 22cf 	movw	r2, #719	; 0x2cf
 8006f98:	491c      	ldr	r1, [pc, #112]	; (800700c <mem_malloc+0x128>)
 8006f9a:	481d      	ldr	r0, [pc, #116]	; (8007010 <mem_malloc+0x12c>)
 8006f9c:	f004 fcc0 	bl	800b920 <iprintf>
 8006fa0:	3508      	adds	r5, #8
 8006fa2:	4815      	ldr	r0, [pc, #84]	; (8006ff8 <mem_malloc+0x114>)
 8006fa4:	f003 fc96 	bl	800a8d4 <sys_mutex_unlock>
 8006fa8:	683b      	ldr	r3, [r7, #0]
 8006faa:	4425      	add	r5, r4
 8006fac:	42ab      	cmp	r3, r5
 8006fae:	d206      	bcs.n	8006fbe <mem_malloc+0xda>
 8006fb0:	4b15      	ldr	r3, [pc, #84]	; (8007008 <mem_malloc+0x124>)
 8006fb2:	f44f 7235 	mov.w	r2, #724	; 0x2d4
 8006fb6:	4917      	ldr	r1, [pc, #92]	; (8007014 <mem_malloc+0x130>)
 8006fb8:	4815      	ldr	r0, [pc, #84]	; (8007010 <mem_malloc+0x12c>)
 8006fba:	f004 fcb1 	bl	800b920 <iprintf>
 8006fbe:	07a3      	lsls	r3, r4, #30
 8006fc0:	d00d      	beq.n	8006fde <mem_malloc+0xfa>
 8006fc2:	4b11      	ldr	r3, [pc, #68]	; (8007008 <mem_malloc+0x124>)
 8006fc4:	f240 22d6 	movw	r2, #726	; 0x2d6
 8006fc8:	4913      	ldr	r1, [pc, #76]	; (8007018 <mem_malloc+0x134>)
 8006fca:	4811      	ldr	r0, [pc, #68]	; (8007010 <mem_malloc+0x12c>)
 8006fcc:	f004 fca8 	bl	800b920 <iprintf>
 8006fd0:	4b0d      	ldr	r3, [pc, #52]	; (8007008 <mem_malloc+0x124>)
 8006fd2:	f44f 7236 	mov.w	r2, #728	; 0x2d8
 8006fd6:	4911      	ldr	r1, [pc, #68]	; (800701c <mem_malloc+0x138>)
 8006fd8:	480d      	ldr	r0, [pc, #52]	; (8007010 <mem_malloc+0x12c>)
 8006fda:	f004 fca1 	bl	800b920 <iprintf>
 8006fde:	f104 0008 	add.w	r0, r4, #8
 8006fe2:	e8bd 83f8 	ldmia.w	sp!, {r3, r4, r5, r6, r7, r8, r9, pc}
 8006fe6:	2301      	movs	r3, #1
 8006fe8:	7123      	strb	r3, [r4, #4]
 8006fea:	e7c4      	b.n	8006f76 <mem_malloc+0x92>
 8006fec:	881b      	ldrh	r3, [r3, #0]
 8006fee:	4433      	add	r3, r6
 8006ff0:	e7c7      	b.n	8006f82 <mem_malloc+0x9e>
 8006ff2:	4673      	mov	r3, lr
 8006ff4:	e793      	b.n	8006f1e <mem_malloc+0x3a>
 8006ff6:	bf00      	nop
 8006ff8:	2000404c 	.word	0x2000404c
 8006ffc:	20004050 	.word	0x20004050
 8007000:	20004048 	.word	0x20004048
 8007004:	20004054 	.word	0x20004054
 8007008:	0800cc23 	.word	0x0800cc23
 800700c:	0800cc6d 	.word	0x0800cc6d
 8007010:	0800c6ba 	.word	0x0800c6ba
 8007014:	0800cc86 	.word	0x0800cc86
 8007018:	0800ccb6 	.word	0x0800ccb6
 800701c:	0800cce5 	.word	0x0800cce5

08007020 <do_memp_malloc_pool.isra.0>:
 8007020:	b538      	push	{r3, r4, r5, lr}
 8007022:	4604      	mov	r4, r0
 8007024:	f003 fc6a 	bl	800a8fc <sys_arch_protect>
 8007028:	4605      	mov	r5, r0
 800702a:	6823      	ldr	r3, [r4, #0]
 800702c:	681c      	ldr	r4, [r3, #0]
 800702e:	b15c      	cbz	r4, 8007048 <do_memp_malloc_pool.isra.0+0x28>
 8007030:	6822      	ldr	r2, [r4, #0]
 8007032:	601a      	str	r2, [r3, #0]
 8007034:	07a3      	lsls	r3, r4, #30
 8007036:	d006      	beq.n	8007046 <do_memp_malloc_pool.isra.0+0x26>
 8007038:	4b05      	ldr	r3, [pc, #20]	; (8007050 <do_memp_malloc_pool.isra.0+0x30>)
 800703a:	f240 1249 	movw	r2, #329	; 0x149
 800703e:	4905      	ldr	r1, [pc, #20]	; (8007054 <do_memp_malloc_pool.isra.0+0x34>)
 8007040:	4805      	ldr	r0, [pc, #20]	; (8007058 <do_memp_malloc_pool.isra.0+0x38>)
 8007042:	f004 fc6d 	bl	800b920 <iprintf>
 8007046:	4628      	mov	r0, r5
 8007048:	f003 fc64 	bl	800a914 <sys_arch_unprotect>
 800704c:	4620      	mov	r0, r4
 800704e:	bd38      	pop	{r3, r4, r5, pc}
 8007050:	0800cd5f 	.word	0x0800cd5f
 8007054:	0800cd8f 	.word	0x0800cd8f
 8007058:	0800c6ba 	.word	0x0800c6ba

0800705c <do_memp_free_pool.isra.1>:
 800705c:	b538      	push	{r3, r4, r5, lr}
 800705e:	078b      	lsls	r3, r1, #30
 8007060:	4605      	mov	r5, r0
 8007062:	460c      	mov	r4, r1
 8007064:	d006      	beq.n	8007074 <do_memp_free_pool.isra.1+0x18>
 8007066:	4b08      	ldr	r3, [pc, #32]	; (8007088 <do_memp_free_pool.isra.1+0x2c>)
 8007068:	f240 129d 	movw	r2, #413	; 0x19d
 800706c:	4907      	ldr	r1, [pc, #28]	; (800708c <do_memp_free_pool.isra.1+0x30>)
 800706e:	4808      	ldr	r0, [pc, #32]	; (8007090 <do_memp_free_pool.isra.1+0x34>)
 8007070:	f004 fc56 	bl	800b920 <iprintf>
 8007074:	f003 fc42 	bl	800a8fc <sys_arch_protect>
 8007078:	682b      	ldr	r3, [r5, #0]
 800707a:	681a      	ldr	r2, [r3, #0]
 800707c:	6022      	str	r2, [r4, #0]
 800707e:	601c      	str	r4, [r3, #0]
 8007080:	e8bd 4038 	ldmia.w	sp!, {r3, r4, r5, lr}
 8007084:	f003 bc46 	b.w	800a914 <sys_arch_unprotect>
 8007088:	0800cd5f 	.word	0x0800cd5f
 800708c:	0800cd3f 	.word	0x0800cd3f
 8007090:	0800c6ba 	.word	0x0800c6ba

08007094 <memp_init_pool>:
 8007094:	6843      	ldr	r3, [r0, #4]
 8007096:	2200      	movs	r2, #0
 8007098:	6881      	ldr	r1, [r0, #8]
 800709a:	3303      	adds	r3, #3
 800709c:	b530      	push	{r4, r5, lr}
 800709e:	f023 0303 	bic.w	r3, r3, #3
 80070a2:	8844      	ldrh	r4, [r0, #2]
 80070a4:	600a      	str	r2, [r1, #0]
 80070a6:	42a2      	cmp	r2, r4
 80070a8:	db00      	blt.n	80070ac <memp_init_pool+0x18>
 80070aa:	bd30      	pop	{r4, r5, pc}
 80070ac:	680d      	ldr	r5, [r1, #0]
 80070ae:	3201      	adds	r2, #1
 80070b0:	601d      	str	r5, [r3, #0]
 80070b2:	8805      	ldrh	r5, [r0, #0]
 80070b4:	600b      	str	r3, [r1, #0]
 80070b6:	442b      	add	r3, r5
 80070b8:	e7f5      	b.n	80070a6 <memp_init_pool+0x12>
	...

080070bc <memp_init>:
 80070bc:	b538      	push	{r3, r4, r5, lr}
 80070be:	2400      	movs	r4, #0
 80070c0:	4d04      	ldr	r5, [pc, #16]	; (80070d4 <memp_init+0x18>)
 80070c2:	f855 0024 	ldr.w	r0, [r5, r4, lsl #2]
 80070c6:	3401      	adds	r4, #1
 80070c8:	f7ff ffe4 	bl	8007094 <memp_init_pool>
 80070cc:	2c0d      	cmp	r4, #13
 80070ce:	d1f8      	bne.n	80070c2 <memp_init+0x6>
 80070d0:	bd38      	pop	{r3, r4, r5, pc}
 80070d2:	bf00      	nop
 80070d4:	0800ce88 	.word	0x0800ce88

080070d8 <memp_malloc>:
 80070d8:	280c      	cmp	r0, #12
 80070da:	b508      	push	{r3, lr}
 80070dc:	d807      	bhi.n	80070ee <memp_malloc+0x16>
 80070de:	4b08      	ldr	r3, [pc, #32]	; (8007100 <memp_malloc+0x28>)
 80070e0:	f853 0020 	ldr.w	r0, [r3, r0, lsl #2]
 80070e4:	e8bd 4008 	ldmia.w	sp!, {r3, lr}
 80070e8:	3008      	adds	r0, #8
 80070ea:	f7ff bf99 	b.w	8007020 <do_memp_malloc_pool.isra.0>
 80070ee:	4b05      	ldr	r3, [pc, #20]	; (8007104 <memp_malloc+0x2c>)
 80070f0:	f240 1287 	movw	r2, #391	; 0x187
 80070f4:	4904      	ldr	r1, [pc, #16]	; (8007108 <memp_malloc+0x30>)
 80070f6:	4805      	ldr	r0, [pc, #20]	; (800710c <memp_malloc+0x34>)
 80070f8:	f004 fc12 	bl	800b920 <iprintf>
 80070fc:	2000      	movs	r0, #0
 80070fe:	bd08      	pop	{r3, pc}
 8007100:	0800ce88 	.word	0x0800ce88
 8007104:	0800cd5f 	.word	0x0800cd5f
 8007108:	0800ce6b 	.word	0x0800ce6b
 800710c:	0800c6ba 	.word	0x0800c6ba

08007110 <memp_free>:
 8007110:	280c      	cmp	r0, #12
 8007112:	d906      	bls.n	8007122 <memp_free+0x12>
 8007114:	4b07      	ldr	r3, [pc, #28]	; (8007134 <memp_free+0x24>)
 8007116:	f240 12db 	movw	r2, #475	; 0x1db
 800711a:	4907      	ldr	r1, [pc, #28]	; (8007138 <memp_free+0x28>)
 800711c:	4807      	ldr	r0, [pc, #28]	; (800713c <memp_free+0x2c>)
 800711e:	f004 bbff 	b.w	800b920 <iprintf>
 8007122:	b129      	cbz	r1, 8007130 <memp_free+0x20>
 8007124:	4b06      	ldr	r3, [pc, #24]	; (8007140 <memp_free+0x30>)
 8007126:	f853 0020 	ldr.w	r0, [r3, r0, lsl #2]
 800712a:	3008      	adds	r0, #8
 800712c:	f7ff bf96 	b.w	800705c <do_memp_free_pool.isra.1>
 8007130:	4770      	bx	lr
 8007132:	bf00      	nop
 8007134:	0800cd5f 	.word	0x0800cd5f
 8007138:	0800ce50 	.word	0x0800ce50
 800713c:	0800c6ba 	.word	0x0800c6ba
 8007140:	0800ce88 	.word	0x0800ce88

08007144 <netif_issue_reports.part.0>:
 8007144:	f890 302b 	ldrb.w	r3, [r0, #43]	; 0x2b
 8007148:	4601      	mov	r1, r0
 800714a:	071b      	lsls	r3, r3, #28
 800714c:	d502      	bpl.n	8007154 <netif_issue_reports.part.0+0x10>
 800714e:	3104      	adds	r1, #4
 8007150:	f7fe bd5e 	b.w	8005c10 <etharp_request>
 8007154:	4770      	bx	lr

08007156 <netif_init>:
 8007156:	4770      	bx	lr

08007158 <netif_set_ipaddr>:
 8007158:	b573      	push	{r0, r1, r4, r5, r6, lr}
 800715a:	4605      	mov	r5, r0
 800715c:	460c      	mov	r4, r1
 800715e:	b1b9      	cbz	r1, 8007190 <netif_set_ipaddr+0x38>
 8007160:	680b      	ldr	r3, [r1, #0]
 8007162:	9301      	str	r3, [sp, #4]
 8007164:	9a01      	ldr	r2, [sp, #4]
 8007166:	686b      	ldr	r3, [r5, #4]
 8007168:	429a      	cmp	r2, r3
 800716a:	d00f      	beq.n	800718c <netif_set_ipaddr+0x34>
 800716c:	1d2e      	adds	r6, r5, #4
 800716e:	a901      	add	r1, sp, #4
 8007170:	4630      	mov	r0, r6
 8007172:	f001 f9f5 	bl	8008560 <tcp_netif_ip_addr_changed>
 8007176:	a901      	add	r1, sp, #4
 8007178:	4630      	mov	r0, r6
 800717a:	f003 faa3 	bl	800a6c4 <udp_netif_ip_addr_changed>
 800717e:	b104      	cbz	r4, 8007182 <netif_set_ipaddr+0x2a>
 8007180:	6824      	ldr	r4, [r4, #0]
 8007182:	606c      	str	r4, [r5, #4]
 8007184:	b114      	cbz	r4, 800718c <netif_set_ipaddr+0x34>
 8007186:	4628      	mov	r0, r5
 8007188:	f7ff ffdc 	bl	8007144 <netif_issue_reports.part.0>
 800718c:	b002      	add	sp, #8
 800718e:	bd70      	pop	{r4, r5, r6, pc}
 8007190:	4b01      	ldr	r3, [pc, #4]	; (8007198 <netif_set_ipaddr+0x40>)
 8007192:	681b      	ldr	r3, [r3, #0]
 8007194:	e7e5      	b.n	8007162 <netif_set_ipaddr+0xa>
 8007196:	bf00      	nop
 8007198:	0800c9c4 	.word	0x0800c9c4

0800719c <netif_set_addr>:
 800719c:	b570      	push	{r4, r5, r6, lr}
 800719e:	4606      	mov	r6, r0
 80071a0:	4615      	mov	r5, r2
 80071a2:	461c      	mov	r4, r3
 80071a4:	b109      	cbz	r1, 80071aa <netif_set_addr+0xe>
 80071a6:	680b      	ldr	r3, [r1, #0]
 80071a8:	b94b      	cbnz	r3, 80071be <netif_set_addr+0x22>
 80071aa:	4630      	mov	r0, r6
 80071ac:	f7ff ffd4 	bl	8007158 <netif_set_ipaddr>
 80071b0:	b105      	cbz	r5, 80071b4 <netif_set_addr+0x18>
 80071b2:	682d      	ldr	r5, [r5, #0]
 80071b4:	60b5      	str	r5, [r6, #8]
 80071b6:	b104      	cbz	r4, 80071ba <netif_set_addr+0x1e>
 80071b8:	6824      	ldr	r4, [r4, #0]
 80071ba:	60f4      	str	r4, [r6, #12]
 80071bc:	bd70      	pop	{r4, r5, r6, pc}
 80071be:	b102      	cbz	r2, 80071c2 <netif_set_addr+0x26>
 80071c0:	6815      	ldr	r5, [r2, #0]
 80071c2:	60b5      	str	r5, [r6, #8]
 80071c4:	b104      	cbz	r4, 80071c8 <netif_set_addr+0x2c>
 80071c6:	6824      	ldr	r4, [r4, #0]
 80071c8:	60f4      	str	r4, [r6, #12]
 80071ca:	4630      	mov	r0, r6
 80071cc:	e8bd 4070 	ldmia.w	sp!, {r4, r5, r6, lr}
 80071d0:	f7ff bfc2 	b.w	8007158 <netif_set_ipaddr>

080071d4 <netif_add>:
 80071d4:	e92d 43f8 	stmdb	sp!, {r3, r4, r5, r6, r7, r8, r9, lr}
 80071d8:	9e09      	ldr	r6, [sp, #36]	; 0x24
 80071da:	4604      	mov	r4, r0
 80071dc:	460f      	mov	r7, r1
 80071de:	4690      	mov	r8, r2
 80071e0:	4699      	mov	r9, r3
 80071e2:	b92e      	cbnz	r6, 80071f0 <netif_add+0x1c>
 80071e4:	4b15      	ldr	r3, [pc, #84]	; (800723c <netif_add+0x68>)
 80071e6:	22fb      	movs	r2, #251	; 0xfb
 80071e8:	4915      	ldr	r1, [pc, #84]	; (8007240 <netif_add+0x6c>)
 80071ea:	4816      	ldr	r0, [pc, #88]	; (8007244 <netif_add+0x70>)
 80071ec:	f004 fb98 	bl	800b920 <iprintf>
 80071f0:	2303      	movs	r3, #3
 80071f2:	4a15      	ldr	r2, [pc, #84]	; (8007248 <netif_add+0x74>)
 80071f4:	2500      	movs	r5, #0
 80071f6:	4620      	mov	r0, r4
 80071f8:	f884 3020 	strb.w	r3, [r4, #32]
 80071fc:	9b08      	ldr	r3, [sp, #32]
 80071fe:	6065      	str	r5, [r4, #4]
 8007200:	61e3      	str	r3, [r4, #28]
 8007202:	7813      	ldrb	r3, [r2, #0]
 8007204:	60a5      	str	r5, [r4, #8]
 8007206:	1c59      	adds	r1, r3, #1
 8007208:	f884 302e 	strb.w	r3, [r4, #46]	; 0x2e
 800720c:	9b0a      	ldr	r3, [sp, #40]	; 0x28
 800720e:	7011      	strb	r1, [r2, #0]
 8007210:	4642      	mov	r2, r8
 8007212:	6123      	str	r3, [r4, #16]
 8007214:	4639      	mov	r1, r7
 8007216:	60e5      	str	r5, [r4, #12]
 8007218:	464b      	mov	r3, r9
 800721a:	f884 502b 	strb.w	r5, [r4, #43]	; 0x2b
 800721e:	f7ff ffbd 	bl	800719c <netif_set_addr>
 8007222:	4620      	mov	r0, r4
 8007224:	47b0      	blx	r6
 8007226:	b930      	cbnz	r0, 8007236 <netif_add+0x62>
 8007228:	4b08      	ldr	r3, [pc, #32]	; (800724c <netif_add+0x78>)
 800722a:	681a      	ldr	r2, [r3, #0]
 800722c:	6022      	str	r2, [r4, #0]
 800722e:	601c      	str	r4, [r3, #0]
 8007230:	4620      	mov	r0, r4
 8007232:	e8bd 83f8 	ldmia.w	sp!, {r3, r4, r5, r6, r7, r8, r9, pc}
 8007236:	462c      	mov	r4, r5
 8007238:	e7fa      	b.n	8007230 <netif_add+0x5c>
 800723a:	bf00      	nop
 800723c:	0800cebc 	.word	0x0800cebc
 8007240:	0800ceed 	.word	0x0800ceed
 8007244:	0800c6ba 	.word	0x0800c6ba
 8007248:	2000408c 	.word	0x2000408c
 800724c:	200077e4 	.word	0x200077e4

08007250 <netif_set_default>:
 8007250:	4b01      	ldr	r3, [pc, #4]	; (8007258 <netif_set_default+0x8>)
 8007252:	6018      	str	r0, [r3, #0]
 8007254:	4770      	bx	lr
 8007256:	bf00      	nop
 8007258:	200077e8 	.word	0x200077e8

0800725c <netif_set_up>:
 800725c:	f890 202b 	ldrb.w	r2, [r0, #43]	; 0x2b
 8007260:	07d1      	lsls	r1, r2, #31
 8007262:	d409      	bmi.n	8007278 <netif_set_up+0x1c>
 8007264:	f042 0101 	orr.w	r1, r2, #1
 8007268:	0752      	lsls	r2, r2, #29
 800726a:	f880 102b 	strb.w	r1, [r0, #43]	; 0x2b
 800726e:	d503      	bpl.n	8007278 <netif_set_up+0x1c>
 8007270:	6843      	ldr	r3, [r0, #4]
 8007272:	b10b      	cbz	r3, 8007278 <netif_set_up+0x1c>
 8007274:	f7ff bf66 	b.w	8007144 <netif_issue_reports.part.0>
 8007278:	4770      	bx	lr

0800727a <netif_set_down>:
 800727a:	f890 302b 	ldrb.w	r3, [r0, #43]	; 0x2b
 800727e:	07d9      	lsls	r1, r3, #31
 8007280:	d507      	bpl.n	8007292 <netif_set_down+0x18>
 8007282:	f023 0101 	bic.w	r1, r3, #1
 8007286:	071b      	lsls	r3, r3, #28
 8007288:	f880 102b 	strb.w	r1, [r0, #43]	; 0x2b
 800728c:	d501      	bpl.n	8007292 <netif_set_down+0x18>
 800728e:	f7fe bc0d 	b.w	8005aac <etharp_cleanup_netif>
 8007292:	4770      	bx	lr

08007294 <pbuf_free_ooseq_callback>:
 8007294:	b510      	push	{r4, lr}
 8007296:	f003 fb31 	bl	800a8fc <sys_arch_protect>
 800729a:	4b09      	ldr	r3, [pc, #36]	; (80072c0 <pbuf_free_ooseq_callback+0x2c>)
 800729c:	2200      	movs	r2, #0
 800729e:	701a      	strb	r2, [r3, #0]
 80072a0:	f003 fb38 	bl	800a914 <sys_arch_unprotect>
 80072a4:	4b07      	ldr	r3, [pc, #28]	; (80072c4 <pbuf_free_ooseq_callback+0x30>)
 80072a6:	681c      	ldr	r4, [r3, #0]
 80072a8:	b904      	cbnz	r4, 80072ac <pbuf_free_ooseq_callback+0x18>
 80072aa:	bd10      	pop	{r4, pc}
 80072ac:	6f20      	ldr	r0, [r4, #112]	; 0x70
 80072ae:	b120      	cbz	r0, 80072ba <pbuf_free_ooseq_callback+0x26>
 80072b0:	f000 fc42 	bl	8007b38 <tcp_segs_free>
 80072b4:	2300      	movs	r3, #0
 80072b6:	6723      	str	r3, [r4, #112]	; 0x70
 80072b8:	bd10      	pop	{r4, pc}
 80072ba:	68e4      	ldr	r4, [r4, #12]
 80072bc:	e7f4      	b.n	80072a8 <pbuf_free_ooseq_callback+0x14>
 80072be:	bf00      	nop
 80072c0:	200077ec 	.word	0x200077ec
 80072c4:	200077f4 	.word	0x200077f4

080072c8 <pbuf_header_impl>:
 80072c8:	b538      	push	{r3, r4, r5, lr}
 80072ca:	4604      	mov	r4, r0
 80072cc:	2800      	cmp	r0, #0
 80072ce:	d12f      	bne.n	8007330 <pbuf_header_impl+0x68>
 80072d0:	4b1f      	ldr	r3, [pc, #124]	; (8007350 <pbuf_header_impl+0x88>)
 80072d2:	f240 223f 	movw	r2, #575	; 0x23f
 80072d6:	491f      	ldr	r1, [pc, #124]	; (8007354 <pbuf_header_impl+0x8c>)
 80072d8:	481f      	ldr	r0, [pc, #124]	; (8007358 <pbuf_header_impl+0x90>)
 80072da:	f004 fb21 	bl	800b920 <iprintf>
 80072de:	2000      	movs	r0, #0
 80072e0:	bd38      	pop	{r3, r4, r5, pc}
 80072e2:	b288      	uxth	r0, r1
 80072e4:	7b25      	ldrb	r5, [r4, #12]
 80072e6:	6863      	ldr	r3, [r4, #4]
 80072e8:	b10d      	cbz	r5, 80072ee <pbuf_header_impl+0x26>
 80072ea:	2d03      	cmp	r5, #3
 80072ec:	d106      	bne.n	80072fc <pbuf_header_impl+0x34>
 80072ee:	1a5b      	subs	r3, r3, r1
 80072f0:	f104 0210 	add.w	r2, r4, #16
 80072f4:	4293      	cmp	r3, r2
 80072f6:	d20a      	bcs.n	800730e <pbuf_header_impl+0x46>
 80072f8:	2001      	movs	r0, #1
 80072fa:	bd38      	pop	{r3, r4, r5, pc}
 80072fc:	3d01      	subs	r5, #1
 80072fe:	2d01      	cmp	r5, #1
 8007300:	d811      	bhi.n	8007326 <pbuf_header_impl+0x5e>
 8007302:	2900      	cmp	r1, #0
 8007304:	da0c      	bge.n	8007320 <pbuf_header_impl+0x58>
 8007306:	8962      	ldrh	r2, [r4, #10]
 8007308:	4282      	cmp	r2, r0
 800730a:	d3f5      	bcc.n	80072f8 <pbuf_header_impl+0x30>
 800730c:	1a5b      	subs	r3, r3, r1
 800730e:	b289      	uxth	r1, r1
 8007310:	8920      	ldrh	r0, [r4, #8]
 8007312:	6063      	str	r3, [r4, #4]
 8007314:	8963      	ldrh	r3, [r4, #10]
 8007316:	440b      	add	r3, r1
 8007318:	4401      	add	r1, r0
 800731a:	8163      	strh	r3, [r4, #10]
 800731c:	8121      	strh	r1, [r4, #8]
 800731e:	e7de      	b.n	80072de <pbuf_header_impl+0x16>
 8007320:	2a00      	cmp	r2, #0
 8007322:	d1f3      	bne.n	800730c <pbuf_header_impl+0x44>
 8007324:	e7e8      	b.n	80072f8 <pbuf_header_impl+0x30>
 8007326:	4b0a      	ldr	r3, [pc, #40]	; (8007350 <pbuf_header_impl+0x88>)
 8007328:	f240 2277 	movw	r2, #631	; 0x277
 800732c:	490b      	ldr	r1, [pc, #44]	; (800735c <pbuf_header_impl+0x94>)
 800732e:	e00b      	b.n	8007348 <pbuf_header_impl+0x80>
 8007330:	2900      	cmp	r1, #0
 8007332:	d0d4      	beq.n	80072de <pbuf_header_impl+0x16>
 8007334:	dad5      	bge.n	80072e2 <pbuf_header_impl+0x1a>
 8007336:	4248      	negs	r0, r1
 8007338:	8963      	ldrh	r3, [r4, #10]
 800733a:	b280      	uxth	r0, r0
 800733c:	4283      	cmp	r3, r0
 800733e:	d2d1      	bcs.n	80072e4 <pbuf_header_impl+0x1c>
 8007340:	4b03      	ldr	r3, [pc, #12]	; (8007350 <pbuf_header_impl+0x88>)
 8007342:	f240 2247 	movw	r2, #583	; 0x247
 8007346:	4906      	ldr	r1, [pc, #24]	; (8007360 <pbuf_header_impl+0x98>)
 8007348:	4803      	ldr	r0, [pc, #12]	; (8007358 <pbuf_header_impl+0x90>)
 800734a:	f004 fae9 	bl	800b920 <iprintf>
 800734e:	e7d3      	b.n	80072f8 <pbuf_header_impl+0x30>
 8007350:	0800d169 	.word	0x0800d169
 8007354:	0800d1d3 	.word	0x0800d1d3
 8007358:	0800c6ba 	.word	0x0800c6ba
 800735c:	0800d1b7 	.word	0x0800d1b7
 8007360:	0800d199 	.word	0x0800d199

08007364 <pbuf_pool_is_empty>:
 8007364:	b538      	push	{r3, r4, r5, lr}
 8007366:	4d0c      	ldr	r5, [pc, #48]	; (8007398 <pbuf_pool_is_empty+0x34>)
 8007368:	f003 fac8 	bl	800a8fc <sys_arch_protect>
 800736c:	2301      	movs	r3, #1
 800736e:	782c      	ldrb	r4, [r5, #0]
 8007370:	702b      	strb	r3, [r5, #0]
 8007372:	b2e4      	uxtb	r4, r4
 8007374:	f003 face 	bl	800a914 <sys_arch_unprotect>
 8007378:	b964      	cbnz	r4, 8007394 <pbuf_pool_is_empty+0x30>
 800737a:	4622      	mov	r2, r4
 800737c:	4621      	mov	r1, r4
 800737e:	4807      	ldr	r0, [pc, #28]	; (800739c <pbuf_pool_is_empty+0x38>)
 8007380:	f7fe fa04 	bl	800578c <tcpip_callback_with_block>
 8007384:	b130      	cbz	r0, 8007394 <pbuf_pool_is_empty+0x30>
 8007386:	f003 fab9 	bl	800a8fc <sys_arch_protect>
 800738a:	702c      	strb	r4, [r5, #0]
 800738c:	e8bd 4038 	ldmia.w	sp!, {r3, r4, r5, lr}
 8007390:	f003 bac0 	b.w	800a914 <sys_arch_unprotect>
 8007394:	bd38      	pop	{r3, r4, r5, pc}
 8007396:	bf00      	nop
 8007398:	200077ec 	.word	0x200077ec
 800739c:	08007295 	.word	0x08007295

080073a0 <pbuf_alloced_custom>:
 80073a0:	b570      	push	{r4, r5, r6, lr}
 80073a2:	9d04      	ldr	r5, [sp, #16]
 80073a4:	2804      	cmp	r0, #4
 80073a6:	d81e      	bhi.n	80073e6 <pbuf_alloced_custom+0x46>
 80073a8:	e8df f000 	tbb	[pc, r0]
 80073ac:	1b280326 	.word	0x1b280326
 80073b0:	1b          	.byte	0x1b
 80073b1:	00          	.byte	0x00
 80073b2:	2422      	movs	r4, #34	; 0x22
 80073b4:	3403      	adds	r4, #3
 80073b6:	f8bd 0014 	ldrh.w	r0, [sp, #20]
 80073ba:	f024 0403 	bic.w	r4, r4, #3
 80073be:	190e      	adds	r6, r1, r4
 80073c0:	4286      	cmp	r6, r0
 80073c2:	f04f 0000 	mov.w	r0, #0
 80073c6:	d80b      	bhi.n	80073e0 <pbuf_alloced_custom+0x40>
 80073c8:	6018      	str	r0, [r3, #0]
 80073ca:	b1cd      	cbz	r5, 8007400 <pbuf_alloced_custom+0x60>
 80073cc:	442c      	add	r4, r5
 80073ce:	605c      	str	r4, [r3, #4]
 80073d0:	2002      	movs	r0, #2
 80073d2:	731a      	strb	r2, [r3, #12]
 80073d4:	2201      	movs	r2, #1
 80073d6:	8119      	strh	r1, [r3, #8]
 80073d8:	7358      	strb	r0, [r3, #13]
 80073da:	4618      	mov	r0, r3
 80073dc:	8159      	strh	r1, [r3, #10]
 80073de:	81da      	strh	r2, [r3, #14]
 80073e0:	bd70      	pop	{r4, r5, r6, pc}
 80073e2:	2400      	movs	r4, #0
 80073e4:	e7e6      	b.n	80073b4 <pbuf_alloced_custom+0x14>
 80073e6:	4b07      	ldr	r3, [pc, #28]	; (8007404 <pbuf_alloced_custom+0x64>)
 80073e8:	f240 12c5 	movw	r2, #453	; 0x1c5
 80073ec:	4906      	ldr	r1, [pc, #24]	; (8007408 <pbuf_alloced_custom+0x68>)
 80073ee:	4807      	ldr	r0, [pc, #28]	; (800740c <pbuf_alloced_custom+0x6c>)
 80073f0:	f004 fa96 	bl	800b920 <iprintf>
 80073f4:	2000      	movs	r0, #0
 80073f6:	bd70      	pop	{r4, r5, r6, pc}
 80073f8:	2436      	movs	r4, #54	; 0x36
 80073fa:	e7db      	b.n	80073b4 <pbuf_alloced_custom+0x14>
 80073fc:	240e      	movs	r4, #14
 80073fe:	e7d9      	b.n	80073b4 <pbuf_alloced_custom+0x14>
 8007400:	605d      	str	r5, [r3, #4]
 8007402:	e7e5      	b.n	80073d0 <pbuf_alloced_custom+0x30>
 8007404:	0800d169 	.word	0x0800d169
 8007408:	0800cfac 	.word	0x0800cfac
 800740c:	0800c6ba 	.word	0x0800c6ba

08007410 <pbuf_header>:
 8007410:	2200      	movs	r2, #0
 8007412:	f7ff bf59 	b.w	80072c8 <pbuf_header_impl>

08007416 <pbuf_header_force>:
 8007416:	2201      	movs	r2, #1
 8007418:	f7ff bf56 	b.w	80072c8 <pbuf_header_impl>

0800741c <pbuf_free>:
 800741c:	e92d 4ff8 	stmdb	sp!, {r3, r4, r5, r6, r7, r8, r9, sl, fp, lr}
 8007420:	4604      	mov	r4, r0
 8007422:	b950      	cbnz	r0, 800743a <pbuf_free+0x1e>
 8007424:	4627      	mov	r7, r4
 8007426:	4b2c      	ldr	r3, [pc, #176]	; (80074d8 <pbuf_free+0xbc>)
 8007428:	f240 22d2 	movw	r2, #722	; 0x2d2
 800742c:	492b      	ldr	r1, [pc, #172]	; (80074dc <pbuf_free+0xc0>)
 800742e:	482c      	ldr	r0, [pc, #176]	; (80074e0 <pbuf_free+0xc4>)
 8007430:	f004 fa76 	bl	800b920 <iprintf>
 8007434:	4638      	mov	r0, r7
 8007436:	e8bd 8ff8 	ldmia.w	sp!, {r3, r4, r5, r6, r7, r8, r9, sl, fp, pc}
 800743a:	7b03      	ldrb	r3, [r0, #12]
 800743c:	2b03      	cmp	r3, #3
 800743e:	d906      	bls.n	800744e <pbuf_free+0x32>
 8007440:	4b25      	ldr	r3, [pc, #148]	; (80074d8 <pbuf_free+0xbc>)
 8007442:	f240 22de 	movw	r2, #734	; 0x2de
 8007446:	4927      	ldr	r1, [pc, #156]	; (80074e4 <pbuf_free+0xc8>)
 8007448:	4825      	ldr	r0, [pc, #148]	; (80074e0 <pbuf_free+0xc4>)
 800744a:	f004 fa69 	bl	800b920 <iprintf>
 800744e:	2600      	movs	r6, #0
 8007450:	f8df 8084 	ldr.w	r8, [pc, #132]	; 80074d8 <pbuf_free+0xbc>
 8007454:	f8df a094 	ldr.w	sl, [pc, #148]	; 80074ec <pbuf_free+0xd0>
 8007458:	f8df 9084 	ldr.w	r9, [pc, #132]	; 80074e0 <pbuf_free+0xc4>
 800745c:	b2f7      	uxtb	r7, r6
 800745e:	2c00      	cmp	r4, #0
 8007460:	d0e8      	beq.n	8007434 <pbuf_free+0x18>
 8007462:	f003 fa4b 	bl	800a8fc <sys_arch_protect>
 8007466:	89e3      	ldrh	r3, [r4, #14]
 8007468:	4683      	mov	fp, r0
 800746a:	b933      	cbnz	r3, 800747a <pbuf_free+0x5e>
 800746c:	4643      	mov	r3, r8
 800746e:	f240 22eb 	movw	r2, #747	; 0x2eb
 8007472:	4651      	mov	r1, sl
 8007474:	4648      	mov	r0, r9
 8007476:	f004 fa53 	bl	800b920 <iprintf>
 800747a:	89e5      	ldrh	r5, [r4, #14]
 800747c:	4658      	mov	r0, fp
 800747e:	3d01      	subs	r5, #1
 8007480:	b2ad      	uxth	r5, r5
 8007482:	81e5      	strh	r5, [r4, #14]
 8007484:	f003 fa46 	bl	800a914 <sys_arch_unprotect>
 8007488:	2d00      	cmp	r5, #0
 800748a:	d1d3      	bne.n	8007434 <pbuf_free+0x18>
 800748c:	7b63      	ldrb	r3, [r4, #13]
 800748e:	6825      	ldr	r5, [r4, #0]
 8007490:	079b      	lsls	r3, r3, #30
 8007492:	d50e      	bpl.n	80074b2 <pbuf_free+0x96>
 8007494:	6923      	ldr	r3, [r4, #16]
 8007496:	b933      	cbnz	r3, 80074a6 <pbuf_free+0x8a>
 8007498:	4643      	mov	r3, r8
 800749a:	f240 22f9 	movw	r2, #761	; 0x2f9
 800749e:	4912      	ldr	r1, [pc, #72]	; (80074e8 <pbuf_free+0xcc>)
 80074a0:	4648      	mov	r0, r9
 80074a2:	f004 fa3d 	bl	800b920 <iprintf>
 80074a6:	6923      	ldr	r3, [r4, #16]
 80074a8:	4620      	mov	r0, r4
 80074aa:	4798      	blx	r3
 80074ac:	3601      	adds	r6, #1
 80074ae:	462c      	mov	r4, r5
 80074b0:	e7d4      	b.n	800745c <pbuf_free+0x40>
 80074b2:	7b23      	ldrb	r3, [r4, #12]
 80074b4:	2b03      	cmp	r3, #3
 80074b6:	d104      	bne.n	80074c2 <pbuf_free+0xa6>
 80074b8:	4621      	mov	r1, r4
 80074ba:	200c      	movs	r0, #12
 80074bc:	f7ff fe28 	bl	8007110 <memp_free>
 80074c0:	e7f4      	b.n	80074ac <pbuf_free+0x90>
 80074c2:	3b01      	subs	r3, #1
 80074c4:	2b01      	cmp	r3, #1
 80074c6:	d802      	bhi.n	80074ce <pbuf_free+0xb2>
 80074c8:	4621      	mov	r1, r4
 80074ca:	200b      	movs	r0, #11
 80074cc:	e7f6      	b.n	80074bc <pbuf_free+0xa0>
 80074ce:	4620      	mov	r0, r4
 80074d0:	f7ff fbc2 	bl	8006c58 <mem_free>
 80074d4:	e7ea      	b.n	80074ac <pbuf_free+0x90>
 80074d6:	bf00      	nop
 80074d8:	0800d169 	.word	0x0800d169
 80074dc:	0800d1d3 	.word	0x0800d1d3
 80074e0:	0800c6ba 	.word	0x0800c6ba
 80074e4:	0800d11d 	.word	0x0800d11d
 80074e8:	0800d148 	.word	0x0800d148
 80074ec:	0800d132 	.word	0x0800d132

080074f0 <pbuf_alloc>:
 80074f0:	e92d 4ff8 	stmdb	sp!, {r3, r4, r5, r6, r7, r8, r9, sl, fp, lr}
 80074f4:	460e      	mov	r6, r1
 80074f6:	4617      	mov	r7, r2
 80074f8:	2804      	cmp	r0, #4
 80074fa:	d80e      	bhi.n	800751a <pbuf_alloc+0x2a>
 80074fc:	e8df f000 	tbb	[pc, r0]
 8007500:	0b170315 	.word	0x0b170315
 8007504:	0b          	.byte	0x0b
 8007505:	00          	.byte	0x00
 8007506:	2522      	movs	r5, #34	; 0x22
 8007508:	2f03      	cmp	r7, #3
 800750a:	f200 80b9 	bhi.w	8007680 <pbuf_alloc+0x190>
 800750e:	e8df f007 	tbb	[pc, r7]
 8007512:	aa8f      	.short	0xaa8f
 8007514:	10aa      	.short	0x10aa
 8007516:	2500      	movs	r5, #0
 8007518:	e7f6      	b.n	8007508 <pbuf_alloc+0x18>
 800751a:	4b5c      	ldr	r3, [pc, #368]	; (800768c <pbuf_alloc+0x19c>)
 800751c:	f44f 728b 	mov.w	r2, #278	; 0x116
 8007520:	495b      	ldr	r1, [pc, #364]	; (8007690 <pbuf_alloc+0x1a0>)
 8007522:	485c      	ldr	r0, [pc, #368]	; (8007694 <pbuf_alloc+0x1a4>)
 8007524:	f004 f9fc 	bl	800b920 <iprintf>
 8007528:	e049      	b.n	80075be <pbuf_alloc+0xce>
 800752a:	2536      	movs	r5, #54	; 0x36
 800752c:	e7ec      	b.n	8007508 <pbuf_alloc+0x18>
 800752e:	250e      	movs	r5, #14
 8007530:	e7ea      	b.n	8007508 <pbuf_alloc+0x18>
 8007532:	200c      	movs	r0, #12
 8007534:	f7ff fdd0 	bl	80070d8 <memp_malloc>
 8007538:	4604      	mov	r4, r0
 800753a:	b920      	cbnz	r0, 8007546 <pbuf_alloc+0x56>
 800753c:	f7ff ff12 	bl	8007364 <pbuf_pool_is_empty>
 8007540:	4620      	mov	r0, r4
 8007542:	e8bd 8ff8 	ldmia.w	sp!, {r3, r4, r5, r6, r7, r8, r9, sl, fp, pc}
 8007546:	2303      	movs	r3, #3
 8007548:	f500 7718 	add.w	r7, r0, #608	; 0x260
 800754c:	8106      	strh	r6, [r0, #8]
 800754e:	7303      	strb	r3, [r0, #12]
 8007550:	2300      	movs	r3, #0
 8007552:	6003      	str	r3, [r0, #0]
 8007554:	1943      	adds	r3, r0, r5
 8007556:	3503      	adds	r5, #3
 8007558:	3313      	adds	r3, #19
 800755a:	f025 0503 	bic.w	r5, r5, #3
 800755e:	f023 0303 	bic.w	r3, r3, #3
 8007562:	f5c5 7514 	rsb	r5, r5, #592	; 0x250
 8007566:	6043      	str	r3, [r0, #4]
 8007568:	42b5      	cmp	r5, r6
 800756a:	bf28      	it	cs
 800756c:	4635      	movcs	r5, r6
 800756e:	442b      	add	r3, r5
 8007570:	8145      	strh	r5, [r0, #10]
 8007572:	429f      	cmp	r7, r3
 8007574:	d206      	bcs.n	8007584 <pbuf_alloc+0x94>
 8007576:	4b45      	ldr	r3, [pc, #276]	; (800768c <pbuf_alloc+0x19c>)
 8007578:	f44f 7298 	mov.w	r2, #304	; 0x130
 800757c:	4946      	ldr	r1, [pc, #280]	; (8007698 <pbuf_alloc+0x1a8>)
 800757e:	4845      	ldr	r0, [pc, #276]	; (8007694 <pbuf_alloc+0x1a4>)
 8007580:	f004 f9ce 	bl	800b920 <iprintf>
 8007584:	2301      	movs	r3, #1
 8007586:	46a3      	mov	fp, r4
 8007588:	f8df 8100 	ldr.w	r8, [pc, #256]	; 800768c <pbuf_alloc+0x19c>
 800758c:	81e3      	strh	r3, [r4, #14]
 800758e:	8963      	ldrh	r3, [r4, #10]
 8007590:	f8df a110 	ldr.w	sl, [pc, #272]	; 80076a4 <pbuf_alloc+0x1b4>
 8007594:	1af6      	subs	r6, r6, r3
 8007596:	f8df 90fc 	ldr.w	r9, [pc, #252]	; 8007694 <pbuf_alloc+0x1a4>
 800759a:	2e00      	cmp	r6, #0
 800759c:	dc04      	bgt.n	80075a8 <pbuf_alloc+0xb8>
 800759e:	2301      	movs	r3, #1
 80075a0:	81e3      	strh	r3, [r4, #14]
 80075a2:	2300      	movs	r3, #0
 80075a4:	7363      	strb	r3, [r4, #13]
 80075a6:	e7cb      	b.n	8007540 <pbuf_alloc+0x50>
 80075a8:	200c      	movs	r0, #12
 80075aa:	f7ff fd95 	bl	80070d8 <memp_malloc>
 80075ae:	2300      	movs	r3, #0
 80075b0:	4605      	mov	r5, r0
 80075b2:	b930      	cbnz	r0, 80075c2 <pbuf_alloc+0xd2>
 80075b4:	f7ff fed6 	bl	8007364 <pbuf_pool_is_empty>
 80075b8:	4620      	mov	r0, r4
 80075ba:	f7ff ff2f 	bl	800741c <pbuf_free>
 80075be:	2400      	movs	r4, #0
 80075c0:	e7be      	b.n	8007540 <pbuf_alloc+0x50>
 80075c2:	7343      	strb	r3, [r0, #13]
 80075c4:	2203      	movs	r2, #3
 80075c6:	6003      	str	r3, [r0, #0]
 80075c8:	f64f 73ff 	movw	r3, #65535	; 0xffff
 80075cc:	7302      	strb	r2, [r0, #12]
 80075ce:	429e      	cmp	r6, r3
 80075d0:	f8cb 0000 	str.w	r0, [fp]
 80075d4:	d106      	bne.n	80075e4 <pbuf_alloc+0xf4>
 80075d6:	4643      	mov	r3, r8
 80075d8:	f44f 72a6 	mov.w	r2, #332	; 0x14c
 80075dc:	4651      	mov	r1, sl
 80075de:	4648      	mov	r0, r9
 80075e0:	f004 f99e 	bl	800b920 <iprintf>
 80075e4:	b2b3      	uxth	r3, r6
 80075e6:	f5b3 7f14 	cmp.w	r3, #592	; 0x250
 80075ea:	812b      	strh	r3, [r5, #8]
 80075ec:	bf28      	it	cs
 80075ee:	f44f 7314 	movcs.w	r3, #592	; 0x250
 80075f2:	816b      	strh	r3, [r5, #10]
 80075f4:	f105 0310 	add.w	r3, r5, #16
 80075f8:	606b      	str	r3, [r5, #4]
 80075fa:	079b      	lsls	r3, r3, #30
 80075fc:	d006      	beq.n	800760c <pbuf_alloc+0x11c>
 80075fe:	4643      	mov	r3, r8
 8007600:	f44f 72a9 	mov.w	r2, #338	; 0x152
 8007604:	4925      	ldr	r1, [pc, #148]	; (800769c <pbuf_alloc+0x1ac>)
 8007606:	4648      	mov	r0, r9
 8007608:	f004 f98a 	bl	800b920 <iprintf>
 800760c:	8962      	ldrh	r2, [r4, #10]
 800760e:	6863      	ldr	r3, [r4, #4]
 8007610:	4413      	add	r3, r2
 8007612:	429f      	cmp	r7, r3
 8007614:	d206      	bcs.n	8007624 <pbuf_alloc+0x134>
 8007616:	4643      	mov	r3, r8
 8007618:	f240 1255 	movw	r2, #341	; 0x155
 800761c:	491e      	ldr	r1, [pc, #120]	; (8007698 <pbuf_alloc+0x1a8>)
 800761e:	4648      	mov	r0, r9
 8007620:	f004 f97e 	bl	800b920 <iprintf>
 8007624:	2301      	movs	r3, #1
 8007626:	46ab      	mov	fp, r5
 8007628:	81eb      	strh	r3, [r5, #14]
 800762a:	896b      	ldrh	r3, [r5, #10]
 800762c:	1af6      	subs	r6, r6, r3
 800762e:	e7b4      	b.n	800759a <pbuf_alloc+0xaa>
 8007630:	f105 0013 	add.w	r0, r5, #19
 8007634:	1cf3      	adds	r3, r6, #3
 8007636:	f020 0003 	bic.w	r0, r0, #3
 800763a:	f023 0303 	bic.w	r3, r3, #3
 800763e:	4418      	add	r0, r3
 8007640:	b280      	uxth	r0, r0
 8007642:	4298      	cmp	r0, r3
 8007644:	d3bb      	bcc.n	80075be <pbuf_alloc+0xce>
 8007646:	f7ff fc4d 	bl	8006ee4 <mem_malloc>
 800764a:	4604      	mov	r4, r0
 800764c:	2800      	cmp	r0, #0
 800764e:	d0b6      	beq.n	80075be <pbuf_alloc+0xce>
 8007650:	4405      	add	r5, r0
 8007652:	2300      	movs	r3, #0
 8007654:	8106      	strh	r6, [r0, #8]
 8007656:	3513      	adds	r5, #19
 8007658:	8146      	strh	r6, [r0, #10]
 800765a:	6003      	str	r3, [r0, #0]
 800765c:	f025 0503 	bic.w	r5, r5, #3
 8007660:	7303      	strb	r3, [r0, #12]
 8007662:	6045      	str	r5, [r0, #4]
 8007664:	e79b      	b.n	800759e <pbuf_alloc+0xae>
 8007666:	200b      	movs	r0, #11
 8007668:	f7ff fd36 	bl	80070d8 <memp_malloc>
 800766c:	4604      	mov	r4, r0
 800766e:	2800      	cmp	r0, #0
 8007670:	d0a5      	beq.n	80075be <pbuf_alloc+0xce>
 8007672:	2300      	movs	r3, #0
 8007674:	8106      	strh	r6, [r0, #8]
 8007676:	8146      	strh	r6, [r0, #10]
 8007678:	6043      	str	r3, [r0, #4]
 800767a:	6003      	str	r3, [r0, #0]
 800767c:	7307      	strb	r7, [r0, #12]
 800767e:	e78e      	b.n	800759e <pbuf_alloc+0xae>
 8007680:	4b02      	ldr	r3, [pc, #8]	; (800768c <pbuf_alloc+0x19c>)
 8007682:	f44f 72c6 	mov.w	r2, #396	; 0x18c
 8007686:	4906      	ldr	r1, [pc, #24]	; (80076a0 <pbuf_alloc+0x1b0>)
 8007688:	e74b      	b.n	8007522 <pbuf_alloc+0x32>
 800768a:	bf00      	nop
 800768c:	0800d169 	.word	0x0800d169
 8007690:	0800cf04 	.word	0x0800cf04
 8007694:	0800c6ba 	.word	0x0800c6ba
 8007698:	0800cf1f 	.word	0x0800cf1f
 800769c:	0800cf64 	.word	0x0800cf64
 80076a0:	0800cf91 	.word	0x0800cf91
 80076a4:	0800cf50 	.word	0x0800cf50

080076a8 <pbuf_realloc>:
 80076a8:	e92d 43f8 	stmdb	sp!, {r3, r4, r5, r6, r7, r8, r9, lr}
 80076ac:	460d      	mov	r5, r1
 80076ae:	4604      	mov	r4, r0
 80076b0:	b930      	cbnz	r0, 80076c0 <pbuf_realloc+0x18>
 80076b2:	4b2e      	ldr	r3, [pc, #184]	; (800776c <pbuf_realloc+0xc4>)
 80076b4:	f240 12f3 	movw	r2, #499	; 0x1f3
 80076b8:	492d      	ldr	r1, [pc, #180]	; (8007770 <pbuf_realloc+0xc8>)
 80076ba:	482e      	ldr	r0, [pc, #184]	; (8007774 <pbuf_realloc+0xcc>)
 80076bc:	f004 f930 	bl	800b920 <iprintf>
 80076c0:	7b23      	ldrb	r3, [r4, #12]
 80076c2:	2b03      	cmp	r3, #3
 80076c4:	d906      	bls.n	80076d4 <pbuf_realloc+0x2c>
 80076c6:	4b29      	ldr	r3, [pc, #164]	; (800776c <pbuf_realloc+0xc4>)
 80076c8:	f240 12f7 	movw	r2, #503	; 0x1f7
 80076cc:	492a      	ldr	r1, [pc, #168]	; (8007778 <pbuf_realloc+0xd0>)
 80076ce:	4829      	ldr	r0, [pc, #164]	; (8007774 <pbuf_realloc+0xcc>)
 80076d0:	f004 f926 	bl	800b920 <iprintf>
 80076d4:	8926      	ldrh	r6, [r4, #8]
 80076d6:	42ae      	cmp	r6, r5
 80076d8:	d945      	bls.n	8007766 <pbuf_realloc+0xbe>
 80076da:	1bae      	subs	r6, r5, r6
 80076dc:	4f23      	ldr	r7, [pc, #140]	; (800776c <pbuf_realloc+0xc4>)
 80076de:	f8df 90a4 	ldr.w	r9, [pc, #164]	; 8007784 <pbuf_realloc+0xdc>
 80076e2:	f8df 8090 	ldr.w	r8, [pc, #144]	; 8007774 <pbuf_realloc+0xcc>
 80076e6:	8963      	ldrh	r3, [r4, #10]
 80076e8:	429d      	cmp	r5, r3
 80076ea:	d819      	bhi.n	8007720 <pbuf_realloc+0x78>
 80076ec:	7b22      	ldrb	r2, [r4, #12]
 80076ee:	2a00      	cmp	r2, #0
 80076f0:	d131      	bne.n	8007756 <pbuf_realloc+0xae>
 80076f2:	429d      	cmp	r5, r3
 80076f4:	d02f      	beq.n	8007756 <pbuf_realloc+0xae>
 80076f6:	7b63      	ldrb	r3, [r4, #13]
 80076f8:	079b      	lsls	r3, r3, #30
 80076fa:	d42c      	bmi.n	8007756 <pbuf_realloc+0xae>
 80076fc:	6861      	ldr	r1, [r4, #4]
 80076fe:	4620      	mov	r0, r4
 8007700:	1b09      	subs	r1, r1, r4
 8007702:	4429      	add	r1, r5
 8007704:	b289      	uxth	r1, r1
 8007706:	f7ff fb61 	bl	8006dcc <mem_trim>
 800770a:	4604      	mov	r4, r0
 800770c:	bb18      	cbnz	r0, 8007756 <pbuf_realloc+0xae>
 800770e:	4b17      	ldr	r3, [pc, #92]	; (800776c <pbuf_realloc+0xc4>)
 8007710:	f240 221d 	movw	r2, #541	; 0x21d
 8007714:	4919      	ldr	r1, [pc, #100]	; (800777c <pbuf_realloc+0xd4>)
 8007716:	4817      	ldr	r0, [pc, #92]	; (8007774 <pbuf_realloc+0xcc>)
 8007718:	f004 f902 	bl	800b920 <iprintf>
 800771c:	8164      	strh	r4, [r4, #10]
 800771e:	deff      	udf	#255	; 0xff
 8007720:	1aed      	subs	r5, r5, r3
 8007722:	f64f 73fe 	movw	r3, #65534	; 0xfffe
 8007726:	429e      	cmp	r6, r3
 8007728:	b2ad      	uxth	r5, r5
 800772a:	dd06      	ble.n	800773a <pbuf_realloc+0x92>
 800772c:	463b      	mov	r3, r7
 800772e:	f240 220b 	movw	r2, #523	; 0x20b
 8007732:	4649      	mov	r1, r9
 8007734:	4640      	mov	r0, r8
 8007736:	f004 f8f3 	bl	800b920 <iprintf>
 800773a:	8923      	ldrh	r3, [r4, #8]
 800773c:	4433      	add	r3, r6
 800773e:	8123      	strh	r3, [r4, #8]
 8007740:	6824      	ldr	r4, [r4, #0]
 8007742:	2c00      	cmp	r4, #0
 8007744:	d1cf      	bne.n	80076e6 <pbuf_realloc+0x3e>
 8007746:	463b      	mov	r3, r7
 8007748:	f240 220f 	movw	r2, #527	; 0x20f
 800774c:	490c      	ldr	r1, [pc, #48]	; (8007780 <pbuf_realloc+0xd8>)
 800774e:	4640      	mov	r0, r8
 8007750:	f004 f8e6 	bl	800b920 <iprintf>
 8007754:	e7c7      	b.n	80076e6 <pbuf_realloc+0x3e>
 8007756:	6820      	ldr	r0, [r4, #0]
 8007758:	8165      	strh	r5, [r4, #10]
 800775a:	8125      	strh	r5, [r4, #8]
 800775c:	b108      	cbz	r0, 8007762 <pbuf_realloc+0xba>
 800775e:	f7ff fe5d 	bl	800741c <pbuf_free>
 8007762:	2300      	movs	r3, #0
 8007764:	6023      	str	r3, [r4, #0]
 8007766:	e8bd 83f8 	ldmia.w	sp!, {r3, r4, r5, r6, r7, r8, r9, pc}
 800776a:	bf00      	nop
 800776c:	0800d169 	.word	0x0800d169
 8007770:	0800d1c5 	.word	0x0800d1c5
 8007774:	0800c6ba 	.word	0x0800c6ba
 8007778:	0800d1dd 	.word	0x0800d1dd
 800777c:	0800d221 	.word	0x0800d221
 8007780:	0800d209 	.word	0x0800d209
 8007784:	0800d1f8 	.word	0x0800d1f8

08007788 <pbuf_clen>:
 8007788:	4603      	mov	r3, r0
 800778a:	2200      	movs	r2, #0
 800778c:	b290      	uxth	r0, r2
 800778e:	3201      	adds	r2, #1
 8007790:	b903      	cbnz	r3, 8007794 <pbuf_clen+0xc>
 8007792:	4770      	bx	lr
 8007794:	681b      	ldr	r3, [r3, #0]
 8007796:	e7f9      	b.n	800778c <pbuf_clen+0x4>

08007798 <pbuf_ref>:
 8007798:	b510      	push	{r4, lr}
 800779a:	4604      	mov	r4, r0
 800779c:	b188      	cbz	r0, 80077c2 <pbuf_ref+0x2a>
 800779e:	f003 f8ad 	bl	800a8fc <sys_arch_protect>
 80077a2:	89e3      	ldrh	r3, [r4, #14]
 80077a4:	3301      	adds	r3, #1
 80077a6:	81e3      	strh	r3, [r4, #14]
 80077a8:	f003 f8b4 	bl	800a914 <sys_arch_unprotect>
 80077ac:	89e3      	ldrh	r3, [r4, #14]
 80077ae:	b943      	cbnz	r3, 80077c2 <pbuf_ref+0x2a>
 80077b0:	4b04      	ldr	r3, [pc, #16]	; (80077c4 <pbuf_ref+0x2c>)
 80077b2:	f240 3239 	movw	r2, #825	; 0x339
 80077b6:	4904      	ldr	r1, [pc, #16]	; (80077c8 <pbuf_ref+0x30>)
 80077b8:	4804      	ldr	r0, [pc, #16]	; (80077cc <pbuf_ref+0x34>)
 80077ba:	e8bd 4010 	ldmia.w	sp!, {r4, lr}
 80077be:	f004 b8af 	b.w	800b920 <iprintf>
 80077c2:	bd10      	pop	{r4, pc}
 80077c4:	0800d169 	.word	0x0800d169
 80077c8:	0800d23d 	.word	0x0800d23d
 80077cc:	0800c6ba 	.word	0x0800c6ba

080077d0 <pbuf_cat>:
 80077d0:	b570      	push	{r4, r5, r6, lr}
 80077d2:	460d      	mov	r5, r1
 80077d4:	4604      	mov	r4, r0
 80077d6:	b100      	cbz	r0, 80077da <pbuf_cat+0xa>
 80077d8:	b969      	cbnz	r1, 80077f6 <pbuf_cat+0x26>
 80077da:	4b15      	ldr	r3, [pc, #84]	; (8007830 <pbuf_cat+0x60>)
 80077dc:	f240 324d 	movw	r2, #845	; 0x34d
 80077e0:	4914      	ldr	r1, [pc, #80]	; (8007834 <pbuf_cat+0x64>)
 80077e2:	4815      	ldr	r0, [pc, #84]	; (8007838 <pbuf_cat+0x68>)
 80077e4:	e8bd 4070 	ldmia.w	sp!, {r4, r5, r6, lr}
 80077e8:	f004 b89a 	b.w	800b920 <iprintf>
 80077ec:	8923      	ldrh	r3, [r4, #8]
 80077ee:	8929      	ldrh	r1, [r5, #8]
 80077f0:	440b      	add	r3, r1
 80077f2:	8123      	strh	r3, [r4, #8]
 80077f4:	4614      	mov	r4, r2
 80077f6:	6822      	ldr	r2, [r4, #0]
 80077f8:	2a00      	cmp	r2, #0
 80077fa:	d1f7      	bne.n	80077ec <pbuf_cat+0x1c>
 80077fc:	8922      	ldrh	r2, [r4, #8]
 80077fe:	8963      	ldrh	r3, [r4, #10]
 8007800:	429a      	cmp	r2, r3
 8007802:	d006      	beq.n	8007812 <pbuf_cat+0x42>
 8007804:	4b0a      	ldr	r3, [pc, #40]	; (8007830 <pbuf_cat+0x60>)
 8007806:	f240 3255 	movw	r2, #853	; 0x355
 800780a:	490c      	ldr	r1, [pc, #48]	; (800783c <pbuf_cat+0x6c>)
 800780c:	480a      	ldr	r0, [pc, #40]	; (8007838 <pbuf_cat+0x68>)
 800780e:	f004 f887 	bl	800b920 <iprintf>
 8007812:	6823      	ldr	r3, [r4, #0]
 8007814:	b133      	cbz	r3, 8007824 <pbuf_cat+0x54>
 8007816:	4b06      	ldr	r3, [pc, #24]	; (8007830 <pbuf_cat+0x60>)
 8007818:	f240 3256 	movw	r2, #854	; 0x356
 800781c:	4908      	ldr	r1, [pc, #32]	; (8007840 <pbuf_cat+0x70>)
 800781e:	4806      	ldr	r0, [pc, #24]	; (8007838 <pbuf_cat+0x68>)
 8007820:	f004 f87e 	bl	800b920 <iprintf>
 8007824:	892a      	ldrh	r2, [r5, #8]
 8007826:	8923      	ldrh	r3, [r4, #8]
 8007828:	6025      	str	r5, [r4, #0]
 800782a:	4413      	add	r3, r2
 800782c:	8123      	strh	r3, [r4, #8]
 800782e:	bd70      	pop	{r4, r5, r6, pc}
 8007830:	0800d169 	.word	0x0800d169
 8007834:	0800cfd0 	.word	0x0800cfd0
 8007838:	0800c6ba 	.word	0x0800c6ba
 800783c:	0800d005 	.word	0x0800d005
 8007840:	0800d032 	.word	0x0800d032

08007844 <pbuf_copy>:
 8007844:	e92d 4ff8 	stmdb	sp!, {r3, r4, r5, r6, r7, r8, r9, sl, fp, lr}
 8007848:	460c      	mov	r4, r1
 800784a:	4605      	mov	r5, r0
 800784c:	b120      	cbz	r0, 8007858 <pbuf_copy+0x14>
 800784e:	b119      	cbz	r1, 8007858 <pbuf_copy+0x14>
 8007850:	8902      	ldrh	r2, [r0, #8]
 8007852:	890b      	ldrh	r3, [r1, #8]
 8007854:	429a      	cmp	r2, r3
 8007856:	d20a      	bcs.n	800786e <pbuf_copy+0x2a>
 8007858:	4b38      	ldr	r3, [pc, #224]	; (800793c <pbuf_copy+0xf8>)
 800785a:	f240 32bd 	movw	r2, #957	; 0x3bd
 800785e:	4938      	ldr	r1, [pc, #224]	; (8007940 <pbuf_copy+0xfc>)
 8007860:	4838      	ldr	r0, [pc, #224]	; (8007944 <pbuf_copy+0x100>)
 8007862:	f004 f85d 	bl	800b920 <iprintf>
 8007866:	f06f 000f 	mvn.w	r0, #15
 800786a:	e8bd 8ff8 	ldmia.w	sp!, {r3, r4, r5, r6, r7, r8, r9, sl, fp, pc}
 800786e:	f04f 0b00 	mov.w	fp, #0
 8007872:	f8df 80c8 	ldr.w	r8, [pc, #200]	; 800793c <pbuf_copy+0xf8>
 8007876:	f8df a0dc 	ldr.w	sl, [pc, #220]	; 8007954 <pbuf_copy+0x110>
 800787a:	465f      	mov	r7, fp
 800787c:	f8df 90c4 	ldr.w	r9, [pc, #196]	; 8007944 <pbuf_copy+0x100>
 8007880:	896e      	ldrh	r6, [r5, #10]
 8007882:	8963      	ldrh	r3, [r4, #10]
 8007884:	1bf6      	subs	r6, r6, r7
 8007886:	6868      	ldr	r0, [r5, #4]
 8007888:	eba3 030b 	sub.w	r3, r3, fp
 800788c:	6861      	ldr	r1, [r4, #4]
 800788e:	4438      	add	r0, r7
 8007890:	429e      	cmp	r6, r3
 8007892:	4459      	add	r1, fp
 8007894:	bfac      	ite	ge
 8007896:	b29e      	uxthge	r6, r3
 8007898:	b2b6      	uxthlt	r6, r6
 800789a:	4437      	add	r7, r6
 800789c:	4632      	mov	r2, r6
 800789e:	f003 ff80 	bl	800b7a2 <memcpy>
 80078a2:	896b      	ldrh	r3, [r5, #10]
 80078a4:	b2bf      	uxth	r7, r7
 80078a6:	445e      	add	r6, fp
 80078a8:	42bb      	cmp	r3, r7
 80078aa:	fa1f fb86 	uxth.w	fp, r6
 80078ae:	d206      	bcs.n	80078be <pbuf_copy+0x7a>
 80078b0:	4643      	mov	r3, r8
 80078b2:	f240 32cd 	movw	r2, #973	; 0x3cd
 80078b6:	4651      	mov	r1, sl
 80078b8:	4648      	mov	r0, r9
 80078ba:	f004 f831 	bl	800b920 <iprintf>
 80078be:	8963      	ldrh	r3, [r4, #10]
 80078c0:	455b      	cmp	r3, fp
 80078c2:	d206      	bcs.n	80078d2 <pbuf_copy+0x8e>
 80078c4:	4643      	mov	r3, r8
 80078c6:	f240 32ce 	movw	r2, #974	; 0x3ce
 80078ca:	491f      	ldr	r1, [pc, #124]	; (8007948 <pbuf_copy+0x104>)
 80078cc:	4648      	mov	r0, r9
 80078ce:	f004 f827 	bl	800b920 <iprintf>
 80078d2:	8963      	ldrh	r3, [r4, #10]
 80078d4:	455b      	cmp	r3, fp
 80078d6:	896b      	ldrh	r3, [r5, #10]
 80078d8:	bf9c      	itt	ls
 80078da:	6824      	ldrls	r4, [r4, #0]
 80078dc:	f04f 0b00 	movls.w	fp, #0
 80078e0:	42bb      	cmp	r3, r7
 80078e2:	d11e      	bne.n	8007922 <pbuf_copy+0xde>
 80078e4:	682d      	ldr	r5, [r5, #0]
 80078e6:	b9dd      	cbnz	r5, 8007920 <pbuf_copy+0xdc>
 80078e8:	b1bc      	cbz	r4, 800791a <pbuf_copy+0xd6>
 80078ea:	4b14      	ldr	r3, [pc, #80]	; (800793c <pbuf_copy+0xf8>)
 80078ec:	f44f 7276 	mov.w	r2, #984	; 0x3d8
 80078f0:	4916      	ldr	r1, [pc, #88]	; (800794c <pbuf_copy+0x108>)
 80078f2:	e7b5      	b.n	8007860 <pbuf_copy+0x1c>
 80078f4:	8962      	ldrh	r2, [r4, #10]
 80078f6:	8923      	ldrh	r3, [r4, #8]
 80078f8:	429a      	cmp	r2, r3
 80078fa:	d114      	bne.n	8007926 <pbuf_copy+0xe2>
 80078fc:	6823      	ldr	r3, [r4, #0]
 80078fe:	b193      	cbz	r3, 8007926 <pbuf_copy+0xe2>
 8007900:	4b0e      	ldr	r3, [pc, #56]	; (800793c <pbuf_copy+0xf8>)
 8007902:	f240 32de 	movw	r2, #990	; 0x3de
 8007906:	4912      	ldr	r1, [pc, #72]	; (8007950 <pbuf_copy+0x10c>)
 8007908:	480e      	ldr	r0, [pc, #56]	; (8007944 <pbuf_copy+0x100>)
 800790a:	f004 f809 	bl	800b920 <iprintf>
 800790e:	f06f 0005 	mvn.w	r0, #5
 8007912:	e8bd 8ff8 	ldmia.w	sp!, {r3, r4, r5, r6, r7, r8, r9, sl, fp, pc}
 8007916:	2c00      	cmp	r4, #0
 8007918:	d1b2      	bne.n	8007880 <pbuf_copy+0x3c>
 800791a:	4620      	mov	r0, r4
 800791c:	e8bd 8ff8 	ldmia.w	sp!, {r3, r4, r5, r6, r7, r8, r9, sl, fp, pc}
 8007920:	2700      	movs	r7, #0
 8007922:	2c00      	cmp	r4, #0
 8007924:	d1e6      	bne.n	80078f4 <pbuf_copy+0xb0>
 8007926:	896a      	ldrh	r2, [r5, #10]
 8007928:	892b      	ldrh	r3, [r5, #8]
 800792a:	429a      	cmp	r2, r3
 800792c:	d1f3      	bne.n	8007916 <pbuf_copy+0xd2>
 800792e:	682b      	ldr	r3, [r5, #0]
 8007930:	2b00      	cmp	r3, #0
 8007932:	d0f0      	beq.n	8007916 <pbuf_copy+0xd2>
 8007934:	4b01      	ldr	r3, [pc, #4]	; (800793c <pbuf_copy+0xf8>)
 8007936:	f240 32e3 	movw	r2, #995	; 0x3e3
 800793a:	e7e4      	b.n	8007906 <pbuf_copy+0xc2>
 800793c:	0800d169 	.word	0x0800d169
 8007940:	0800d042 	.word	0x0800d042
 8007944:	0800c6ba 	.word	0x0800c6ba
 8007948:	0800d089 	.word	0x0800d089
 800794c:	0800d0a4 	.word	0x0800d0a4
 8007950:	0800d0b1 	.word	0x0800d0b1
 8007954:	0800d072 	.word	0x0800d072

08007958 <pbuf_copy_partial>:
 8007958:	e92d 41f0 	stmdb	sp!, {r4, r5, r6, r7, r8, lr}
 800795c:	460f      	mov	r7, r1
 800795e:	4690      	mov	r8, r2
 8007960:	4606      	mov	r6, r0
 8007962:	b950      	cbnz	r0, 800797a <pbuf_copy_partial+0x22>
 8007964:	4635      	mov	r5, r6
 8007966:	4b1b      	ldr	r3, [pc, #108]	; (80079d4 <pbuf_copy_partial+0x7c>)
 8007968:	f240 32fe 	movw	r2, #1022	; 0x3fe
 800796c:	491a      	ldr	r1, [pc, #104]	; (80079d8 <pbuf_copy_partial+0x80>)
 800796e:	481b      	ldr	r0, [pc, #108]	; (80079dc <pbuf_copy_partial+0x84>)
 8007970:	f003 ffd6 	bl	800b920 <iprintf>
 8007974:	4628      	mov	r0, r5
 8007976:	e8bd 81f0 	ldmia.w	sp!, {r4, r5, r6, r7, r8, pc}
 800797a:	b169      	cbz	r1, 8007998 <pbuf_copy_partial+0x40>
 800797c:	2500      	movs	r5, #0
 800797e:	f1b8 0f00 	cmp.w	r8, #0
 8007982:	d0f7      	beq.n	8007974 <pbuf_copy_partial+0x1c>
 8007984:	2e00      	cmp	r6, #0
 8007986:	d0f5      	beq.n	8007974 <pbuf_copy_partial+0x1c>
 8007988:	b17b      	cbz	r3, 80079aa <pbuf_copy_partial+0x52>
 800798a:	8971      	ldrh	r1, [r6, #10]
 800798c:	428b      	cmp	r3, r1
 800798e:	d30c      	bcc.n	80079aa <pbuf_copy_partial+0x52>
 8007990:	1a5b      	subs	r3, r3, r1
 8007992:	b29b      	uxth	r3, r3
 8007994:	6836      	ldr	r6, [r6, #0]
 8007996:	e7f2      	b.n	800797e <pbuf_copy_partial+0x26>
 8007998:	4b0e      	ldr	r3, [pc, #56]	; (80079d4 <pbuf_copy_partial+0x7c>)
 800799a:	f240 32ff 	movw	r2, #1023	; 0x3ff
 800799e:	4910      	ldr	r1, [pc, #64]	; (80079e0 <pbuf_copy_partial+0x88>)
 80079a0:	463d      	mov	r5, r7
 80079a2:	480e      	ldr	r0, [pc, #56]	; (80079dc <pbuf_copy_partial+0x84>)
 80079a4:	f003 ffbc 	bl	800b920 <iprintf>
 80079a8:	e7e4      	b.n	8007974 <pbuf_copy_partial+0x1c>
 80079aa:	8974      	ldrh	r4, [r6, #10]
 80079ac:	1978      	adds	r0, r7, r5
 80079ae:	6871      	ldr	r1, [r6, #4]
 80079b0:	1ae4      	subs	r4, r4, r3
 80079b2:	4419      	add	r1, r3
 80079b4:	b2a4      	uxth	r4, r4
 80079b6:	4544      	cmp	r4, r8
 80079b8:	bf28      	it	cs
 80079ba:	4644      	movcs	r4, r8
 80079bc:	4622      	mov	r2, r4
 80079be:	4425      	add	r5, r4
 80079c0:	eba8 0404 	sub.w	r4, r8, r4
 80079c4:	f003 feed 	bl	800b7a2 <memcpy>
 80079c8:	b2ad      	uxth	r5, r5
 80079ca:	2300      	movs	r3, #0
 80079cc:	fa1f f884 	uxth.w	r8, r4
 80079d0:	e7e0      	b.n	8007994 <pbuf_copy_partial+0x3c>
 80079d2:	bf00      	nop
 80079d4:	0800d169 	.word	0x0800d169
 80079d8:	0800d0db 	.word	0x0800d0db
 80079dc:	0800c6ba 	.word	0x0800c6ba
 80079e0:	0800d0fa 	.word	0x0800d0fa

080079e4 <tcp_close_shutdown_fin>:
 80079e4:	b510      	push	{r4, lr}
 80079e6:	4604      	mov	r4, r0
 80079e8:	b930      	cbnz	r0, 80079f8 <tcp_close_shutdown_fin+0x14>
 80079ea:	4b13      	ldr	r3, [pc, #76]	; (8007a38 <tcp_close_shutdown_fin+0x54>)
 80079ec:	f240 124d 	movw	r2, #333	; 0x14d
 80079f0:	4912      	ldr	r1, [pc, #72]	; (8007a3c <tcp_close_shutdown_fin+0x58>)
 80079f2:	4813      	ldr	r0, [pc, #76]	; (8007a40 <tcp_close_shutdown_fin+0x5c>)
 80079f4:	f003 ff94 	bl	800b920 <iprintf>
 80079f8:	7d23      	ldrb	r3, [r4, #20]
 80079fa:	2b04      	cmp	r3, #4
 80079fc:	d003      	beq.n	8007a06 <tcp_close_shutdown_fin+0x22>
 80079fe:	2b07      	cmp	r3, #7
 8007a00:	d00c      	beq.n	8007a1c <tcp_close_shutdown_fin+0x38>
 8007a02:	2b03      	cmp	r3, #3
 8007a04:	d108      	bne.n	8007a18 <tcp_close_shutdown_fin+0x34>
 8007a06:	4620      	mov	r0, r4
 8007a08:	f002 f998 	bl	8009d3c <tcp_send_fin>
 8007a0c:	b988      	cbnz	r0, 8007a32 <tcp_close_shutdown_fin+0x4e>
 8007a0e:	2305      	movs	r3, #5
 8007a10:	7523      	strb	r3, [r4, #20]
 8007a12:	4620      	mov	r0, r4
 8007a14:	f002 f9ea 	bl	8009dec <tcp_output>
 8007a18:	2000      	movs	r0, #0
 8007a1a:	bd10      	pop	{r4, pc}
 8007a1c:	4620      	mov	r0, r4
 8007a1e:	f002 f98d 	bl	8009d3c <tcp_send_fin>
 8007a22:	b930      	cbnz	r0, 8007a32 <tcp_close_shutdown_fin+0x4e>
 8007a24:	2309      	movs	r3, #9
 8007a26:	e7f3      	b.n	8007a10 <tcp_close_shutdown_fin+0x2c>
 8007a28:	7ea3      	ldrb	r3, [r4, #26]
 8007a2a:	f043 0308 	orr.w	r3, r3, #8
 8007a2e:	76a3      	strb	r3, [r4, #26]
 8007a30:	e7f2      	b.n	8007a18 <tcp_close_shutdown_fin+0x34>
 8007a32:	1c43      	adds	r3, r0, #1
 8007a34:	d0f8      	beq.n	8007a28 <tcp_close_shutdown_fin+0x44>
 8007a36:	bd10      	pop	{r4, pc}
 8007a38:	0800d2a6 	.word	0x0800d2a6
 8007a3c:	0800d2d5 	.word	0x0800d2d5
 8007a40:	0800c6ba 	.word	0x0800c6ba

08007a44 <tcp_init>:
 8007a44:	4770      	bx	lr
	...

08007a48 <tcp_update_rcv_ann_wnd>:
 8007a48:	b538      	push	{r3, r4, r5, lr}
 8007a4a:	8d01      	ldrh	r1, [r0, #40]	; 0x28
 8007a4c:	4604      	mov	r4, r0
 8007a4e:	6ac3      	ldr	r3, [r0, #44]	; 0x2c
 8007a50:	8e62      	ldrh	r2, [r4, #50]	; 0x32
 8007a52:	6a45      	ldr	r5, [r0, #36]	; 0x24
 8007a54:	1ac8      	subs	r0, r1, r3
 8007a56:	f5b2 6f86 	cmp.w	r2, #1072	; 0x430
 8007a5a:	4428      	add	r0, r5
 8007a5c:	bf94      	ite	ls
 8007a5e:	1a82      	subls	r2, r0, r2
 8007a60:	f5a0 6286 	subhi.w	r2, r0, #1072	; 0x430
 8007a64:	2a00      	cmp	r2, #0
 8007a66:	db01      	blt.n	8007a6c <tcp_update_rcv_ann_wnd+0x24>
 8007a68:	8561      	strh	r1, [r4, #42]	; 0x2a
 8007a6a:	bd38      	pop	{r3, r4, r5, pc}
 8007a6c:	1aea      	subs	r2, r5, r3
 8007a6e:	2a00      	cmp	r2, #0
 8007a70:	dd02      	ble.n	8007a78 <tcp_update_rcv_ann_wnd+0x30>
 8007a72:	2000      	movs	r0, #0
 8007a74:	8560      	strh	r0, [r4, #42]	; 0x2a
 8007a76:	bd38      	pop	{r3, r4, r5, pc}
 8007a78:	1b5d      	subs	r5, r3, r5
 8007a7a:	f5b5 3f80 	cmp.w	r5, #65536	; 0x10000
 8007a7e:	d306      	bcc.n	8007a8e <tcp_update_rcv_ann_wnd+0x46>
 8007a80:	4b04      	ldr	r3, [pc, #16]	; (8007a94 <tcp_update_rcv_ann_wnd+0x4c>)
 8007a82:	f44f 7242 	mov.w	r2, #776	; 0x308
 8007a86:	4904      	ldr	r1, [pc, #16]	; (8007a98 <tcp_update_rcv_ann_wnd+0x50>)
 8007a88:	4804      	ldr	r0, [pc, #16]	; (8007a9c <tcp_update_rcv_ann_wnd+0x54>)
 8007a8a:	f003 ff49 	bl	800b920 <iprintf>
 8007a8e:	8565      	strh	r5, [r4, #42]	; 0x2a
 8007a90:	2000      	movs	r0, #0
 8007a92:	bd38      	pop	{r3, r4, r5, pc}
 8007a94:	0800d2a6 	.word	0x0800d2a6
 8007a98:	0800d4e8 	.word	0x0800d4e8
 8007a9c:	0800c6ba 	.word	0x0800c6ba

08007aa0 <tcp_recved>:
 8007aa0:	b538      	push	{r3, r4, r5, lr}
 8007aa2:	7d03      	ldrb	r3, [r0, #20]
 8007aa4:	4604      	mov	r4, r0
 8007aa6:	460d      	mov	r5, r1
 8007aa8:	2b01      	cmp	r3, #1
 8007aaa:	d106      	bne.n	8007aba <tcp_recved+0x1a>
 8007aac:	4b17      	ldr	r3, [pc, #92]	; (8007b0c <tcp_recved+0x6c>)
 8007aae:	f44f 7248 	mov.w	r2, #800	; 0x320
 8007ab2:	4917      	ldr	r1, [pc, #92]	; (8007b10 <tcp_recved+0x70>)
 8007ab4:	4817      	ldr	r0, [pc, #92]	; (8007b14 <tcp_recved+0x74>)
 8007ab6:	f003 ff33 	bl	800b920 <iprintf>
 8007aba:	8d21      	ldrh	r1, [r4, #40]	; 0x28
 8007abc:	4429      	add	r1, r5
 8007abe:	b289      	uxth	r1, r1
 8007ac0:	f5b1 6f06 	cmp.w	r1, #2144	; 0x860
 8007ac4:	8521      	strh	r1, [r4, #40]	; 0x28
 8007ac6:	d911      	bls.n	8007aec <tcp_recved+0x4c>
 8007ac8:	f44f 6306 	mov.w	r3, #2144	; 0x860
 8007acc:	8523      	strh	r3, [r4, #40]	; 0x28
 8007ace:	4620      	mov	r0, r4
 8007ad0:	f7ff ffba 	bl	8007a48 <tcp_update_rcv_ann_wnd>
 8007ad4:	f5b0 7f06 	cmp.w	r0, #536	; 0x218
 8007ad8:	db17      	blt.n	8007b0a <tcp_recved+0x6a>
 8007ada:	7ea3      	ldrb	r3, [r4, #26]
 8007adc:	4620      	mov	r0, r4
 8007ade:	f043 0302 	orr.w	r3, r3, #2
 8007ae2:	76a3      	strb	r3, [r4, #26]
 8007ae4:	e8bd 4038 	ldmia.w	sp!, {r3, r4, r5, lr}
 8007ae8:	f002 b980 	b.w	8009dec <tcp_output>
 8007aec:	2900      	cmp	r1, #0
 8007aee:	d1ee      	bne.n	8007ace <tcp_recved+0x2e>
 8007af0:	7d23      	ldrb	r3, [r4, #20]
 8007af2:	2b07      	cmp	r3, #7
 8007af4:	d0e8      	beq.n	8007ac8 <tcp_recved+0x28>
 8007af6:	2b09      	cmp	r3, #9
 8007af8:	d0e6      	beq.n	8007ac8 <tcp_recved+0x28>
 8007afa:	4b04      	ldr	r3, [pc, #16]	; (8007b0c <tcp_recved+0x6c>)
 8007afc:	f240 322d 	movw	r2, #813	; 0x32d
 8007b00:	4905      	ldr	r1, [pc, #20]	; (8007b18 <tcp_recved+0x78>)
 8007b02:	4804      	ldr	r0, [pc, #16]	; (8007b14 <tcp_recved+0x74>)
 8007b04:	f003 ff0c 	bl	800b920 <iprintf>
 8007b08:	e7e1      	b.n	8007ace <tcp_recved+0x2e>
 8007b0a:	bd38      	pop	{r3, r4, r5, pc}
 8007b0c:	0800d2a6 	.word	0x0800d2a6
 8007b10:	0800d34f 	.word	0x0800d34f
 8007b14:	0800c6ba 	.word	0x0800c6ba
 8007b18:	0800d375 	.word	0x0800d375

08007b1c <tcp_seg_free>:
 8007b1c:	b510      	push	{r4, lr}
 8007b1e:	4604      	mov	r4, r0
 8007b20:	b148      	cbz	r0, 8007b36 <tcp_seg_free+0x1a>
 8007b22:	6840      	ldr	r0, [r0, #4]
 8007b24:	b108      	cbz	r0, 8007b2a <tcp_seg_free+0xe>
 8007b26:	f7ff fc79 	bl	800741c <pbuf_free>
 8007b2a:	4621      	mov	r1, r4
 8007b2c:	2003      	movs	r0, #3
 8007b2e:	e8bd 4010 	ldmia.w	sp!, {r4, lr}
 8007b32:	f7ff baed 	b.w	8007110 <memp_free>
 8007b36:	bd10      	pop	{r4, pc}

08007b38 <tcp_segs_free>:
 8007b38:	b510      	push	{r4, lr}
 8007b3a:	b900      	cbnz	r0, 8007b3e <tcp_segs_free+0x6>
 8007b3c:	bd10      	pop	{r4, pc}
 8007b3e:	6804      	ldr	r4, [r0, #0]
 8007b40:	f7ff ffec 	bl	8007b1c <tcp_seg_free>
 8007b44:	4620      	mov	r0, r4
 8007b46:	e7f8      	b.n	8007b3a <tcp_segs_free+0x2>

08007b48 <tcp_seg_copy>:
 8007b48:	b538      	push	{r3, r4, r5, lr}
 8007b4a:	4604      	mov	r4, r0
 8007b4c:	2003      	movs	r0, #3
 8007b4e:	f7ff fac3 	bl	80070d8 <memp_malloc>
 8007b52:	4605      	mov	r5, r0
 8007b54:	b160      	cbz	r0, 8007b70 <tcp_seg_copy+0x28>
 8007b56:	4620      	mov	r0, r4
 8007b58:	462b      	mov	r3, r5
 8007b5a:	f104 0210 	add.w	r2, r4, #16
 8007b5e:	f850 1b04 	ldr.w	r1, [r0], #4
 8007b62:	4290      	cmp	r0, r2
 8007b64:	f843 1b04 	str.w	r1, [r3], #4
 8007b68:	d1f9      	bne.n	8007b5e <tcp_seg_copy+0x16>
 8007b6a:	6868      	ldr	r0, [r5, #4]
 8007b6c:	f7ff fe14 	bl	8007798 <pbuf_ref>
 8007b70:	4628      	mov	r0, r5
 8007b72:	bd38      	pop	{r3, r4, r5, pc}

08007b74 <tcp_pcb_purge>:
 8007b74:	b538      	push	{r3, r4, r5, lr}
 8007b76:	7d03      	ldrb	r3, [r0, #20]
 8007b78:	4604      	mov	r4, r0
 8007b7a:	2b01      	cmp	r3, #1
 8007b7c:	d919      	bls.n	8007bb2 <tcp_pcb_purge+0x3e>
 8007b7e:	2b0a      	cmp	r3, #10
 8007b80:	d017      	beq.n	8007bb2 <tcp_pcb_purge+0x3e>
 8007b82:	6f40      	ldr	r0, [r0, #116]	; 0x74
 8007b84:	b118      	cbz	r0, 8007b8e <tcp_pcb_purge+0x1a>
 8007b86:	f7ff fc49 	bl	800741c <pbuf_free>
 8007b8a:	2300      	movs	r3, #0
 8007b8c:	6763      	str	r3, [r4, #116]	; 0x74
 8007b8e:	6f20      	ldr	r0, [r4, #112]	; 0x70
 8007b90:	2500      	movs	r5, #0
 8007b92:	f7ff ffd1 	bl	8007b38 <tcp_segs_free>
 8007b96:	f64f 73ff 	movw	r3, #65535	; 0xffff
 8007b9a:	6ea0      	ldr	r0, [r4, #104]	; 0x68
 8007b9c:	8623      	strh	r3, [r4, #48]	; 0x30
 8007b9e:	6725      	str	r5, [r4, #112]	; 0x70
 8007ba0:	f7ff ffca 	bl	8007b38 <tcp_segs_free>
 8007ba4:	6ee0      	ldr	r0, [r4, #108]	; 0x6c
 8007ba6:	f7ff ffc7 	bl	8007b38 <tcp_segs_free>
 8007baa:	66a5      	str	r5, [r4, #104]	; 0x68
 8007bac:	66e5      	str	r5, [r4, #108]	; 0x6c
 8007bae:	f8a4 5064 	strh.w	r5, [r4, #100]	; 0x64
 8007bb2:	bd38      	pop	{r3, r4, r5, pc}

08007bb4 <tcp_slowtmr>:
 8007bb4:	e92d 4ff0 	stmdb	sp!, {r4, r5, r6, r7, r8, r9, sl, fp, lr}
 8007bb8:	4eb0      	ldr	r6, [pc, #704]	; (8007e7c <tcp_slowtmr+0x2c8>)
 8007bba:	b085      	sub	sp, #20
 8007bbc:	f8df a2f0 	ldr.w	sl, [pc, #752]	; 8007eb0 <tcp_slowtmr+0x2fc>
 8007bc0:	6833      	ldr	r3, [r6, #0]
 8007bc2:	3301      	adds	r3, #1
 8007bc4:	6033      	str	r3, [r6, #0]
 8007bc6:	4bae      	ldr	r3, [pc, #696]	; (8007e80 <tcp_slowtmr+0x2cc>)
 8007bc8:	781a      	ldrb	r2, [r3, #0]
 8007bca:	9302      	str	r3, [sp, #8]
 8007bcc:	3201      	adds	r2, #1
 8007bce:	701a      	strb	r2, [r3, #0]
 8007bd0:	4fac      	ldr	r7, [pc, #688]	; (8007e84 <tcp_slowtmr+0x2d0>)
 8007bd2:	f04f 0800 	mov.w	r8, #0
 8007bd6:	f8df 92dc 	ldr.w	r9, [pc, #732]	; 8007eb4 <tcp_slowtmr+0x300>
 8007bda:	683c      	ldr	r4, [r7, #0]
 8007bdc:	b96c      	cbnz	r4, 8007bfa <tcp_slowtmr+0x46>
 8007bde:	4faa      	ldr	r7, [pc, #680]	; (8007e88 <tcp_slowtmr+0x2d4>)
 8007be0:	f8df 82d0 	ldr.w	r8, [pc, #720]	; 8007eb4 <tcp_slowtmr+0x300>
 8007be4:	683d      	ldr	r5, [r7, #0]
 8007be6:	f8df a2d0 	ldr.w	sl, [pc, #720]	; 8007eb8 <tcp_slowtmr+0x304>
 8007bea:	f8df 92a4 	ldr.w	r9, [pc, #676]	; 8007e90 <tcp_slowtmr+0x2dc>
 8007bee:	2d00      	cmp	r5, #0
 8007bf0:	f040 8185 	bne.w	8007efe <tcp_slowtmr+0x34a>
 8007bf4:	b005      	add	sp, #20
 8007bf6:	e8bd 8ff0 	ldmia.w	sp!, {r4, r5, r6, r7, r8, r9, sl, fp, pc}
 8007bfa:	7d23      	ldrb	r3, [r4, #20]
 8007bfc:	b933      	cbnz	r3, 8007c0c <tcp_slowtmr+0x58>
 8007bfe:	464b      	mov	r3, r9
 8007c00:	f44f 727c 	mov.w	r2, #1008	; 0x3f0
 8007c04:	49a1      	ldr	r1, [pc, #644]	; (8007e8c <tcp_slowtmr+0x2d8>)
 8007c06:	48a2      	ldr	r0, [pc, #648]	; (8007e90 <tcp_slowtmr+0x2dc>)
 8007c08:	f003 fe8a 	bl	800b920 <iprintf>
 8007c0c:	7d23      	ldrb	r3, [r4, #20]
 8007c0e:	2b01      	cmp	r3, #1
 8007c10:	d106      	bne.n	8007c20 <tcp_slowtmr+0x6c>
 8007c12:	464b      	mov	r3, r9
 8007c14:	f240 32f1 	movw	r2, #1009	; 0x3f1
 8007c18:	499e      	ldr	r1, [pc, #632]	; (8007e94 <tcp_slowtmr+0x2e0>)
 8007c1a:	489d      	ldr	r0, [pc, #628]	; (8007e90 <tcp_slowtmr+0x2dc>)
 8007c1c:	f003 fe80 	bl	800b920 <iprintf>
 8007c20:	7d23      	ldrb	r3, [r4, #20]
 8007c22:	2b0a      	cmp	r3, #10
 8007c24:	d106      	bne.n	8007c34 <tcp_slowtmr+0x80>
 8007c26:	464b      	mov	r3, r9
 8007c28:	f240 32f2 	movw	r2, #1010	; 0x3f2
 8007c2c:	499a      	ldr	r1, [pc, #616]	; (8007e98 <tcp_slowtmr+0x2e4>)
 8007c2e:	4898      	ldr	r0, [pc, #608]	; (8007e90 <tcp_slowtmr+0x2dc>)
 8007c30:	f003 fe76 	bl	800b920 <iprintf>
 8007c34:	9b02      	ldr	r3, [sp, #8]
 8007c36:	7f62      	ldrb	r2, [r4, #29]
 8007c38:	781b      	ldrb	r3, [r3, #0]
 8007c3a:	429a      	cmp	r2, r3
 8007c3c:	d104      	bne.n	8007c48 <tcp_slowtmr+0x94>
 8007c3e:	68e5      	ldr	r5, [r4, #12]
 8007c40:	4644      	mov	r4, r8
 8007c42:	46a0      	mov	r8, r4
 8007c44:	462c      	mov	r4, r5
 8007c46:	e7c9      	b.n	8007bdc <tcp_slowtmr+0x28>
 8007c48:	7d21      	ldrb	r1, [r4, #20]
 8007c4a:	7763      	strb	r3, [r4, #29]
 8007c4c:	2902      	cmp	r1, #2
 8007c4e:	f894 2042 	ldrb.w	r2, [r4, #66]	; 0x42
 8007c52:	d102      	bne.n	8007c5a <tcp_slowtmr+0xa6>
 8007c54:	2a05      	cmp	r2, #5
 8007c56:	f200 80e6 	bhi.w	8007e26 <tcp_slowtmr+0x272>
 8007c5a:	2a0b      	cmp	r2, #11
 8007c5c:	f200 80e3 	bhi.w	8007e26 <tcp_slowtmr+0x272>
 8007c60:	f894 b095 	ldrb.w	fp, [r4, #149]	; 0x95
 8007c64:	f1bb 0f00 	cmp.w	fp, #0
 8007c68:	f000 80a6 	beq.w	8007db8 <tcp_slowtmr+0x204>
 8007c6c:	488b      	ldr	r0, [pc, #556]	; (8007e9c <tcp_slowtmr+0x2e8>)
 8007c6e:	f894 3094 	ldrb.w	r3, [r4, #148]	; 0x94
 8007c72:	4483      	add	fp, r0
 8007c74:	f81b 2c01 	ldrb.w	r2, [fp, #-1]
 8007c78:	429a      	cmp	r2, r3
 8007c7a:	bf84      	itt	hi
 8007c7c:	3301      	addhi	r3, #1
 8007c7e:	f884 3094 	strbhi.w	r3, [r4, #148]	; 0x94
 8007c82:	f894 3094 	ldrb.w	r3, [r4, #148]	; 0x94
 8007c86:	4293      	cmp	r3, r2
 8007c88:	f080 8085 	bcs.w	8007d96 <tcp_slowtmr+0x1e2>
 8007c8c:	f04f 0b00 	mov.w	fp, #0
 8007c90:	7d23      	ldrb	r3, [r4, #20]
 8007c92:	2b06      	cmp	r3, #6
 8007c94:	d10b      	bne.n	8007cae <tcp_slowtmr+0xfa>
 8007c96:	7ea2      	ldrb	r2, [r4, #26]
 8007c98:	06d2      	lsls	r2, r2, #27
 8007c9a:	d508      	bpl.n	8007cae <tcp_slowtmr+0xfa>
 8007c9c:	6832      	ldr	r2, [r6, #0]
 8007c9e:	6a21      	ldr	r1, [r4, #32]
 8007ca0:	1a52      	subs	r2, r2, r1
 8007ca2:	2a28      	cmp	r2, #40	; 0x28
 8007ca4:	bf84      	itt	hi
 8007ca6:	f10b 0b01 	addhi.w	fp, fp, #1
 8007caa:	fa5f fb8b 	uxtbhi.w	fp, fp
 8007cae:	7a25      	ldrb	r5, [r4, #8]
 8007cb0:	f015 0508 	ands.w	r5, r5, #8
 8007cb4:	d019      	beq.n	8007cea <tcp_slowtmr+0x136>
 8007cb6:	2b04      	cmp	r3, #4
 8007cb8:	d002      	beq.n	8007cc0 <tcp_slowtmr+0x10c>
 8007cba:	2b07      	cmp	r3, #7
 8007cbc:	f040 80c8 	bne.w	8007e50 <tcp_slowtmr+0x29c>
 8007cc0:	f8d4 5090 	ldr.w	r5, [r4, #144]	; 0x90
 8007cc4:	f44f 70fa 	mov.w	r0, #500	; 0x1f4
 8007cc8:	6831      	ldr	r1, [r6, #0]
 8007cca:	f505 2224 	add.w	r2, r5, #671744	; 0xa4000
 8007cce:	6a23      	ldr	r3, [r4, #32]
 8007cd0:	f602 42b8 	addw	r2, r2, #3256	; 0xcb8
 8007cd4:	1ac9      	subs	r1, r1, r3
 8007cd6:	fbb2 f2f0 	udiv	r2, r2, r0
 8007cda:	4291      	cmp	r1, r2
 8007cdc:	f240 80a6 	bls.w	8007e2c <tcp_slowtmr+0x278>
 8007ce0:	f10b 0b01 	add.w	fp, fp, #1
 8007ce4:	2501      	movs	r5, #1
 8007ce6:	fa5f fb8b 	uxtb.w	fp, fp
 8007cea:	6f20      	ldr	r0, [r4, #112]	; 0x70
 8007cec:	b168      	cbz	r0, 8007d0a <tcp_slowtmr+0x156>
 8007cee:	6833      	ldr	r3, [r6, #0]
 8007cf0:	6a22      	ldr	r2, [r4, #32]
 8007cf2:	1a9a      	subs	r2, r3, r2
 8007cf4:	f9b4 3040 	ldrsh.w	r3, [r4, #64]	; 0x40
 8007cf8:	eb03 0343 	add.w	r3, r3, r3, lsl #1
 8007cfc:	ebb2 0f43 	cmp.w	r2, r3, lsl #1
 8007d00:	d303      	bcc.n	8007d0a <tcp_slowtmr+0x156>
 8007d02:	f7ff ff19 	bl	8007b38 <tcp_segs_free>
 8007d06:	2300      	movs	r3, #0
 8007d08:	6723      	str	r3, [r4, #112]	; 0x70
 8007d0a:	7d23      	ldrb	r3, [r4, #20]
 8007d0c:	2b03      	cmp	r3, #3
 8007d0e:	f040 80a1 	bne.w	8007e54 <tcp_slowtmr+0x2a0>
 8007d12:	6833      	ldr	r3, [r6, #0]
 8007d14:	6a22      	ldr	r2, [r4, #32]
 8007d16:	1a9b      	subs	r3, r3, r2
 8007d18:	2b28      	cmp	r3, #40	; 0x28
 8007d1a:	d803      	bhi.n	8007d24 <tcp_slowtmr+0x170>
 8007d1c:	f1bb 0f00 	cmp.w	fp, #0
 8007d20:	f000 80cc 	beq.w	8007ebc <tcp_slowtmr+0x308>
 8007d24:	4620      	mov	r0, r4
 8007d26:	f8d4 b08c 	ldr.w	fp, [r4, #140]	; 0x8c
 8007d2a:	f7ff ff23 	bl	8007b74 <tcp_pcb_purge>
 8007d2e:	683b      	ldr	r3, [r7, #0]
 8007d30:	f1b8 0f00 	cmp.w	r8, #0
 8007d34:	f000 8096 	beq.w	8007e64 <tcp_slowtmr+0x2b0>
 8007d38:	429c      	cmp	r4, r3
 8007d3a:	d106      	bne.n	8007d4a <tcp_slowtmr+0x196>
 8007d3c:	464b      	mov	r3, r9
 8007d3e:	f240 4289 	movw	r2, #1161	; 0x489
 8007d42:	4957      	ldr	r1, [pc, #348]	; (8007ea0 <tcp_slowtmr+0x2ec>)
 8007d44:	4852      	ldr	r0, [pc, #328]	; (8007e90 <tcp_slowtmr+0x2dc>)
 8007d46:	f003 fdeb 	bl	800b920 <iprintf>
 8007d4a:	68e3      	ldr	r3, [r4, #12]
 8007d4c:	f8c8 300c 	str.w	r3, [r8, #12]
 8007d50:	b14d      	cbz	r5, 8007d66 <tcp_slowtmr+0x1b2>
 8007d52:	8b23      	ldrh	r3, [r4, #24]
 8007d54:	4622      	mov	r2, r4
 8007d56:	9301      	str	r3, [sp, #4]
 8007d58:	8ae3      	ldrh	r3, [r4, #22]
 8007d5a:	9300      	str	r3, [sp, #0]
 8007d5c:	1d23      	adds	r3, r4, #4
 8007d5e:	6a61      	ldr	r1, [r4, #36]	; 0x24
 8007d60:	6ce0      	ldr	r0, [r4, #76]	; 0x4c
 8007d62:	f002 f9c1 	bl	800a0e8 <tcp_rst>
 8007d66:	6923      	ldr	r3, [r4, #16]
 8007d68:	4621      	mov	r1, r4
 8007d6a:	2001      	movs	r0, #1
 8007d6c:	68e5      	ldr	r5, [r4, #12]
 8007d6e:	9303      	str	r3, [sp, #12]
 8007d70:	f7ff f9ce 	bl	8007110 <memp_free>
 8007d74:	2200      	movs	r2, #0
 8007d76:	f88a 2000 	strb.w	r2, [sl]
 8007d7a:	f1bb 0f00 	cmp.w	fp, #0
 8007d7e:	d004      	beq.n	8007d8a <tcp_slowtmr+0x1d6>
 8007d80:	9b03      	ldr	r3, [sp, #12]
 8007d82:	f06f 010c 	mvn.w	r1, #12
 8007d86:	4618      	mov	r0, r3
 8007d88:	47d8      	blx	fp
 8007d8a:	f89a 3000 	ldrb.w	r3, [sl]
 8007d8e:	2b00      	cmp	r3, #0
 8007d90:	f43f af56 	beq.w	8007c40 <tcp_slowtmr+0x8c>
 8007d94:	e71c      	b.n	8007bd0 <tcp_slowtmr+0x1c>
 8007d96:	4620      	mov	r0, r4
 8007d98:	f002 fa96 	bl	800a2c8 <tcp_zero_window_probe>
 8007d9c:	2800      	cmp	r0, #0
 8007d9e:	f47f af75 	bne.w	8007c8c <tcp_slowtmr+0xd8>
 8007da2:	f894 3095 	ldrb.w	r3, [r4, #149]	; 0x95
 8007da6:	f884 0094 	strb.w	r0, [r4, #148]	; 0x94
 8007daa:	2b06      	cmp	r3, #6
 8007dac:	f63f af6e 	bhi.w	8007c8c <tcp_slowtmr+0xd8>
 8007db0:	3301      	adds	r3, #1
 8007db2:	f884 3095 	strb.w	r3, [r4, #149]	; 0x95
 8007db6:	e769      	b.n	8007c8c <tcp_slowtmr+0xd8>
 8007db8:	f9b4 3030 	ldrsh.w	r3, [r4, #48]	; 0x30
 8007dbc:	2b00      	cmp	r3, #0
 8007dbe:	bfa4      	itt	ge
 8007dc0:	3301      	addge	r3, #1
 8007dc2:	8623      	strhge	r3, [r4, #48]	; 0x30
 8007dc4:	6ee3      	ldr	r3, [r4, #108]	; 0x6c
 8007dc6:	2b00      	cmp	r3, #0
 8007dc8:	f43f af60 	beq.w	8007c8c <tcp_slowtmr+0xd8>
 8007dcc:	f9b4 0030 	ldrsh.w	r0, [r4, #48]	; 0x30
 8007dd0:	f9b4 3040 	ldrsh.w	r3, [r4, #64]	; 0x40
 8007dd4:	4298      	cmp	r0, r3
 8007dd6:	f6ff af59 	blt.w	8007c8c <tcp_slowtmr+0xd8>
 8007dda:	2902      	cmp	r1, #2
 8007ddc:	d00a      	beq.n	8007df4 <tcp_slowtmr+0x240>
 8007dde:	f9b4 103c 	ldrsh.w	r1, [r4, #60]	; 0x3c
 8007de2:	f9b4 303e 	ldrsh.w	r3, [r4, #62]	; 0x3e
 8007de6:	eb03 03e1 	add.w	r3, r3, r1, asr #3
 8007dea:	492e      	ldr	r1, [pc, #184]	; (8007ea4 <tcp_slowtmr+0x2f0>)
 8007dec:	5c8a      	ldrb	r2, [r1, r2]
 8007dee:	4093      	lsls	r3, r2
 8007df0:	f8a4 3040 	strh.w	r3, [r4, #64]	; 0x40
 8007df4:	2300      	movs	r3, #0
 8007df6:	f8b4 2048 	ldrh.w	r2, [r4, #72]	; 0x48
 8007dfa:	8e61      	ldrh	r1, [r4, #50]	; 0x32
 8007dfc:	4620      	mov	r0, r4
 8007dfe:	8623      	strh	r3, [r4, #48]	; 0x30
 8007e00:	f8b4 305c 	ldrh.w	r3, [r4, #92]	; 0x5c
 8007e04:	f8a4 1048 	strh.w	r1, [r4, #72]	; 0x48
 8007e08:	4293      	cmp	r3, r2
 8007e0a:	bf28      	it	cs
 8007e0c:	4613      	movcs	r3, r2
 8007e0e:	004a      	lsls	r2, r1, #1
 8007e10:	085b      	lsrs	r3, r3, #1
 8007e12:	b292      	uxth	r2, r2
 8007e14:	f8a4 304a 	strh.w	r3, [r4, #74]	; 0x4a
 8007e18:	4293      	cmp	r3, r2
 8007e1a:	bf38      	it	cc
 8007e1c:	f8a4 204a 	strhcc.w	r2, [r4, #74]	; 0x4a
 8007e20:	f002 f9bc 	bl	800a19c <tcp_rexmit_rto>
 8007e24:	e734      	b.n	8007c90 <tcp_slowtmr+0xdc>
 8007e26:	f04f 0b01 	mov.w	fp, #1
 8007e2a:	e731      	b.n	8007c90 <tcp_slowtmr+0xdc>
 8007e2c:	f894 3096 	ldrb.w	r3, [r4, #150]	; 0x96
 8007e30:	4a1d      	ldr	r2, [pc, #116]	; (8007ea8 <tcp_slowtmr+0x2f4>)
 8007e32:	fb02 5303 	mla	r3, r2, r3, r5
 8007e36:	fbb3 f3f0 	udiv	r3, r3, r0
 8007e3a:	4299      	cmp	r1, r3
 8007e3c:	d908      	bls.n	8007e50 <tcp_slowtmr+0x29c>
 8007e3e:	4620      	mov	r0, r4
 8007e40:	f002 fa18 	bl	800a274 <tcp_keepalive>
 8007e44:	b920      	cbnz	r0, 8007e50 <tcp_slowtmr+0x29c>
 8007e46:	f894 3096 	ldrb.w	r3, [r4, #150]	; 0x96
 8007e4a:	3301      	adds	r3, #1
 8007e4c:	f884 3096 	strb.w	r3, [r4, #150]	; 0x96
 8007e50:	2500      	movs	r5, #0
 8007e52:	e74a      	b.n	8007cea <tcp_slowtmr+0x136>
 8007e54:	2b09      	cmp	r3, #9
 8007e56:	f47f af61 	bne.w	8007d1c <tcp_slowtmr+0x168>
 8007e5a:	6833      	ldr	r3, [r6, #0]
 8007e5c:	6a22      	ldr	r2, [r4, #32]
 8007e5e:	1a9b      	subs	r3, r3, r2
 8007e60:	2bf0      	cmp	r3, #240	; 0xf0
 8007e62:	e75a      	b.n	8007d1a <tcp_slowtmr+0x166>
 8007e64:	429c      	cmp	r4, r3
 8007e66:	d006      	beq.n	8007e76 <tcp_slowtmr+0x2c2>
 8007e68:	464b      	mov	r3, r9
 8007e6a:	f240 428d 	movw	r2, #1165	; 0x48d
 8007e6e:	490f      	ldr	r1, [pc, #60]	; (8007eac <tcp_slowtmr+0x2f8>)
 8007e70:	4807      	ldr	r0, [pc, #28]	; (8007e90 <tcp_slowtmr+0x2dc>)
 8007e72:	f003 fd55 	bl	800b920 <iprintf>
 8007e76:	68e3      	ldr	r3, [r4, #12]
 8007e78:	603b      	str	r3, [r7, #0]
 8007e7a:	e769      	b.n	8007d50 <tcp_slowtmr+0x19c>
 8007e7c:	200077f8 	.word	0x200077f8
 8007e80:	2000408e 	.word	0x2000408e
 8007e84:	200077f4 	.word	0x200077f4
 8007e88:	20007804 	.word	0x20007804
 8007e8c:	0800d396 	.word	0x0800d396
 8007e90:	0800c6ba 	.word	0x0800c6ba
 8007e94:	0800d3c0 	.word	0x0800d3c0
 8007e98:	0800d3ea 	.word	0x0800d3ea
 8007e9c:	0800d348 	.word	0x0800d348
 8007ea0:	0800d417 	.word	0x0800d417
 8007ea4:	0800d280 	.word	0x0800d280
 8007ea8:	000124f8 	.word	0x000124f8
 8007eac:	0800d442 	.word	0x0800d442
 8007eb0:	200077f0 	.word	0x200077f0
 8007eb4:	0800d2a6 	.word	0x0800d2a6
 8007eb8:	0800d46c 	.word	0x0800d46c
 8007ebc:	7ee3      	ldrb	r3, [r4, #27]
 8007ebe:	7f22      	ldrb	r2, [r4, #28]
 8007ec0:	3301      	adds	r3, #1
 8007ec2:	68e5      	ldr	r5, [r4, #12]
 8007ec4:	b2db      	uxtb	r3, r3
 8007ec6:	429a      	cmp	r2, r3
 8007ec8:	76e3      	strb	r3, [r4, #27]
 8007eca:	f63f aeba 	bhi.w	8007c42 <tcp_slowtmr+0x8e>
 8007ece:	f8d4 3088 	ldr.w	r3, [r4, #136]	; 0x88
 8007ed2:	f884 b01b 	strb.w	fp, [r4, #27]
 8007ed6:	f88a b000 	strb.w	fp, [sl]
 8007eda:	b173      	cbz	r3, 8007efa <tcp_slowtmr+0x346>
 8007edc:	4621      	mov	r1, r4
 8007ede:	6920      	ldr	r0, [r4, #16]
 8007ee0:	4798      	blx	r3
 8007ee2:	f89a 3000 	ldrb.w	r3, [sl]
 8007ee6:	2b00      	cmp	r3, #0
 8007ee8:	f47f ae72 	bne.w	8007bd0 <tcp_slowtmr+0x1c>
 8007eec:	2800      	cmp	r0, #0
 8007eee:	f47f aea8 	bne.w	8007c42 <tcp_slowtmr+0x8e>
 8007ef2:	4620      	mov	r0, r4
 8007ef4:	f001 ff7a 	bl	8009dec <tcp_output>
 8007ef8:	e6a3      	b.n	8007c42 <tcp_slowtmr+0x8e>
 8007efa:	4658      	mov	r0, fp
 8007efc:	e7f1      	b.n	8007ee2 <tcp_slowtmr+0x32e>
 8007efe:	7d2b      	ldrb	r3, [r5, #20]
 8007f00:	2b0a      	cmp	r3, #10
 8007f02:	d006      	beq.n	8007f12 <tcp_slowtmr+0x35e>
 8007f04:	4643      	mov	r3, r8
 8007f06:	f240 42bd 	movw	r2, #1213	; 0x4bd
 8007f0a:	4651      	mov	r1, sl
 8007f0c:	4648      	mov	r0, r9
 8007f0e:	f003 fd07 	bl	800b920 <iprintf>
 8007f12:	6833      	ldr	r3, [r6, #0]
 8007f14:	6a2a      	ldr	r2, [r5, #32]
 8007f16:	1a9b      	subs	r3, r3, r2
 8007f18:	2bf0      	cmp	r3, #240	; 0xf0
 8007f1a:	d816      	bhi.n	8007f4a <tcp_slowtmr+0x396>
 8007f1c:	462c      	mov	r4, r5
 8007f1e:	68ed      	ldr	r5, [r5, #12]
 8007f20:	e665      	b.n	8007bee <tcp_slowtmr+0x3a>
 8007f22:	683b      	ldr	r3, [r7, #0]
 8007f24:	429d      	cmp	r5, r3
 8007f26:	d106      	bne.n	8007f36 <tcp_slowtmr+0x382>
 8007f28:	4643      	mov	r3, r8
 8007f2a:	f240 42cb 	movw	r2, #1227	; 0x4cb
 8007f2e:	4910      	ldr	r1, [pc, #64]	; (8007f70 <tcp_slowtmr+0x3bc>)
 8007f30:	4648      	mov	r0, r9
 8007f32:	f003 fcf5 	bl	800b920 <iprintf>
 8007f36:	68eb      	ldr	r3, [r5, #12]
 8007f38:	60e3      	str	r3, [r4, #12]
 8007f3a:	f8d5 b00c 	ldr.w	fp, [r5, #12]
 8007f3e:	4629      	mov	r1, r5
 8007f40:	2001      	movs	r0, #1
 8007f42:	f7ff f8e5 	bl	8007110 <memp_free>
 8007f46:	465d      	mov	r5, fp
 8007f48:	e651      	b.n	8007bee <tcp_slowtmr+0x3a>
 8007f4a:	4628      	mov	r0, r5
 8007f4c:	f7ff fe12 	bl	8007b74 <tcp_pcb_purge>
 8007f50:	2c00      	cmp	r4, #0
 8007f52:	d1e6      	bne.n	8007f22 <tcp_slowtmr+0x36e>
 8007f54:	683b      	ldr	r3, [r7, #0]
 8007f56:	429d      	cmp	r5, r3
 8007f58:	d006      	beq.n	8007f68 <tcp_slowtmr+0x3b4>
 8007f5a:	4643      	mov	r3, r8
 8007f5c:	f240 42cf 	movw	r2, #1231	; 0x4cf
 8007f60:	4904      	ldr	r1, [pc, #16]	; (8007f74 <tcp_slowtmr+0x3c0>)
 8007f62:	4648      	mov	r0, r9
 8007f64:	f003 fcdc 	bl	800b920 <iprintf>
 8007f68:	68eb      	ldr	r3, [r5, #12]
 8007f6a:	603b      	str	r3, [r7, #0]
 8007f6c:	e7e5      	b.n	8007f3a <tcp_slowtmr+0x386>
 8007f6e:	bf00      	nop
 8007f70:	0800d49b 	.word	0x0800d49b
 8007f74:	0800d4c2 	.word	0x0800d4c2

08007f78 <tcp_pcb_remove>:
 8007f78:	6803      	ldr	r3, [r0, #0]
 8007f7a:	428b      	cmp	r3, r1
 8007f7c:	b510      	push	{r4, lr}
 8007f7e:	460c      	mov	r4, r1
 8007f80:	d137      	bne.n	8007ff2 <tcp_pcb_remove+0x7a>
 8007f82:	68cb      	ldr	r3, [r1, #12]
 8007f84:	6003      	str	r3, [r0, #0]
 8007f86:	2300      	movs	r3, #0
 8007f88:	4620      	mov	r0, r4
 8007f8a:	60e3      	str	r3, [r4, #12]
 8007f8c:	f7ff fdf2 	bl	8007b74 <tcp_pcb_purge>
 8007f90:	7d23      	ldrb	r3, [r4, #20]
 8007f92:	2b0a      	cmp	r3, #10
 8007f94:	d00a      	beq.n	8007fac <tcp_pcb_remove+0x34>
 8007f96:	2b01      	cmp	r3, #1
 8007f98:	d008      	beq.n	8007fac <tcp_pcb_remove+0x34>
 8007f9a:	7ea3      	ldrb	r3, [r4, #26]
 8007f9c:	07da      	lsls	r2, r3, #31
 8007f9e:	d505      	bpl.n	8007fac <tcp_pcb_remove+0x34>
 8007fa0:	f043 0302 	orr.w	r3, r3, #2
 8007fa4:	4620      	mov	r0, r4
 8007fa6:	76a3      	strb	r3, [r4, #26]
 8007fa8:	f001 ff20 	bl	8009dec <tcp_output>
 8007fac:	7d23      	ldrb	r3, [r4, #20]
 8007fae:	2b01      	cmp	r3, #1
 8007fb0:	d01a      	beq.n	8007fe8 <tcp_pcb_remove+0x70>
 8007fb2:	6ea3      	ldr	r3, [r4, #104]	; 0x68
 8007fb4:	b133      	cbz	r3, 8007fc4 <tcp_pcb_remove+0x4c>
 8007fb6:	4b13      	ldr	r3, [pc, #76]	; (8008004 <tcp_pcb_remove+0x8c>)
 8007fb8:	f240 7253 	movw	r2, #1875	; 0x753
 8007fbc:	4912      	ldr	r1, [pc, #72]	; (8008008 <tcp_pcb_remove+0x90>)
 8007fbe:	4813      	ldr	r0, [pc, #76]	; (800800c <tcp_pcb_remove+0x94>)
 8007fc0:	f003 fcae 	bl	800b920 <iprintf>
 8007fc4:	6ee3      	ldr	r3, [r4, #108]	; 0x6c
 8007fc6:	b133      	cbz	r3, 8007fd6 <tcp_pcb_remove+0x5e>
 8007fc8:	4b0e      	ldr	r3, [pc, #56]	; (8008004 <tcp_pcb_remove+0x8c>)
 8007fca:	f240 7254 	movw	r2, #1876	; 0x754
 8007fce:	4910      	ldr	r1, [pc, #64]	; (8008010 <tcp_pcb_remove+0x98>)
 8007fd0:	480e      	ldr	r0, [pc, #56]	; (800800c <tcp_pcb_remove+0x94>)
 8007fd2:	f003 fca5 	bl	800b920 <iprintf>
 8007fd6:	6f23      	ldr	r3, [r4, #112]	; 0x70
 8007fd8:	b133      	cbz	r3, 8007fe8 <tcp_pcb_remove+0x70>
 8007fda:	4b0a      	ldr	r3, [pc, #40]	; (8008004 <tcp_pcb_remove+0x8c>)
 8007fdc:	f240 7256 	movw	r2, #1878	; 0x756
 8007fe0:	490c      	ldr	r1, [pc, #48]	; (8008014 <tcp_pcb_remove+0x9c>)
 8007fe2:	480a      	ldr	r0, [pc, #40]	; (800800c <tcp_pcb_remove+0x94>)
 8007fe4:	f003 fc9c 	bl	800b920 <iprintf>
 8007fe8:	2300      	movs	r3, #0
 8007fea:	7523      	strb	r3, [r4, #20]
 8007fec:	82e3      	strh	r3, [r4, #22]
 8007fee:	bd10      	pop	{r4, pc}
 8007ff0:	4613      	mov	r3, r2
 8007ff2:	2b00      	cmp	r3, #0
 8007ff4:	d0c7      	beq.n	8007f86 <tcp_pcb_remove+0xe>
 8007ff6:	68da      	ldr	r2, [r3, #12]
 8007ff8:	4294      	cmp	r4, r2
 8007ffa:	d1f9      	bne.n	8007ff0 <tcp_pcb_remove+0x78>
 8007ffc:	68e2      	ldr	r2, [r4, #12]
 8007ffe:	60da      	str	r2, [r3, #12]
 8008000:	e7c1      	b.n	8007f86 <tcp_pcb_remove+0xe>
 8008002:	bf00      	nop
 8008004:	0800d2a6 	.word	0x0800d2a6
 8008008:	0800d300 	.word	0x0800d300
 800800c:	0800c6ba 	.word	0x0800c6ba
 8008010:	0800d318 	.word	0x0800d318
 8008014:	0800d331 	.word	0x0800d331

08008018 <tcp_close_shutdown>:
 8008018:	b537      	push	{r0, r1, r2, r4, r5, lr}
 800801a:	7d03      	ldrb	r3, [r0, #20]
 800801c:	4604      	mov	r4, r0
 800801e:	2900      	cmp	r1, #0
 8008020:	d049      	beq.n	80080b6 <tcp_close_shutdown+0x9e>
 8008022:	2b04      	cmp	r3, #4
 8008024:	d001      	beq.n	800802a <tcp_close_shutdown+0x12>
 8008026:	2b07      	cmp	r3, #7
 8008028:	d145      	bne.n	80080b6 <tcp_close_shutdown+0x9e>
 800802a:	6f62      	ldr	r2, [r4, #116]	; 0x74
 800802c:	b91a      	cbnz	r2, 8008036 <tcp_close_shutdown+0x1e>
 800802e:	8d22      	ldrh	r2, [r4, #40]	; 0x28
 8008030:	f5b2 6f06 	cmp.w	r2, #2144	; 0x860
 8008034:	d03f      	beq.n	80080b6 <tcp_close_shutdown+0x9e>
 8008036:	7ea3      	ldrb	r3, [r4, #26]
 8008038:	06db      	lsls	r3, r3, #27
 800803a:	d406      	bmi.n	800804a <tcp_close_shutdown+0x32>
 800803c:	4b3f      	ldr	r3, [pc, #252]	; (800813c <tcp_close_shutdown+0x124>)
 800803e:	f240 120f 	movw	r2, #271	; 0x10f
 8008042:	493f      	ldr	r1, [pc, #252]	; (8008140 <tcp_close_shutdown+0x128>)
 8008044:	483f      	ldr	r0, [pc, #252]	; (8008144 <tcp_close_shutdown+0x12c>)
 8008046:	f003 fc6b 	bl	800b920 <iprintf>
 800804a:	8b23      	ldrh	r3, [r4, #24]
 800804c:	4622      	mov	r2, r4
 800804e:	6a61      	ldr	r1, [r4, #36]	; 0x24
 8008050:	9301      	str	r3, [sp, #4]
 8008052:	8ae3      	ldrh	r3, [r4, #22]
 8008054:	6ce0      	ldr	r0, [r4, #76]	; 0x4c
 8008056:	9300      	str	r3, [sp, #0]
 8008058:	1d23      	adds	r3, r4, #4
 800805a:	f002 f845 	bl	800a0e8 <tcp_rst>
 800805e:	4620      	mov	r0, r4
 8008060:	f7ff fd88 	bl	8007b74 <tcp_pcb_purge>
 8008064:	4a38      	ldr	r2, [pc, #224]	; (8008148 <tcp_close_shutdown+0x130>)
 8008066:	6813      	ldr	r3, [r2, #0]
 8008068:	429c      	cmp	r4, r3
 800806a:	d115      	bne.n	8008098 <tcp_close_shutdown+0x80>
 800806c:	68e3      	ldr	r3, [r4, #12]
 800806e:	6013      	str	r3, [r2, #0]
 8008070:	2300      	movs	r3, #0
 8008072:	2201      	movs	r2, #1
 8008074:	60e3      	str	r3, [r4, #12]
 8008076:	4b35      	ldr	r3, [pc, #212]	; (800814c <tcp_close_shutdown+0x134>)
 8008078:	701a      	strb	r2, [r3, #0]
 800807a:	7d23      	ldrb	r3, [r4, #20]
 800807c:	2b04      	cmp	r3, #4
 800807e:	d113      	bne.n	80080a8 <tcp_close_shutdown+0x90>
 8008080:	230a      	movs	r3, #10
 8008082:	7523      	strb	r3, [r4, #20]
 8008084:	4b32      	ldr	r3, [pc, #200]	; (8008150 <tcp_close_shutdown+0x138>)
 8008086:	681a      	ldr	r2, [r3, #0]
 8008088:	601c      	str	r4, [r3, #0]
 800808a:	60e2      	str	r2, [r4, #12]
 800808c:	f002 f9ce 	bl	800a42c <tcp_timer_needed>
 8008090:	2000      	movs	r0, #0
 8008092:	b003      	add	sp, #12
 8008094:	bd30      	pop	{r4, r5, pc}
 8008096:	4613      	mov	r3, r2
 8008098:	2b00      	cmp	r3, #0
 800809a:	d0e9      	beq.n	8008070 <tcp_close_shutdown+0x58>
 800809c:	68da      	ldr	r2, [r3, #12]
 800809e:	4294      	cmp	r4, r2
 80080a0:	d1f9      	bne.n	8008096 <tcp_close_shutdown+0x7e>
 80080a2:	68e2      	ldr	r2, [r4, #12]
 80080a4:	60da      	str	r2, [r3, #12]
 80080a6:	e7e3      	b.n	8008070 <tcp_close_shutdown+0x58>
 80080a8:	4b2a      	ldr	r3, [pc, #168]	; (8008154 <tcp_close_shutdown+0x13c>)
 80080aa:	681b      	ldr	r3, [r3, #0]
 80080ac:	429c      	cmp	r4, r3
 80080ae:	d117      	bne.n	80080e0 <tcp_close_shutdown+0xc8>
 80080b0:	f001 fd04 	bl	8009abc <tcp_trigger_input_pcb_close>
 80080b4:	e7ec      	b.n	8008090 <tcp_close_shutdown+0x78>
 80080b6:	2b01      	cmp	r3, #1
 80080b8:	d020      	beq.n	80080fc <tcp_close_shutdown+0xe4>
 80080ba:	d307      	bcc.n	80080cc <tcp_close_shutdown+0xb4>
 80080bc:	2b02      	cmp	r3, #2
 80080be:	d033      	beq.n	8008128 <tcp_close_shutdown+0x110>
 80080c0:	4620      	mov	r0, r4
 80080c2:	b003      	add	sp, #12
 80080c4:	e8bd 4030 	ldmia.w	sp!, {r4, r5, lr}
 80080c8:	f7ff bc8c 	b.w	80079e4 <tcp_close_shutdown_fin>
 80080cc:	8ae3      	ldrh	r3, [r4, #22]
 80080ce:	b13b      	cbz	r3, 80080e0 <tcp_close_shutdown+0xc8>
 80080d0:	4a21      	ldr	r2, [pc, #132]	; (8008158 <tcp_close_shutdown+0x140>)
 80080d2:	6813      	ldr	r3, [r2, #0]
 80080d4:	429c      	cmp	r4, r3
 80080d6:	d109      	bne.n	80080ec <tcp_close_shutdown+0xd4>
 80080d8:	68e3      	ldr	r3, [r4, #12]
 80080da:	6013      	str	r3, [r2, #0]
 80080dc:	2300      	movs	r3, #0
 80080de:	60e3      	str	r3, [r4, #12]
 80080e0:	4621      	mov	r1, r4
 80080e2:	2001      	movs	r0, #1
 80080e4:	f7ff f814 	bl	8007110 <memp_free>
 80080e8:	e7d2      	b.n	8008090 <tcp_close_shutdown+0x78>
 80080ea:	4613      	mov	r3, r2
 80080ec:	2b00      	cmp	r3, #0
 80080ee:	d0f5      	beq.n	80080dc <tcp_close_shutdown+0xc4>
 80080f0:	68da      	ldr	r2, [r3, #12]
 80080f2:	4294      	cmp	r4, r2
 80080f4:	d1f9      	bne.n	80080ea <tcp_close_shutdown+0xd2>
 80080f6:	68e2      	ldr	r2, [r4, #12]
 80080f8:	60da      	str	r2, [r3, #12]
 80080fa:	e7ef      	b.n	80080dc <tcp_close_shutdown+0xc4>
 80080fc:	4917      	ldr	r1, [pc, #92]	; (800815c <tcp_close_shutdown+0x144>)
 80080fe:	2000      	movs	r0, #0
 8008100:	f851 2023 	ldr.w	r2, [r1, r3, lsl #2]
 8008104:	6812      	ldr	r2, [r2, #0]
 8008106:	b94a      	cbnz	r2, 800811c <tcp_close_shutdown+0x104>
 8008108:	3301      	adds	r3, #1
 800810a:	2b04      	cmp	r3, #4
 800810c:	d1f8      	bne.n	8008100 <tcp_close_shutdown+0xe8>
 800810e:	4621      	mov	r1, r4
 8008110:	4813      	ldr	r0, [pc, #76]	; (8008160 <tcp_close_shutdown+0x148>)
 8008112:	f7ff ff31 	bl	8007f78 <tcp_pcb_remove>
 8008116:	4621      	mov	r1, r4
 8008118:	2002      	movs	r0, #2
 800811a:	e7e3      	b.n	80080e4 <tcp_close_shutdown+0xcc>
 800811c:	6f95      	ldr	r5, [r2, #120]	; 0x78
 800811e:	42ac      	cmp	r4, r5
 8008120:	bf08      	it	eq
 8008122:	6790      	streq	r0, [r2, #120]	; 0x78
 8008124:	68d2      	ldr	r2, [r2, #12]
 8008126:	e7ee      	b.n	8008106 <tcp_close_shutdown+0xee>
 8008128:	4621      	mov	r1, r4
 800812a:	4807      	ldr	r0, [pc, #28]	; (8008148 <tcp_close_shutdown+0x130>)
 800812c:	f7ff ff24 	bl	8007f78 <tcp_pcb_remove>
 8008130:	2001      	movs	r0, #1
 8008132:	4b06      	ldr	r3, [pc, #24]	; (800814c <tcp_close_shutdown+0x134>)
 8008134:	4621      	mov	r1, r4
 8008136:	7018      	strb	r0, [r3, #0]
 8008138:	e7d4      	b.n	80080e4 <tcp_close_shutdown+0xcc>
 800813a:	bf00      	nop
 800813c:	0800d2a6 	.word	0x0800d2a6
 8008140:	0800d28d 	.word	0x0800d28d
 8008144:	0800c6ba 	.word	0x0800c6ba
 8008148:	200077f4 	.word	0x200077f4
 800814c:	200077f0 	.word	0x200077f0
 8008150:	20007804 	.word	0x20007804
 8008154:	20007808 	.word	0x20007808
 8008158:	20007800 	.word	0x20007800
 800815c:	0800d2f0 	.word	0x0800d2f0
 8008160:	200077fc 	.word	0x200077fc

08008164 <tcp_close>:
 8008164:	7d03      	ldrb	r3, [r0, #20]
 8008166:	2101      	movs	r1, #1
 8008168:	2b01      	cmp	r3, #1
 800816a:	bf1e      	ittt	ne
 800816c:	7e83      	ldrbne	r3, [r0, #26]
 800816e:	f043 0310 	orrne.w	r3, r3, #16
 8008172:	7683      	strbne	r3, [r0, #26]
 8008174:	f7ff bf50 	b.w	8008018 <tcp_close_shutdown>

08008178 <tcp_recv_null>:
 8008178:	b510      	push	{r4, lr}
 800817a:	4608      	mov	r0, r1
 800817c:	4614      	mov	r4, r2
 800817e:	b13a      	cbz	r2, 8008190 <tcp_recv_null+0x18>
 8008180:	8911      	ldrh	r1, [r2, #8]
 8008182:	f7ff fc8d 	bl	8007aa0 <tcp_recved>
 8008186:	4620      	mov	r0, r4
 8008188:	f7ff f948 	bl	800741c <pbuf_free>
 800818c:	2000      	movs	r0, #0
 800818e:	bd10      	pop	{r4, pc}
 8008190:	2b00      	cmp	r3, #0
 8008192:	d1fb      	bne.n	800818c <tcp_recv_null+0x14>
 8008194:	e8bd 4010 	ldmia.w	sp!, {r4, lr}
 8008198:	f7ff bfe4 	b.w	8008164 <tcp_close>

0800819c <tcp_process_refused_data>:
 800819c:	b5f8      	push	{r3, r4, r5, r6, r7, lr}
 800819e:	6f46      	ldr	r6, [r0, #116]	; 0x74
 80081a0:	2300      	movs	r3, #0
 80081a2:	f8d0 5080 	ldr.w	r5, [r0, #128]	; 0x80
 80081a6:	4604      	mov	r4, r0
 80081a8:	7b77      	ldrb	r7, [r6, #13]
 80081aa:	6743      	str	r3, [r0, #116]	; 0x74
 80081ac:	b1dd      	cbz	r5, 80081e6 <tcp_process_refused_data+0x4a>
 80081ae:	4601      	mov	r1, r0
 80081b0:	4632      	mov	r2, r6
 80081b2:	6900      	ldr	r0, [r0, #16]
 80081b4:	47a8      	blx	r5
 80081b6:	4605      	mov	r5, r0
 80081b8:	b9e0      	cbnz	r0, 80081f4 <tcp_process_refused_data+0x58>
 80081ba:	06bb      	lsls	r3, r7, #26
 80081bc:	d511      	bpl.n	80081e2 <tcp_process_refused_data+0x46>
 80081be:	8d23      	ldrh	r3, [r4, #40]	; 0x28
 80081c0:	f8d4 6080 	ldr.w	r6, [r4, #128]	; 0x80
 80081c4:	f5b3 6f06 	cmp.w	r3, #2144	; 0x860
 80081c8:	bf1c      	itt	ne
 80081ca:	3301      	addne	r3, #1
 80081cc:	8523      	strhne	r3, [r4, #40]	; 0x28
 80081ce:	b146      	cbz	r6, 80081e2 <tcp_process_refused_data+0x46>
 80081d0:	2300      	movs	r3, #0
 80081d2:	4621      	mov	r1, r4
 80081d4:	6920      	ldr	r0, [r4, #16]
 80081d6:	461a      	mov	r2, r3
 80081d8:	47b0      	blx	r6
 80081da:	300d      	adds	r0, #13
 80081dc:	d101      	bne.n	80081e2 <tcp_process_refused_data+0x46>
 80081de:	f06f 050c 	mvn.w	r5, #12
 80081e2:	4628      	mov	r0, r5
 80081e4:	bdf8      	pop	{r3, r4, r5, r6, r7, pc}
 80081e6:	4601      	mov	r1, r0
 80081e8:	462b      	mov	r3, r5
 80081ea:	4632      	mov	r2, r6
 80081ec:	4628      	mov	r0, r5
 80081ee:	f7ff ffc3 	bl	8008178 <tcp_recv_null>
 80081f2:	e7e0      	b.n	80081b6 <tcp_process_refused_data+0x1a>
 80081f4:	f110 050d 	adds.w	r5, r0, #13
 80081f8:	d0f1      	beq.n	80081de <tcp_process_refused_data+0x42>
 80081fa:	6766      	str	r6, [r4, #116]	; 0x74
 80081fc:	f06f 0504 	mvn.w	r5, #4
 8008200:	e7ef      	b.n	80081e2 <tcp_process_refused_data+0x46>
	...

08008204 <tcp_fasttmr>:
 8008204:	e92d 43f8 	stmdb	sp!, {r3, r4, r5, r6, r7, r8, r9, lr}
 8008208:	4d1b      	ldr	r5, [pc, #108]	; (8008278 <tcp_fasttmr+0x74>)
 800820a:	4f1c      	ldr	r7, [pc, #112]	; (800827c <tcp_fasttmr+0x78>)
 800820c:	782b      	ldrb	r3, [r5, #0]
 800820e:	4e1c      	ldr	r6, [pc, #112]	; (8008280 <tcp_fasttmr+0x7c>)
 8008210:	3301      	adds	r3, #1
 8008212:	702b      	strb	r3, [r5, #0]
 8008214:	683c      	ldr	r4, [r7, #0]
 8008216:	f04f 0800 	mov.w	r8, #0
 800821a:	b90c      	cbnz	r4, 8008220 <tcp_fasttmr+0x1c>
 800821c:	e8bd 83f8 	ldmia.w	sp!, {r3, r4, r5, r6, r7, r8, r9, pc}
 8008220:	782b      	ldrb	r3, [r5, #0]
 8008222:	7f62      	ldrb	r2, [r4, #29]
 8008224:	429a      	cmp	r2, r3
 8008226:	d024      	beq.n	8008272 <tcp_fasttmr+0x6e>
 8008228:	7763      	strb	r3, [r4, #29]
 800822a:	7ea3      	ldrb	r3, [r4, #26]
 800822c:	07d9      	lsls	r1, r3, #31
 800822e:	d509      	bpl.n	8008244 <tcp_fasttmr+0x40>
 8008230:	f043 0302 	orr.w	r3, r3, #2
 8008234:	4620      	mov	r0, r4
 8008236:	76a3      	strb	r3, [r4, #26]
 8008238:	f001 fdd8 	bl	8009dec <tcp_output>
 800823c:	7ea3      	ldrb	r3, [r4, #26]
 800823e:	f023 0303 	bic.w	r3, r3, #3
 8008242:	76a3      	strb	r3, [r4, #26]
 8008244:	7ea3      	ldrb	r3, [r4, #26]
 8008246:	071a      	lsls	r2, r3, #28
 8008248:	d505      	bpl.n	8008256 <tcp_fasttmr+0x52>
 800824a:	f023 0308 	bic.w	r3, r3, #8
 800824e:	4620      	mov	r0, r4
 8008250:	76a3      	strb	r3, [r4, #26]
 8008252:	f7ff fbc7 	bl	80079e4 <tcp_close_shutdown_fin>
 8008256:	6f63      	ldr	r3, [r4, #116]	; 0x74
 8008258:	f8d4 900c 	ldr.w	r9, [r4, #12]
 800825c:	b13b      	cbz	r3, 800826e <tcp_fasttmr+0x6a>
 800825e:	4620      	mov	r0, r4
 8008260:	f886 8000 	strb.w	r8, [r6]
 8008264:	f7ff ff9a 	bl	800819c <tcp_process_refused_data>
 8008268:	7833      	ldrb	r3, [r6, #0]
 800826a:	2b00      	cmp	r3, #0
 800826c:	d1d2      	bne.n	8008214 <tcp_fasttmr+0x10>
 800826e:	464c      	mov	r4, r9
 8008270:	e7d3      	b.n	800821a <tcp_fasttmr+0x16>
 8008272:	f8d4 900c 	ldr.w	r9, [r4, #12]
 8008276:	e7fa      	b.n	800826e <tcp_fasttmr+0x6a>
 8008278:	2000408e 	.word	0x2000408e
 800827c:	200077f4 	.word	0x200077f4
 8008280:	200077f0 	.word	0x200077f0

08008284 <tcp_tmr>:
 8008284:	b508      	push	{r3, lr}
 8008286:	f7ff ffbd 	bl	8008204 <tcp_fasttmr>
 800828a:	4a06      	ldr	r2, [pc, #24]	; (80082a4 <tcp_tmr+0x20>)
 800828c:	7813      	ldrb	r3, [r2, #0]
 800828e:	3301      	adds	r3, #1
 8008290:	b2db      	uxtb	r3, r3
 8008292:	7013      	strb	r3, [r2, #0]
 8008294:	07db      	lsls	r3, r3, #31
 8008296:	d503      	bpl.n	80082a0 <tcp_tmr+0x1c>
 8008298:	e8bd 4008 	ldmia.w	sp!, {r3, lr}
 800829c:	f7ff bc8a 	b.w	8007bb4 <tcp_slowtmr>
 80082a0:	bd08      	pop	{r3, pc}
 80082a2:	bf00      	nop
 80082a4:	2000408d 	.word	0x2000408d

080082a8 <tcp_abandon>:
 80082a8:	7d03      	ldrb	r3, [r0, #20]
 80082aa:	2b01      	cmp	r3, #1
 80082ac:	e92d 47f3 	stmdb	sp!, {r0, r1, r4, r5, r6, r7, r8, r9, sl, lr}
 80082b0:	4604      	mov	r4, r0
 80082b2:	460e      	mov	r6, r1
 80082b4:	d106      	bne.n	80082c4 <tcp_abandon+0x1c>
 80082b6:	4b30      	ldr	r3, [pc, #192]	; (8008378 <tcp_abandon+0xd0>)
 80082b8:	f44f 72f0 	mov.w	r2, #480	; 0x1e0
 80082bc:	492f      	ldr	r1, [pc, #188]	; (800837c <tcp_abandon+0xd4>)
 80082be:	4830      	ldr	r0, [pc, #192]	; (8008380 <tcp_abandon+0xd8>)
 80082c0:	f003 fb2e 	bl	800b920 <iprintf>
 80082c4:	7d23      	ldrb	r3, [r4, #20]
 80082c6:	2b0a      	cmp	r3, #10
 80082c8:	d10a      	bne.n	80082e0 <tcp_abandon+0x38>
 80082ca:	4621      	mov	r1, r4
 80082cc:	482d      	ldr	r0, [pc, #180]	; (8008384 <tcp_abandon+0xdc>)
 80082ce:	f7ff fe53 	bl	8007f78 <tcp_pcb_remove>
 80082d2:	4621      	mov	r1, r4
 80082d4:	2001      	movs	r0, #1
 80082d6:	b002      	add	sp, #8
 80082d8:	e8bd 47f0 	ldmia.w	sp!, {r4, r5, r6, r7, r8, r9, sl, lr}
 80082dc:	f7fe bf18 	b.w	8007110 <memp_free>
 80082e0:	f8d4 904c 	ldr.w	r9, [r4, #76]	; 0x4c
 80082e4:	f8d4 a024 	ldr.w	sl, [r4, #36]	; 0x24
 80082e8:	f8d4 708c 	ldr.w	r7, [r4, #140]	; 0x8c
 80082ec:	f8d4 8010 	ldr.w	r8, [r4, #16]
 80082f0:	8ae5      	ldrh	r5, [r4, #22]
 80082f2:	b99b      	cbnz	r3, 800831c <tcp_abandon+0x74>
 80082f4:	b13d      	cbz	r5, 8008306 <tcp_abandon+0x5e>
 80082f6:	4a24      	ldr	r2, [pc, #144]	; (8008388 <tcp_abandon+0xe0>)
 80082f8:	6813      	ldr	r3, [r2, #0]
 80082fa:	429c      	cmp	r4, r3
 80082fc:	d106      	bne.n	800830c <tcp_abandon+0x64>
 80082fe:	68e3      	ldr	r3, [r4, #12]
 8008300:	6013      	str	r3, [r2, #0]
 8008302:	2500      	movs	r5, #0
 8008304:	60e5      	str	r5, [r4, #12]
 8008306:	462e      	mov	r6, r5
 8008308:	e00f      	b.n	800832a <tcp_abandon+0x82>
 800830a:	4613      	mov	r3, r2
 800830c:	2b00      	cmp	r3, #0
 800830e:	d0f8      	beq.n	8008302 <tcp_abandon+0x5a>
 8008310:	68da      	ldr	r2, [r3, #12]
 8008312:	4294      	cmp	r4, r2
 8008314:	d1f9      	bne.n	800830a <tcp_abandon+0x62>
 8008316:	68e2      	ldr	r2, [r4, #12]
 8008318:	60da      	str	r2, [r3, #12]
 800831a:	e7f2      	b.n	8008302 <tcp_abandon+0x5a>
 800831c:	4621      	mov	r1, r4
 800831e:	481b      	ldr	r0, [pc, #108]	; (800838c <tcp_abandon+0xe4>)
 8008320:	f7ff fe2a 	bl	8007f78 <tcp_pcb_remove>
 8008324:	2201      	movs	r2, #1
 8008326:	4b1a      	ldr	r3, [pc, #104]	; (8008390 <tcp_abandon+0xe8>)
 8008328:	701a      	strb	r2, [r3, #0]
 800832a:	6ee0      	ldr	r0, [r4, #108]	; 0x6c
 800832c:	b108      	cbz	r0, 8008332 <tcp_abandon+0x8a>
 800832e:	f7ff fc03 	bl	8007b38 <tcp_segs_free>
 8008332:	6ea0      	ldr	r0, [r4, #104]	; 0x68
 8008334:	b108      	cbz	r0, 800833a <tcp_abandon+0x92>
 8008336:	f7ff fbff 	bl	8007b38 <tcp_segs_free>
 800833a:	6f20      	ldr	r0, [r4, #112]	; 0x70
 800833c:	b108      	cbz	r0, 8008342 <tcp_abandon+0x9a>
 800833e:	f7ff fbfb 	bl	8007b38 <tcp_segs_free>
 8008342:	b146      	cbz	r6, 8008356 <tcp_abandon+0xae>
 8008344:	8b23      	ldrh	r3, [r4, #24]
 8008346:	4622      	mov	r2, r4
 8008348:	9500      	str	r5, [sp, #0]
 800834a:	4651      	mov	r1, sl
 800834c:	9301      	str	r3, [sp, #4]
 800834e:	4648      	mov	r0, r9
 8008350:	1d23      	adds	r3, r4, #4
 8008352:	f001 fec9 	bl	800a0e8 <tcp_rst>
 8008356:	4621      	mov	r1, r4
 8008358:	2001      	movs	r0, #1
 800835a:	f7fe fed9 	bl	8007110 <memp_free>
 800835e:	b13f      	cbz	r7, 8008370 <tcp_abandon+0xc8>
 8008360:	f06f 010c 	mvn.w	r1, #12
 8008364:	4640      	mov	r0, r8
 8008366:	463b      	mov	r3, r7
 8008368:	b002      	add	sp, #8
 800836a:	e8bd 47f0 	ldmia.w	sp!, {r4, r5, r6, r7, r8, r9, sl, lr}
 800836e:	4718      	bx	r3
 8008370:	b002      	add	sp, #8
 8008372:	e8bd 87f0 	ldmia.w	sp!, {r4, r5, r6, r7, r8, r9, sl, pc}
 8008376:	bf00      	nop
 8008378:	0800d2a6 	.word	0x0800d2a6
 800837c:	0800d24f 	.word	0x0800d24f
 8008380:	0800c6ba 	.word	0x0800c6ba
 8008384:	20007804 	.word	0x20007804
 8008388:	20007800 	.word	0x20007800
 800838c:	200077f4 	.word	0x200077f4
 8008390:	200077f0 	.word	0x200077f0

08008394 <tcp_abort>:
 8008394:	2101      	movs	r1, #1
 8008396:	f7ff bf87 	b.w	80082a8 <tcp_abandon>

0800839a <tcp_netif_ip_addr_changed_pcblist>:
 800839a:	b538      	push	{r3, r4, r5, lr}
 800839c:	4605      	mov	r5, r0
 800839e:	b901      	cbnz	r1, 80083a2 <tcp_netif_ip_addr_changed_pcblist+0x8>
 80083a0:	bd38      	pop	{r3, r4, r5, pc}
 80083a2:	680a      	ldr	r2, [r1, #0]
 80083a4:	682b      	ldr	r3, [r5, #0]
 80083a6:	68cc      	ldr	r4, [r1, #12]
 80083a8:	429a      	cmp	r2, r3
 80083aa:	d102      	bne.n	80083b2 <tcp_netif_ip_addr_changed_pcblist+0x18>
 80083ac:	4608      	mov	r0, r1
 80083ae:	f7ff fff1 	bl	8008394 <tcp_abort>
 80083b2:	4621      	mov	r1, r4
 80083b4:	e7f3      	b.n	800839e <tcp_netif_ip_addr_changed_pcblist+0x4>
	...

080083b8 <tcp_kill_state>:
 80083b8:	b538      	push	{r3, r4, r5, lr}
 80083ba:	f1a0 0308 	sub.w	r3, r0, #8
 80083be:	4604      	mov	r4, r0
 80083c0:	2b01      	cmp	r3, #1
 80083c2:	d906      	bls.n	80083d2 <tcp_kill_state+0x1a>
 80083c4:	4b0f      	ldr	r3, [pc, #60]	; (8008404 <tcp_kill_state+0x4c>)
 80083c6:	f240 52dc 	movw	r2, #1500	; 0x5dc
 80083ca:	490f      	ldr	r1, [pc, #60]	; (8008408 <tcp_kill_state+0x50>)
 80083cc:	480f      	ldr	r0, [pc, #60]	; (800840c <tcp_kill_state+0x54>)
 80083ce:	f003 faa7 	bl	800b920 <iprintf>
 80083d2:	4b0f      	ldr	r3, [pc, #60]	; (8008410 <tcp_kill_state+0x58>)
 80083d4:	2200      	movs	r2, #0
 80083d6:	6819      	ldr	r1, [r3, #0]
 80083d8:	4610      	mov	r0, r2
 80083da:	4b0e      	ldr	r3, [pc, #56]	; (8008414 <tcp_kill_state+0x5c>)
 80083dc:	681d      	ldr	r5, [r3, #0]
 80083de:	b921      	cbnz	r1, 80083ea <tcp_kill_state+0x32>
 80083e0:	b170      	cbz	r0, 8008400 <tcp_kill_state+0x48>
 80083e2:	e8bd 4038 	ldmia.w	sp!, {r3, r4, r5, lr}
 80083e6:	f7ff bf5f 	b.w	80082a8 <tcp_abandon>
 80083ea:	7d0b      	ldrb	r3, [r1, #20]
 80083ec:	42a3      	cmp	r3, r4
 80083ee:	d105      	bne.n	80083fc <tcp_kill_state+0x44>
 80083f0:	6a0b      	ldr	r3, [r1, #32]
 80083f2:	1aeb      	subs	r3, r5, r3
 80083f4:	429a      	cmp	r2, r3
 80083f6:	bf9c      	itt	ls
 80083f8:	461a      	movls	r2, r3
 80083fa:	4608      	movls	r0, r1
 80083fc:	68c9      	ldr	r1, [r1, #12]
 80083fe:	e7ee      	b.n	80083de <tcp_kill_state+0x26>
 8008400:	bd38      	pop	{r3, r4, r5, pc}
 8008402:	bf00      	nop
 8008404:	0800d2a6 	.word	0x0800d2a6
 8008408:	0800d2e1 	.word	0x0800d2e1
 800840c:	0800c6ba 	.word	0x0800c6ba
 8008410:	200077f4 	.word	0x200077f4
 8008414:	200077f8 	.word	0x200077f8

08008418 <tcp_alloc>:
 8008418:	b5f8      	push	{r3, r4, r5, r6, r7, lr}
 800841a:	4606      	mov	r6, r0
 800841c:	2001      	movs	r0, #1
 800841e:	f7fe fe5b 	bl	80070d8 <memp_malloc>
 8008422:	4d3b      	ldr	r5, [pc, #236]	; (8008510 <tcp_alloc+0xf8>)
 8008424:	4604      	mov	r4, r0
 8008426:	bb90      	cbnz	r0, 800848e <tcp_alloc+0x76>
 8008428:	4b3a      	ldr	r3, [pc, #232]	; (8008514 <tcp_alloc+0xfc>)
 800842a:	4621      	mov	r1, r4
 800842c:	6828      	ldr	r0, [r5, #0]
 800842e:	681b      	ldr	r3, [r3, #0]
 8008430:	2b00      	cmp	r3, #0
 8008432:	d158      	bne.n	80084e6 <tcp_alloc+0xce>
 8008434:	b114      	cbz	r4, 800843c <tcp_alloc+0x24>
 8008436:	4620      	mov	r0, r4
 8008438:	f7ff ffac 	bl	8008394 <tcp_abort>
 800843c:	2001      	movs	r0, #1
 800843e:	f7fe fe4b 	bl	80070d8 <memp_malloc>
 8008442:	4604      	mov	r4, r0
 8008444:	bb18      	cbnz	r0, 800848e <tcp_alloc+0x76>
 8008446:	2009      	movs	r0, #9
 8008448:	f7ff ffb6 	bl	80083b8 <tcp_kill_state>
 800844c:	2001      	movs	r0, #1
 800844e:	f7fe fe43 	bl	80070d8 <memp_malloc>
 8008452:	4604      	mov	r4, r0
 8008454:	b9d8      	cbnz	r0, 800848e <tcp_alloc+0x76>
 8008456:	2008      	movs	r0, #8
 8008458:	f7ff ffae 	bl	80083b8 <tcp_kill_state>
 800845c:	2001      	movs	r0, #1
 800845e:	f7fe fe3b 	bl	80070d8 <memp_malloc>
 8008462:	4604      	mov	r4, r0
 8008464:	b998      	cbnz	r0, 800848e <tcp_alloc+0x76>
 8008466:	f016 0f80 	tst.w	r6, #128	; 0x80
 800846a:	4b2b      	ldr	r3, [pc, #172]	; (8008518 <tcp_alloc+0x100>)
 800846c:	f8d5 e000 	ldr.w	lr, [r5]
 8008470:	bf0c      	ite	eq
 8008472:	4631      	moveq	r1, r6
 8008474:	217f      	movne	r1, #127	; 0x7f
 8008476:	681b      	ldr	r3, [r3, #0]
 8008478:	2b00      	cmp	r3, #0
 800847a:	d13c      	bne.n	80084f6 <tcp_alloc+0xde>
 800847c:	b114      	cbz	r4, 8008484 <tcp_alloc+0x6c>
 800847e:	4620      	mov	r0, r4
 8008480:	f7ff ff88 	bl	8008394 <tcp_abort>
 8008484:	2001      	movs	r0, #1
 8008486:	f7fe fe27 	bl	80070d8 <memp_malloc>
 800848a:	4604      	mov	r4, r0
 800848c:	b348      	cbz	r0, 80084e2 <tcp_alloc+0xca>
 800848e:	2298      	movs	r2, #152	; 0x98
 8008490:	2100      	movs	r1, #0
 8008492:	4620      	mov	r0, r4
 8008494:	f003 f990 	bl	800b7b8 <memset>
 8008498:	f44f 6206 	mov.w	r2, #2144	; 0x860
 800849c:	f44f 6386 	mov.w	r3, #1072	; 0x430
 80084a0:	7566      	strb	r6, [r4, #21]
 80084a2:	8562      	strh	r2, [r4, #42]	; 0x2a
 80084a4:	8522      	strh	r2, [r4, #40]	; 0x28
 80084a6:	22ff      	movs	r2, #255	; 0xff
 80084a8:	f8a4 3060 	strh.w	r3, [r4, #96]	; 0x60
 80084ac:	72a2      	strb	r2, [r4, #10]
 80084ae:	f44f 7206 	mov.w	r2, #536	; 0x218
 80084b2:	f8a4 304a 	strh.w	r3, [r4, #74]	; 0x4a
 80084b6:	8662      	strh	r2, [r4, #50]	; 0x32
 80084b8:	2206      	movs	r2, #6
 80084ba:	4b18      	ldr	r3, [pc, #96]	; (800851c <tcp_alloc+0x104>)
 80084bc:	f8a4 2040 	strh.w	r2, [r4, #64]	; 0x40
 80084c0:	87e2      	strh	r2, [r4, #62]	; 0x3e
 80084c2:	f64f 72ff 	movw	r2, #65535	; 0xffff
 80084c6:	f8c4 3080 	str.w	r3, [r4, #128]	; 0x80
 80084ca:	8622      	strh	r2, [r4, #48]	; 0x30
 80084cc:	2201      	movs	r2, #1
 80084ce:	4b14      	ldr	r3, [pc, #80]	; (8008520 <tcp_alloc+0x108>)
 80084d0:	f8a4 2048 	strh.w	r2, [r4, #72]	; 0x48
 80084d4:	682a      	ldr	r2, [r5, #0]
 80084d6:	f8c4 3090 	str.w	r3, [r4, #144]	; 0x90
 80084da:	6222      	str	r2, [r4, #32]
 80084dc:	4a11      	ldr	r2, [pc, #68]	; (8008524 <tcp_alloc+0x10c>)
 80084de:	7812      	ldrb	r2, [r2, #0]
 80084e0:	7762      	strb	r2, [r4, #29]
 80084e2:	4620      	mov	r0, r4
 80084e4:	bdf8      	pop	{r3, r4, r5, r6, r7, pc}
 80084e6:	6a1a      	ldr	r2, [r3, #32]
 80084e8:	1a82      	subs	r2, r0, r2
 80084ea:	428a      	cmp	r2, r1
 80084ec:	bf24      	itt	cs
 80084ee:	461c      	movcs	r4, r3
 80084f0:	4611      	movcs	r1, r2
 80084f2:	68db      	ldr	r3, [r3, #12]
 80084f4:	e79c      	b.n	8008430 <tcp_alloc+0x18>
 80084f6:	7d5f      	ldrb	r7, [r3, #21]
 80084f8:	428f      	cmp	r7, r1
 80084fa:	d807      	bhi.n	800850c <tcp_alloc+0xf4>
 80084fc:	6a1a      	ldr	r2, [r3, #32]
 80084fe:	ebae 0202 	sub.w	r2, lr, r2
 8008502:	4282      	cmp	r2, r0
 8008504:	bf22      	ittt	cs
 8008506:	4639      	movcs	r1, r7
 8008508:	4610      	movcs	r0, r2
 800850a:	461c      	movcs	r4, r3
 800850c:	68db      	ldr	r3, [r3, #12]
 800850e:	e7b3      	b.n	8008478 <tcp_alloc+0x60>
 8008510:	200077f8 	.word	0x200077f8
 8008514:	20007804 	.word	0x20007804
 8008518:	200077f4 	.word	0x200077f4
 800851c:	08008179 	.word	0x08008179
 8008520:	006ddd00 	.word	0x006ddd00
 8008524:	2000408e 	.word	0x2000408e

08008528 <tcp_next_iss>:
 8008528:	4b03      	ldr	r3, [pc, #12]	; (8008538 <tcp_next_iss+0x10>)
 800852a:	4a04      	ldr	r2, [pc, #16]	; (800853c <tcp_next_iss+0x14>)
 800852c:	6818      	ldr	r0, [r3, #0]
 800852e:	6812      	ldr	r2, [r2, #0]
 8008530:	4410      	add	r0, r2
 8008532:	6018      	str	r0, [r3, #0]
 8008534:	4770      	bx	lr
 8008536:	bf00      	nop
 8008538:	20000118 	.word	0x20000118
 800853c:	200077f8 	.word	0x200077f8

08008540 <tcp_eff_send_mss_impl>:
 8008540:	b510      	push	{r4, lr}
 8008542:	4604      	mov	r4, r0
 8008544:	4608      	mov	r0, r1
 8008546:	f7fd fe27 	bl	8006198 <ip4_route>
 800854a:	b130      	cbz	r0, 800855a <tcp_eff_send_mss_impl+0x1a>
 800854c:	8c43      	ldrh	r3, [r0, #34]	; 0x22
 800854e:	b123      	cbz	r3, 800855a <tcp_eff_send_mss_impl+0x1a>
 8008550:	3b28      	subs	r3, #40	; 0x28
 8008552:	b29b      	uxth	r3, r3
 8008554:	429c      	cmp	r4, r3
 8008556:	bf28      	it	cs
 8008558:	461c      	movcs	r4, r3
 800855a:	4620      	mov	r0, r4
 800855c:	bd10      	pop	{r4, pc}
	...

08008560 <tcp_netif_ip_addr_changed>:
 8008560:	b538      	push	{r3, r4, r5, lr}
 8008562:	460d      	mov	r5, r1
 8008564:	4604      	mov	r4, r0
 8008566:	b180      	cbz	r0, 800858a <tcp_netif_ip_addr_changed+0x2a>
 8008568:	6803      	ldr	r3, [r0, #0]
 800856a:	b173      	cbz	r3, 800858a <tcp_netif_ip_addr_changed+0x2a>
 800856c:	4b0c      	ldr	r3, [pc, #48]	; (80085a0 <tcp_netif_ip_addr_changed+0x40>)
 800856e:	6819      	ldr	r1, [r3, #0]
 8008570:	f7ff ff13 	bl	800839a <tcp_netif_ip_addr_changed_pcblist>
 8008574:	4b0b      	ldr	r3, [pc, #44]	; (80085a4 <tcp_netif_ip_addr_changed+0x44>)
 8008576:	4620      	mov	r0, r4
 8008578:	6819      	ldr	r1, [r3, #0]
 800857a:	f7ff ff0e 	bl	800839a <tcp_netif_ip_addr_changed_pcblist>
 800857e:	b125      	cbz	r5, 800858a <tcp_netif_ip_addr_changed+0x2a>
 8008580:	682b      	ldr	r3, [r5, #0]
 8008582:	b113      	cbz	r3, 800858a <tcp_netif_ip_addr_changed+0x2a>
 8008584:	4b08      	ldr	r3, [pc, #32]	; (80085a8 <tcp_netif_ip_addr_changed+0x48>)
 8008586:	681b      	ldr	r3, [r3, #0]
 8008588:	b903      	cbnz	r3, 800858c <tcp_netif_ip_addr_changed+0x2c>
 800858a:	bd38      	pop	{r3, r4, r5, pc}
 800858c:	6818      	ldr	r0, [r3, #0]
 800858e:	6821      	ldr	r1, [r4, #0]
 8008590:	68da      	ldr	r2, [r3, #12]
 8008592:	4288      	cmp	r0, r1
 8008594:	bf04      	itt	eq
 8008596:	6829      	ldreq	r1, [r5, #0]
 8008598:	6019      	streq	r1, [r3, #0]
 800859a:	4613      	mov	r3, r2
 800859c:	e7f4      	b.n	8008588 <tcp_netif_ip_addr_changed+0x28>
 800859e:	bf00      	nop
 80085a0:	200077f4 	.word	0x200077f4
 80085a4:	20007800 	.word	0x20007800
 80085a8:	200077fc 	.word	0x200077fc

080085ac <tcp_oos_insert_segment>:
 80085ac:	68c3      	ldr	r3, [r0, #12]
 80085ae:	e92d 41f0 	stmdb	sp!, {r4, r5, r6, r7, r8, lr}
 80085b2:	4605      	mov	r5, r0
 80085b4:	8998      	ldrh	r0, [r3, #12]
 80085b6:	460c      	mov	r4, r1
 80085b8:	f7fd f958 	bl	800586c <lwip_htons>
 80085bc:	07c2      	lsls	r2, r0, #31
 80085be:	d415      	bmi.n	80085ec <tcp_oos_insert_segment+0x40>
 80085c0:	4e18      	ldr	r6, [pc, #96]	; (8008624 <tcp_oos_insert_segment+0x78>)
 80085c2:	b1bc      	cbz	r4, 80085f4 <tcp_oos_insert_segment+0x48>
 80085c4:	68e7      	ldr	r7, [r4, #12]
 80085c6:	6830      	ldr	r0, [r6, #0]
 80085c8:	892b      	ldrh	r3, [r5, #8]
 80085ca:	6879      	ldr	r1, [r7, #4]
 80085cc:	8922      	ldrh	r2, [r4, #8]
 80085ce:	4403      	add	r3, r0
 80085d0:	440a      	add	r2, r1
 80085d2:	1a9a      	subs	r2, r3, r2
 80085d4:	2a00      	cmp	r2, #0
 80085d6:	da10      	bge.n	80085fa <tcp_oos_insert_segment+0x4e>
 80085d8:	1a5b      	subs	r3, r3, r1
 80085da:	2b00      	cmp	r3, #0
 80085dc:	dd0a      	ble.n	80085f4 <tcp_oos_insert_segment+0x48>
 80085de:	1a09      	subs	r1, r1, r0
 80085e0:	6868      	ldr	r0, [r5, #4]
 80085e2:	b289      	uxth	r1, r1
 80085e4:	8129      	strh	r1, [r5, #8]
 80085e6:	f7ff f85f 	bl	80076a8 <pbuf_realloc>
 80085ea:	e003      	b.n	80085f4 <tcp_oos_insert_segment+0x48>
 80085ec:	4620      	mov	r0, r4
 80085ee:	2400      	movs	r4, #0
 80085f0:	f7ff faa2 	bl	8007b38 <tcp_segs_free>
 80085f4:	602c      	str	r4, [r5, #0]
 80085f6:	e8bd 81f0 	ldmia.w	sp!, {r4, r5, r6, r7, r8, pc}
 80085fa:	89b8      	ldrh	r0, [r7, #12]
 80085fc:	f7fd f936 	bl	800586c <lwip_htons>
 8008600:	07c3      	lsls	r3, r0, #31
 8008602:	d509      	bpl.n	8008618 <tcp_oos_insert_segment+0x6c>
 8008604:	f8d5 800c 	ldr.w	r8, [r5, #12]
 8008608:	2001      	movs	r0, #1
 800860a:	f8b8 700c 	ldrh.w	r7, [r8, #12]
 800860e:	f7fd f92d 	bl	800586c <lwip_htons>
 8008612:	4338      	orrs	r0, r7
 8008614:	f8a8 000c 	strh.w	r0, [r8, #12]
 8008618:	6827      	ldr	r7, [r4, #0]
 800861a:	4620      	mov	r0, r4
 800861c:	f7ff fa7e 	bl	8007b1c <tcp_seg_free>
 8008620:	463c      	mov	r4, r7
 8008622:	e7ce      	b.n	80085c2 <tcp_oos_insert_segment+0x16>
 8008624:	200040b4 	.word	0x200040b4

08008628 <tcp_receive>:
 8008628:	7d03      	ldrb	r3, [r0, #20]
 800862a:	2b03      	cmp	r3, #3
 800862c:	e92d 4ff7 	stmdb	sp!, {r0, r1, r2, r4, r5, r6, r7, r8, r9, sl, fp, lr}
 8008630:	4604      	mov	r4, r0
 8008632:	d806      	bhi.n	8008642 <tcp_receive+0x1a>
 8008634:	4b89      	ldr	r3, [pc, #548]	; (800885c <tcp_receive+0x234>)
 8008636:	f44f 6281 	mov.w	r2, #1032	; 0x408
 800863a:	4989      	ldr	r1, [pc, #548]	; (8008860 <tcp_receive+0x238>)
 800863c:	4889      	ldr	r0, [pc, #548]	; (8008864 <tcp_receive+0x23c>)
 800863e:	f003 f96f 	bl	800b920 <iprintf>
 8008642:	4b89      	ldr	r3, [pc, #548]	; (8008868 <tcp_receive+0x240>)
 8008644:	4e89      	ldr	r6, [pc, #548]	; (800886c <tcp_receive+0x244>)
 8008646:	781b      	ldrb	r3, [r3, #0]
 8008648:	f013 0f10 	tst.w	r3, #16
 800864c:	f000 8180 	beq.w	8008950 <tcp_receive+0x328>
 8008650:	6d23      	ldr	r3, [r4, #80]	; 0x50
 8008652:	6830      	ldr	r0, [r6, #0]
 8008654:	f8b4 205c 	ldrh.w	r2, [r4, #92]	; 0x5c
 8008658:	1a1d      	subs	r5, r3, r0
 800865a:	6d61      	ldr	r1, [r4, #84]	; 0x54
 800865c:	2d00      	cmp	r5, #0
 800865e:	4d84      	ldr	r5, [pc, #528]	; (8008870 <tcp_receive+0x248>)
 8008660:	db0d      	blt.n	800867e <tcp_receive+0x56>
 8008662:	4283      	cmp	r3, r0
 8008664:	d103      	bne.n	800866e <tcp_receive+0x46>
 8008666:	682b      	ldr	r3, [r5, #0]
 8008668:	1acb      	subs	r3, r1, r3
 800866a:	2b00      	cmp	r3, #0
 800866c:	db07      	blt.n	800867e <tcp_receive+0x56>
 800866e:	682b      	ldr	r3, [r5, #0]
 8008670:	4299      	cmp	r1, r3
 8008672:	d11c      	bne.n	80086ae <tcp_receive+0x86>
 8008674:	4b7f      	ldr	r3, [pc, #508]	; (8008874 <tcp_receive+0x24c>)
 8008676:	681b      	ldr	r3, [r3, #0]
 8008678:	89db      	ldrh	r3, [r3, #14]
 800867a:	4293      	cmp	r3, r2
 800867c:	d917      	bls.n	80086ae <tcp_receive+0x86>
 800867e:	4b7d      	ldr	r3, [pc, #500]	; (8008874 <tcp_receive+0x24c>)
 8008680:	f8b4 e05e 	ldrh.w	lr, [r4, #94]	; 0x5e
 8008684:	681b      	ldr	r3, [r3, #0]
 8008686:	89df      	ldrh	r7, [r3, #14]
 8008688:	6520      	str	r0, [r4, #80]	; 0x50
 800868a:	45be      	cmp	lr, r7
 800868c:	6828      	ldr	r0, [r5, #0]
 800868e:	f8a4 705c 	strh.w	r7, [r4, #92]	; 0x5c
 8008692:	6560      	str	r0, [r4, #84]	; 0x54
 8008694:	bf38      	it	cc
 8008696:	f8a4 705e 	strhcc.w	r7, [r4, #94]	; 0x5e
 800869a:	f894 0095 	ldrb.w	r0, [r4, #149]	; 0x95
 800869e:	2f00      	cmp	r7, #0
 80086a0:	d13c      	bne.n	800871c <tcp_receive+0xf4>
 80086a2:	b920      	cbnz	r0, 80086ae <tcp_receive+0x86>
 80086a4:	2301      	movs	r3, #1
 80086a6:	f884 7094 	strb.w	r7, [r4, #148]	; 0x94
 80086aa:	f884 3095 	strb.w	r3, [r4, #149]	; 0x95
 80086ae:	682b      	ldr	r3, [r5, #0]
 80086b0:	f8d4 e044 	ldr.w	lr, [r4, #68]	; 0x44
 80086b4:	4f70      	ldr	r7, [pc, #448]	; (8008878 <tcp_receive+0x250>)
 80086b6:	eba3 000e 	sub.w	r0, r3, lr
 80086ba:	2800      	cmp	r0, #0
 80086bc:	dc37      	bgt.n	800872e <tcp_receive+0x106>
 80086be:	486f      	ldr	r0, [pc, #444]	; (800887c <tcp_receive+0x254>)
 80086c0:	8800      	ldrh	r0, [r0, #0]
 80086c2:	2800      	cmp	r0, #0
 80086c4:	f040 8476 	bne.w	8008fb4 <tcp_receive+0x98c>
 80086c8:	440a      	add	r2, r1
 80086ca:	6d60      	ldr	r0, [r4, #84]	; 0x54
 80086cc:	f8b4 105c 	ldrh.w	r1, [r4, #92]	; 0x5c
 80086d0:	4401      	add	r1, r0
 80086d2:	428a      	cmp	r2, r1
 80086d4:	f040 846e 	bne.w	8008fb4 <tcp_receive+0x98c>
 80086d8:	f9b4 2030 	ldrsh.w	r2, [r4, #48]	; 0x30
 80086dc:	2a00      	cmp	r2, #0
 80086de:	f2c0 8469 	blt.w	8008fb4 <tcp_receive+0x98c>
 80086e2:	4573      	cmp	r3, lr
 80086e4:	f040 8466 	bne.w	8008fb4 <tcp_receive+0x98c>
 80086e8:	f894 2043 	ldrb.w	r2, [r4, #67]	; 0x43
 80086ec:	1c53      	adds	r3, r2, #1
 80086ee:	b2db      	uxtb	r3, r3
 80086f0:	429a      	cmp	r2, r3
 80086f2:	bf38      	it	cc
 80086f4:	f884 3043 	strbcc.w	r3, [r4, #67]	; 0x43
 80086f8:	f894 3043 	ldrb.w	r3, [r4, #67]	; 0x43
 80086fc:	2b03      	cmp	r3, #3
 80086fe:	d911      	bls.n	8008724 <tcp_receive+0xfc>
 8008700:	f8b4 2048 	ldrh.w	r2, [r4, #72]	; 0x48
 8008704:	8e63      	ldrh	r3, [r4, #50]	; 0x32
 8008706:	4413      	add	r3, r2
 8008708:	b29b      	uxth	r3, r3
 800870a:	429a      	cmp	r2, r3
 800870c:	d201      	bcs.n	8008712 <tcp_receive+0xea>
 800870e:	f8a4 3048 	strh.w	r3, [r4, #72]	; 0x48
 8008712:	f8df a148 	ldr.w	sl, [pc, #328]	; 800885c <tcp_receive+0x234>
 8008716:	f8df 914c 	ldr.w	r9, [pc, #332]	; 8008864 <tcp_receive+0x23c>
 800871a:	e10c      	b.n	8008936 <tcp_receive+0x30e>
 800871c:	2800      	cmp	r0, #0
 800871e:	d0c6      	beq.n	80086ae <tcp_receive+0x86>
 8008720:	2300      	movs	r3, #0
 8008722:	e7c2      	b.n	80086aa <tcp_receive+0x82>
 8008724:	d1f5      	bne.n	8008712 <tcp_receive+0xea>
 8008726:	4620      	mov	r0, r4
 8008728:	f001 fd7d 	bl	800a226 <tcp_rexmit_fast>
 800872c:	e7f1      	b.n	8008712 <tcp_receive+0xea>
 800872e:	6ce2      	ldr	r2, [r4, #76]	; 0x4c
 8008730:	1a9a      	subs	r2, r3, r2
 8008732:	2a00      	cmp	r2, #0
 8008734:	f300 808d 	bgt.w	8008852 <tcp_receive+0x22a>
 8008738:	7ea2      	ldrb	r2, [r4, #26]
 800873a:	f9b4 003c 	ldrsh.w	r0, [r4, #60]	; 0x3c
 800873e:	0751      	lsls	r1, r2, #29
 8008740:	6463      	str	r3, [r4, #68]	; 0x44
 8008742:	7d23      	ldrb	r3, [r4, #20]
 8008744:	f04f 0100 	mov.w	r1, #0
 8008748:	bf48      	it	mi
 800874a:	f022 0204 	bicmi.w	r2, r2, #4
 800874e:	f884 1042 	strb.w	r1, [r4, #66]	; 0x42
 8008752:	bf44      	itt	mi
 8008754:	76a2      	strbmi	r2, [r4, #26]
 8008756:	f8b4 204a 	ldrhmi.w	r2, [r4, #74]	; 0x4a
 800875a:	f884 1043 	strb.w	r1, [r4, #67]	; 0x43
 800875e:	bf48      	it	mi
 8008760:	f8a4 2048 	strhmi.w	r2, [r4, #72]	; 0x48
 8008764:	2b03      	cmp	r3, #3
 8008766:	8fe2      	ldrh	r2, [r4, #62]	; 0x3e
 8008768:	eb02 02e0 	add.w	r2, r2, r0, asr #3
 800876c:	f8a4 2040 	strh.w	r2, [r4, #64]	; 0x40
 8008770:	d90f      	bls.n	8008792 <tcp_receive+0x16a>
 8008772:	f8b4 2048 	ldrh.w	r2, [r4, #72]	; 0x48
 8008776:	f8b4 304a 	ldrh.w	r3, [r4, #74]	; 0x4a
 800877a:	4293      	cmp	r3, r2
 800877c:	8e63      	ldrh	r3, [r4, #50]	; 0x32
 800877e:	bf9c      	itt	ls
 8008780:	435b      	mulls	r3, r3
 8008782:	fb93 f3f2 	sdivls	r3, r3, r2
 8008786:	4413      	add	r3, r2
 8008788:	b29b      	uxth	r3, r3
 800878a:	429a      	cmp	r2, r3
 800878c:	bf38      	it	cc
 800878e:	f8a4 3048 	strhcc.w	r3, [r4, #72]	; 0x48
 8008792:	f8df 90c8 	ldr.w	r9, [pc, #200]	; 800885c <tcp_receive+0x234>
 8008796:	f8df a0cc 	ldr.w	sl, [pc, #204]	; 8008864 <tcp_receive+0x23c>
 800879a:	6ee3      	ldr	r3, [r4, #108]	; 0x6c
 800879c:	b943      	cbnz	r3, 80087b0 <tcp_receive+0x188>
 800879e:	6ee2      	ldr	r2, [r4, #108]	; 0x6c
 80087a0:	2300      	movs	r3, #0
 80087a2:	2a00      	cmp	r2, #0
 80087a4:	d153      	bne.n	800884e <tcp_receive+0x226>
 80087a6:	f64f 72ff 	movw	r2, #65535	; 0xffff
 80087aa:	8622      	strh	r2, [r4, #48]	; 0x30
 80087ac:	76e3      	strb	r3, [r4, #27]
 80087ae:	e7b0      	b.n	8008712 <tcp_receive+0xea>
 80087b0:	68db      	ldr	r3, [r3, #12]
 80087b2:	6858      	ldr	r0, [r3, #4]
 80087b4:	f7fd f85d 	bl	8005872 <lwip_htonl>
 80087b8:	6ee3      	ldr	r3, [r4, #108]	; 0x6c
 80087ba:	4683      	mov	fp, r0
 80087bc:	f8b3 8008 	ldrh.w	r8, [r3, #8]
 80087c0:	68db      	ldr	r3, [r3, #12]
 80087c2:	8998      	ldrh	r0, [r3, #12]
 80087c4:	f7fd f852 	bl	800586c <lwip_htons>
 80087c8:	682b      	ldr	r3, [r5, #0]
 80087ca:	f010 0003 	ands.w	r0, r0, #3
 80087ce:	eba8 0803 	sub.w	r8, r8, r3
 80087d2:	bf18      	it	ne
 80087d4:	2001      	movne	r0, #1
 80087d6:	44d8      	add	r8, fp
 80087d8:	4480      	add	r8, r0
 80087da:	f1b8 0f00 	cmp.w	r8, #0
 80087de:	dcde      	bgt.n	800879e <tcp_receive+0x176>
 80087e0:	f8d4 806c 	ldr.w	r8, [r4, #108]	; 0x6c
 80087e4:	f8b4 b062 	ldrh.w	fp, [r4, #98]	; 0x62
 80087e8:	f8d8 3000 	ldr.w	r3, [r8]
 80087ec:	f8d8 0004 	ldr.w	r0, [r8, #4]
 80087f0:	66e3      	str	r3, [r4, #108]	; 0x6c
 80087f2:	f7fe ffc9 	bl	8007788 <pbuf_clen>
 80087f6:	4583      	cmp	fp, r0
 80087f8:	d206      	bcs.n	8008808 <tcp_receive+0x1e0>
 80087fa:	464b      	mov	r3, r9
 80087fc:	f240 429e 	movw	r2, #1182	; 0x49e
 8008800:	491f      	ldr	r1, [pc, #124]	; (8008880 <tcp_receive+0x258>)
 8008802:	4650      	mov	r0, sl
 8008804:	f003 f88c 	bl	800b920 <iprintf>
 8008808:	f8d8 0004 	ldr.w	r0, [r8, #4]
 800880c:	f7fe ffbc 	bl	8007788 <pbuf_clen>
 8008810:	f8b4 3062 	ldrh.w	r3, [r4, #98]	; 0x62
 8008814:	883a      	ldrh	r2, [r7, #0]
 8008816:	1a18      	subs	r0, r3, r0
 8008818:	f8b8 3008 	ldrh.w	r3, [r8, #8]
 800881c:	4413      	add	r3, r2
 800881e:	f8a4 0062 	strh.w	r0, [r4, #98]	; 0x62
 8008822:	4640      	mov	r0, r8
 8008824:	803b      	strh	r3, [r7, #0]
 8008826:	f7ff f979 	bl	8007b1c <tcp_seg_free>
 800882a:	f8b4 3062 	ldrh.w	r3, [r4, #98]	; 0x62
 800882e:	2b00      	cmp	r3, #0
 8008830:	d0b3      	beq.n	800879a <tcp_receive+0x172>
 8008832:	6ee3      	ldr	r3, [r4, #108]	; 0x6c
 8008834:	2b00      	cmp	r3, #0
 8008836:	d1b0      	bne.n	800879a <tcp_receive+0x172>
 8008838:	6ea3      	ldr	r3, [r4, #104]	; 0x68
 800883a:	2b00      	cmp	r3, #0
 800883c:	d1ad      	bne.n	800879a <tcp_receive+0x172>
 800883e:	464b      	mov	r3, r9
 8008840:	f240 42a7 	movw	r2, #1191	; 0x4a7
 8008844:	490f      	ldr	r1, [pc, #60]	; (8008884 <tcp_receive+0x25c>)
 8008846:	4650      	mov	r0, sl
 8008848:	f003 f86a 	bl	800b920 <iprintf>
 800884c:	e7a5      	b.n	800879a <tcp_receive+0x172>
 800884e:	8623      	strh	r3, [r4, #48]	; 0x30
 8008850:	e7ac      	b.n	80087ac <tcp_receive+0x184>
 8008852:	4620      	mov	r0, r4
 8008854:	f001 fa94 	bl	8009d80 <tcp_send_empty_ack>
 8008858:	e75b      	b.n	8008712 <tcp_receive+0xea>
 800885a:	bf00      	nop
 800885c:	0800d6b8 	.word	0x0800d6b8
 8008860:	0800d6ea 	.word	0x0800d6ea
 8008864:	0800c6ba 	.word	0x0800c6ba
 8008868:	20004094 	.word	0x20004094
 800886c:	200040b4 	.word	0x200040b4
 8008870:	20004090 	.word	0x20004090
 8008874:	200040bc 	.word	0x200040bc
 8008878:	200040a8 	.word	0x200040a8
 800887c:	200040ca 	.word	0x200040ca
 8008880:	0800d703 	.word	0x0800d703
 8008884:	0800d72b 	.word	0x0800d72b
 8008888:	682a      	ldr	r2, [r5, #0]
 800888a:	68db      	ldr	r3, [r3, #12]
 800888c:	9201      	str	r2, [sp, #4]
 800888e:	6858      	ldr	r0, [r3, #4]
 8008890:	f7fc ffef 	bl	8005872 <lwip_htonl>
 8008894:	6ea3      	ldr	r3, [r4, #104]	; 0x68
 8008896:	4683      	mov	fp, r0
 8008898:	f8b3 8008 	ldrh.w	r8, [r3, #8]
 800889c:	68db      	ldr	r3, [r3, #12]
 800889e:	8998      	ldrh	r0, [r3, #12]
 80088a0:	f7fc ffe4 	bl	800586c <lwip_htons>
 80088a4:	9a01      	ldr	r2, [sp, #4]
 80088a6:	f010 0003 	ands.w	r0, r0, #3
 80088aa:	eba2 0808 	sub.w	r8, r2, r8
 80088ae:	bf18      	it	ne
 80088b0:	2001      	movne	r0, #1
 80088b2:	eba8 080b 	sub.w	r8, r8, fp
 80088b6:	eba8 0800 	sub.w	r8, r8, r0
 80088ba:	f1b8 0f00 	cmp.w	r8, #0
 80088be:	db3d      	blt.n	800893c <tcp_receive+0x314>
 80088c0:	682b      	ldr	r3, [r5, #0]
 80088c2:	6ce2      	ldr	r2, [r4, #76]	; 0x4c
 80088c4:	1a9b      	subs	r3, r3, r2
 80088c6:	2b00      	cmp	r3, #0
 80088c8:	dc38      	bgt.n	800893c <tcp_receive+0x314>
 80088ca:	f8d4 8068 	ldr.w	r8, [r4, #104]	; 0x68
 80088ce:	f8d8 3000 	ldr.w	r3, [r8]
 80088d2:	66a3      	str	r3, [r4, #104]	; 0x68
 80088d4:	b90b      	cbnz	r3, 80088da <tcp_receive+0x2b2>
 80088d6:	f8a4 3064 	strh.w	r3, [r4, #100]	; 0x64
 80088da:	f8b4 b062 	ldrh.w	fp, [r4, #98]	; 0x62
 80088de:	f8d8 0004 	ldr.w	r0, [r8, #4]
 80088e2:	f7fe ff51 	bl	8007788 <pbuf_clen>
 80088e6:	4583      	cmp	fp, r0
 80088e8:	d206      	bcs.n	80088f8 <tcp_receive+0x2d0>
 80088ea:	4653      	mov	r3, sl
 80088ec:	f240 42d5 	movw	r2, #1237	; 0x4d5
 80088f0:	49ba      	ldr	r1, [pc, #744]	; (8008bdc <tcp_receive+0x5b4>)
 80088f2:	4648      	mov	r0, r9
 80088f4:	f003 f814 	bl	800b920 <iprintf>
 80088f8:	f8d8 0004 	ldr.w	r0, [r8, #4]
 80088fc:	f7fe ff44 	bl	8007788 <pbuf_clen>
 8008900:	f8b4 3062 	ldrh.w	r3, [r4, #98]	; 0x62
 8008904:	883a      	ldrh	r2, [r7, #0]
 8008906:	1a18      	subs	r0, r3, r0
 8008908:	f8b8 3008 	ldrh.w	r3, [r8, #8]
 800890c:	4413      	add	r3, r2
 800890e:	f8a4 0062 	strh.w	r0, [r4, #98]	; 0x62
 8008912:	4640      	mov	r0, r8
 8008914:	803b      	strh	r3, [r7, #0]
 8008916:	f7ff f901 	bl	8007b1c <tcp_seg_free>
 800891a:	f8b4 3062 	ldrh.w	r3, [r4, #98]	; 0x62
 800891e:	b153      	cbz	r3, 8008936 <tcp_receive+0x30e>
 8008920:	6ee3      	ldr	r3, [r4, #108]	; 0x6c
 8008922:	b943      	cbnz	r3, 8008936 <tcp_receive+0x30e>
 8008924:	6ea3      	ldr	r3, [r4, #104]	; 0x68
 8008926:	b933      	cbnz	r3, 8008936 <tcp_receive+0x30e>
 8008928:	4653      	mov	r3, sl
 800892a:	f240 42dd 	movw	r2, #1245	; 0x4dd
 800892e:	49ac      	ldr	r1, [pc, #688]	; (8008be0 <tcp_receive+0x5b8>)
 8008930:	4648      	mov	r0, r9
 8008932:	f002 fff5 	bl	800b920 <iprintf>
 8008936:	6ea3      	ldr	r3, [r4, #104]	; 0x68
 8008938:	2b00      	cmp	r3, #0
 800893a:	d1a5      	bne.n	8008888 <tcp_receive+0x260>
 800893c:	f8b4 3060 	ldrh.w	r3, [r4, #96]	; 0x60
 8008940:	883a      	ldrh	r2, [r7, #0]
 8008942:	4413      	add	r3, r2
 8008944:	6b62      	ldr	r2, [r4, #52]	; 0x34
 8008946:	f8a4 3060 	strh.w	r3, [r4, #96]	; 0x60
 800894a:	2a00      	cmp	r2, #0
 800894c:	f040 8117 	bne.w	8008b7e <tcp_receive+0x556>
 8008950:	4fa4      	ldr	r7, [pc, #656]	; (8008be4 <tcp_receive+0x5bc>)
 8008952:	6a62      	ldr	r2, [r4, #36]	; 0x24
 8008954:	8838      	ldrh	r0, [r7, #0]
 8008956:	2800      	cmp	r0, #0
 8008958:	f000 831f 	beq.w	8008f9a <tcp_receive+0x972>
 800895c:	7d23      	ldrb	r3, [r4, #20]
 800895e:	2b06      	cmp	r3, #6
 8008960:	f200 831b 	bhi.w	8008f9a <tcp_receive+0x972>
 8008964:	6833      	ldr	r3, [r6, #0]
 8008966:	1ad5      	subs	r5, r2, r3
 8008968:	2d01      	cmp	r5, #1
 800896a:	f100 815c 	bmi.w	8008c26 <tcp_receive+0x5fe>
 800896e:	f1c3 0101 	rsb	r1, r3, #1
 8008972:	1a09      	subs	r1, r1, r0
 8008974:	4411      	add	r1, r2
 8008976:	2900      	cmp	r1, #0
 8008978:	f300 8155 	bgt.w	8008c26 <tcp_receive+0x5fe>
 800897c:	4b9a      	ldr	r3, [pc, #616]	; (8008be8 <tcp_receive+0x5c0>)
 800897e:	46aa      	mov	sl, r5
 8008980:	f8d3 9004 	ldr.w	r9, [r3, #4]
 8008984:	4698      	mov	r8, r3
 8008986:	f1b9 0f00 	cmp.w	r9, #0
 800898a:	d106      	bne.n	800899a <tcp_receive+0x372>
 800898c:	4b97      	ldr	r3, [pc, #604]	; (8008bec <tcp_receive+0x5c4>)
 800898e:	f240 523c 	movw	r2, #1340	; 0x53c
 8008992:	4997      	ldr	r1, [pc, #604]	; (8008bf0 <tcp_receive+0x5c8>)
 8008994:	4897      	ldr	r0, [pc, #604]	; (8008bf4 <tcp_receive+0x5cc>)
 8008996:	f002 ffc3 	bl	800b920 <iprintf>
 800899a:	f647 73fe 	movw	r3, #32766	; 0x7ffe
 800899e:	429d      	cmp	r5, r3
 80089a0:	dd06      	ble.n	80089b0 <tcp_receive+0x388>
 80089a2:	4b92      	ldr	r3, [pc, #584]	; (8008bec <tcp_receive+0x5c4>)
 80089a4:	f240 523d 	movw	r2, #1341	; 0x53d
 80089a8:	4993      	ldr	r1, [pc, #588]	; (8008bf8 <tcp_receive+0x5d0>)
 80089aa:	4892      	ldr	r0, [pc, #584]	; (8008bf4 <tcp_receive+0x5cc>)
 80089ac:	f002 ffb8 	bl	800b920 <iprintf>
 80089b0:	f8d8 0004 	ldr.w	r0, [r8, #4]
 80089b4:	8943      	ldrh	r3, [r0, #10]
 80089b6:	429d      	cmp	r5, r3
 80089b8:	f340 812a 	ble.w	8008c10 <tcp_receive+0x5e8>
 80089bc:	8903      	ldrh	r3, [r0, #8]
 80089be:	429d      	cmp	r5, r3
 80089c0:	dd06      	ble.n	80089d0 <tcp_receive+0x3a8>
 80089c2:	4b8a      	ldr	r3, [pc, #552]	; (8008bec <tcp_receive+0x5c4>)
 80089c4:	f240 523f 	movw	r2, #1343	; 0x53f
 80089c8:	498c      	ldr	r1, [pc, #560]	; (8008bfc <tcp_receive+0x5d4>)
 80089ca:	488a      	ldr	r0, [pc, #552]	; (8008bf4 <tcp_receive+0x5cc>)
 80089cc:	f002 ffa8 	bl	800b920 <iprintf>
 80089d0:	f8d8 3004 	ldr.w	r3, [r8, #4]
 80089d4:	2200      	movs	r2, #0
 80089d6:	8919      	ldrh	r1, [r3, #8]
 80089d8:	1b4d      	subs	r5, r1, r5
 80089da:	b2ad      	uxth	r5, r5
 80089dc:	f8b9 300a 	ldrh.w	r3, [r9, #10]
 80089e0:	459a      	cmp	sl, r3
 80089e2:	f300 80f1 	bgt.w	8008bc8 <tcp_receive+0x5a0>
 80089e6:	f1ca 0100 	rsb	r1, sl, #0
 80089ea:	4648      	mov	r0, r9
 80089ec:	b209      	sxth	r1, r1
 80089ee:	f7fe fd0f 	bl	8007410 <pbuf_header>
 80089f2:	b130      	cbz	r0, 8008a02 <tcp_receive+0x3da>
 80089f4:	4b7d      	ldr	r3, [pc, #500]	; (8008bec <tcp_receive+0x5c4>)
 80089f6:	f240 524c 	movw	r2, #1356	; 0x54c
 80089fa:	4981      	ldr	r1, [pc, #516]	; (8008c00 <tcp_receive+0x5d8>)
 80089fc:	487d      	ldr	r0, [pc, #500]	; (8008bf4 <tcp_receive+0x5cc>)
 80089fe:	f002 ff8f 	bl	800b920 <iprintf>
 8008a02:	f8b8 1008 	ldrh.w	r1, [r8, #8]
 8008a06:	6833      	ldr	r3, [r6, #0]
 8008a08:	6a62      	ldr	r2, [r4, #36]	; 0x24
 8008a0a:	440b      	add	r3, r1
 8008a0c:	6032      	str	r2, [r6, #0]
 8008a0e:	1a9b      	subs	r3, r3, r2
 8008a10:	f8a8 3008 	strh.w	r3, [r8, #8]
 8008a14:	f8d8 300c 	ldr.w	r3, [r8, #12]
 8008a18:	605a      	str	r2, [r3, #4]
 8008a1a:	6831      	ldr	r1, [r6, #0]
 8008a1c:	6a62      	ldr	r2, [r4, #36]	; 0x24
 8008a1e:	1a8b      	subs	r3, r1, r2
 8008a20:	2b00      	cmp	r3, #0
 8008a22:	f2c0 82b4 	blt.w	8008f8e <tcp_receive+0x966>
 8008a26:	1c4b      	adds	r3, r1, #1
 8008a28:	8d20      	ldrh	r0, [r4, #40]	; 0x28
 8008a2a:	1a9b      	subs	r3, r3, r2
 8008a2c:	1a1b      	subs	r3, r3, r0
 8008a2e:	2b00      	cmp	r3, #0
 8008a30:	f300 82ad 	bgt.w	8008f8e <tcp_receive+0x966>
 8008a34:	4291      	cmp	r1, r2
 8008a36:	f040 81ca 	bne.w	8008dce <tcp_receive+0x7a6>
 8008a3a:	4d6b      	ldr	r5, [pc, #428]	; (8008be8 <tcp_receive+0x5c0>)
 8008a3c:	68eb      	ldr	r3, [r5, #12]
 8008a3e:	f8b5 8008 	ldrh.w	r8, [r5, #8]
 8008a42:	8998      	ldrh	r0, [r3, #12]
 8008a44:	f7fc ff12 	bl	800586c <lwip_htons>
 8008a48:	f010 0003 	ands.w	r0, r0, #3
 8008a4c:	8d23      	ldrh	r3, [r4, #40]	; 0x28
 8008a4e:	bf18      	it	ne
 8008a50:	2001      	movne	r0, #1
 8008a52:	4440      	add	r0, r8
 8008a54:	b280      	uxth	r0, r0
 8008a56:	4283      	cmp	r3, r0
 8008a58:	8038      	strh	r0, [r7, #0]
 8008a5a:	d241      	bcs.n	8008ae0 <tcp_receive+0x4b8>
 8008a5c:	68eb      	ldr	r3, [r5, #12]
 8008a5e:	8998      	ldrh	r0, [r3, #12]
 8008a60:	f7fc ff04 	bl	800586c <lwip_htons>
 8008a64:	07c2      	lsls	r2, r0, #31
 8008a66:	d510      	bpl.n	8008a8a <tcp_receive+0x462>
 8008a68:	f8d5 900c 	ldr.w	r9, [r5, #12]
 8008a6c:	f8b9 800c 	ldrh.w	r8, [r9, #12]
 8008a70:	4640      	mov	r0, r8
 8008a72:	f428 587c 	bic.w	r8, r8, #16128	; 0x3f00
 8008a76:	f7fc fef9 	bl	800586c <lwip_htons>
 8008a7a:	f000 003e 	and.w	r0, r0, #62	; 0x3e
 8008a7e:	f7fc fef5 	bl	800586c <lwip_htons>
 8008a82:	ea40 0808 	orr.w	r8, r0, r8
 8008a86:	f8a9 800c 	strh.w	r8, [r9, #12]
 8008a8a:	8d23      	ldrh	r3, [r4, #40]	; 0x28
 8008a8c:	812b      	strh	r3, [r5, #8]
 8008a8e:	68eb      	ldr	r3, [r5, #12]
 8008a90:	8998      	ldrh	r0, [r3, #12]
 8008a92:	f7fc feeb 	bl	800586c <lwip_htons>
 8008a96:	0783      	lsls	r3, r0, #30
 8008a98:	6868      	ldr	r0, [r5, #4]
 8008a9a:	bf42      	ittt	mi
 8008a9c:	892b      	ldrhmi	r3, [r5, #8]
 8008a9e:	f103 33ff 	addmi.w	r3, r3, #4294967295
 8008aa2:	812b      	strhmi	r3, [r5, #8]
 8008aa4:	8929      	ldrh	r1, [r5, #8]
 8008aa6:	f7fe fdff 	bl	80076a8 <pbuf_realloc>
 8008aaa:	68eb      	ldr	r3, [r5, #12]
 8008aac:	f8b5 8008 	ldrh.w	r8, [r5, #8]
 8008ab0:	8998      	ldrh	r0, [r3, #12]
 8008ab2:	f7fc fedb 	bl	800586c <lwip_htons>
 8008ab6:	f010 0003 	ands.w	r0, r0, #3
 8008aba:	6833      	ldr	r3, [r6, #0]
 8008abc:	bf18      	it	ne
 8008abe:	2001      	movne	r0, #1
 8008ac0:	6a62      	ldr	r2, [r4, #36]	; 0x24
 8008ac2:	4440      	add	r0, r8
 8008ac4:	b280      	uxth	r0, r0
 8008ac6:	8038      	strh	r0, [r7, #0]
 8008ac8:	4418      	add	r0, r3
 8008aca:	8d23      	ldrh	r3, [r4, #40]	; 0x28
 8008acc:	4413      	add	r3, r2
 8008ace:	4298      	cmp	r0, r3
 8008ad0:	d006      	beq.n	8008ae0 <tcp_receive+0x4b8>
 8008ad2:	4b46      	ldr	r3, [pc, #280]	; (8008bec <tcp_receive+0x5c4>)
 8008ad4:	f240 527f 	movw	r2, #1407	; 0x57f
 8008ad8:	494a      	ldr	r1, [pc, #296]	; (8008c04 <tcp_receive+0x5dc>)
 8008ada:	4846      	ldr	r0, [pc, #280]	; (8008bf4 <tcp_receive+0x5cc>)
 8008adc:	f002 ff20 	bl	800b920 <iprintf>
 8008ae0:	6f23      	ldr	r3, [r4, #112]	; 0x70
 8008ae2:	2b00      	cmp	r3, #0
 8008ae4:	f000 80ae 	beq.w	8008c44 <tcp_receive+0x61c>
 8008ae8:	68eb      	ldr	r3, [r5, #12]
 8008aea:	8998      	ldrh	r0, [r3, #12]
 8008aec:	f7fc febe 	bl	800586c <lwip_htons>
 8008af0:	07c0      	lsls	r0, r0, #31
 8008af2:	f100 80a4 	bmi.w	8008c3e <tcp_receive+0x616>
 8008af6:	f8d4 8070 	ldr.w	r8, [r4, #112]	; 0x70
 8008afa:	f1b8 0f00 	cmp.w	r8, #0
 8008afe:	d03b      	beq.n	8008b78 <tcp_receive+0x550>
 8008b00:	f8d8 e00c 	ldr.w	lr, [r8, #12]
 8008b04:	6830      	ldr	r0, [r6, #0]
 8008b06:	883b      	ldrh	r3, [r7, #0]
 8008b08:	f8de 2004 	ldr.w	r2, [lr, #4]
 8008b0c:	f8b8 1008 	ldrh.w	r1, [r8, #8]
 8008b10:	4403      	add	r3, r0
 8008b12:	4411      	add	r1, r2
 8008b14:	1a59      	subs	r1, r3, r1
 8008b16:	2900      	cmp	r1, #0
 8008b18:	f280 80d1 	bge.w	8008cbe <tcp_receive+0x696>
 8008b1c:	1a9b      	subs	r3, r3, r2
 8008b1e:	2b00      	cmp	r3, #0
 8008b20:	dd2a      	ble.n	8008b78 <tcp_receive+0x550>
 8008b22:	68eb      	ldr	r3, [r5, #12]
 8008b24:	1a12      	subs	r2, r2, r0
 8008b26:	812a      	strh	r2, [r5, #8]
 8008b28:	8998      	ldrh	r0, [r3, #12]
 8008b2a:	f7fc fe9f 	bl	800586c <lwip_htons>
 8008b2e:	0783      	lsls	r3, r0, #30
 8008b30:	6868      	ldr	r0, [r5, #4]
 8008b32:	bf42      	ittt	mi
 8008b34:	892b      	ldrhmi	r3, [r5, #8]
 8008b36:	f103 33ff 	addmi.w	r3, r3, #4294967295
 8008b3a:	812b      	strhmi	r3, [r5, #8]
 8008b3c:	8929      	ldrh	r1, [r5, #8]
 8008b3e:	f7fe fdb3 	bl	80076a8 <pbuf_realloc>
 8008b42:	68eb      	ldr	r3, [r5, #12]
 8008b44:	f8b5 9008 	ldrh.w	r9, [r5, #8]
 8008b48:	8998      	ldrh	r0, [r3, #12]
 8008b4a:	f7fc fe8f 	bl	800586c <lwip_htons>
 8008b4e:	f010 0003 	ands.w	r0, r0, #3
 8008b52:	6833      	ldr	r3, [r6, #0]
 8008b54:	bf18      	it	ne
 8008b56:	2001      	movne	r0, #1
 8008b58:	4448      	add	r0, r9
 8008b5a:	b280      	uxth	r0, r0
 8008b5c:	8038      	strh	r0, [r7, #0]
 8008b5e:	4418      	add	r0, r3
 8008b60:	f8d8 300c 	ldr.w	r3, [r8, #12]
 8008b64:	685b      	ldr	r3, [r3, #4]
 8008b66:	4298      	cmp	r0, r3
 8008b68:	d006      	beq.n	8008b78 <tcp_receive+0x550>
 8008b6a:	4b20      	ldr	r3, [pc, #128]	; (8008bec <tcp_receive+0x5c4>)
 8008b6c:	f240 52af 	movw	r2, #1455	; 0x5af
 8008b70:	4925      	ldr	r1, [pc, #148]	; (8008c08 <tcp_receive+0x5e0>)
 8008b72:	4820      	ldr	r0, [pc, #128]	; (8008bf4 <tcp_receive+0x5cc>)
 8008b74:	f002 fed4 	bl	800b920 <iprintf>
 8008b78:	f8c4 8070 	str.w	r8, [r4, #112]	; 0x70
 8008b7c:	e062      	b.n	8008c44 <tcp_receive+0x61c>
 8008b7e:	6ba3      	ldr	r3, [r4, #56]	; 0x38
 8008b80:	6829      	ldr	r1, [r5, #0]
 8008b82:	1a5b      	subs	r3, r3, r1
 8008b84:	2b00      	cmp	r3, #0
 8008b86:	f6bf aee3 	bge.w	8008950 <tcp_receive+0x328>
 8008b8a:	4b20      	ldr	r3, [pc, #128]	; (8008c0c <tcp_receive+0x5e4>)
 8008b8c:	f9b4 003c 	ldrsh.w	r0, [r4, #60]	; 0x3c
 8008b90:	6819      	ldr	r1, [r3, #0]
 8008b92:	1a89      	subs	r1, r1, r2
 8008b94:	f9b4 203e 	ldrsh.w	r2, [r4, #62]	; 0x3e
 8008b98:	eba1 01e0 	sub.w	r1, r1, r0, asr #3
 8008b9c:	eba2 02a2 	sub.w	r2, r2, r2, asr #2
 8008ba0:	b289      	uxth	r1, r1
 8008ba2:	b20b      	sxth	r3, r1
 8008ba4:	4408      	add	r0, r1
 8008ba6:	2b00      	cmp	r3, #0
 8008ba8:	b200      	sxth	r0, r0
 8008baa:	bfb8      	it	lt
 8008bac:	4249      	neglt	r1, r1
 8008bae:	87a0      	strh	r0, [r4, #60]	; 0x3c
 8008bb0:	bfb8      	it	lt
 8008bb2:	b20b      	sxthlt	r3, r1
 8008bb4:	4413      	add	r3, r2
 8008bb6:	b29b      	uxth	r3, r3
 8008bb8:	87e3      	strh	r3, [r4, #62]	; 0x3e
 8008bba:	eb03 03e0 	add.w	r3, r3, r0, asr #3
 8008bbe:	f8a4 3040 	strh.w	r3, [r4, #64]	; 0x40
 8008bc2:	2300      	movs	r3, #0
 8008bc4:	6363      	str	r3, [r4, #52]	; 0x34
 8008bc6:	e6c3      	b.n	8008950 <tcp_receive+0x328>
 8008bc8:	f8a9 5008 	strh.w	r5, [r9, #8]
 8008bcc:	ebaa 0a03 	sub.w	sl, sl, r3
 8008bd0:	f8a9 200a 	strh.w	r2, [r9, #10]
 8008bd4:	f8d9 9000 	ldr.w	r9, [r9]
 8008bd8:	e700      	b.n	80089dc <tcp_receive+0x3b4>
 8008bda:	bf00      	nop
 8008bdc:	0800d703 	.word	0x0800d703
 8008be0:	0800d72b 	.word	0x0800d72b
 8008be4:	200040ca 	.word	0x200040ca
 8008be8:	20004098 	.word	0x20004098
 8008bec:	0800d6b8 	.word	0x0800d6b8
 8008bf0:	0800d74b 	.word	0x0800d74b
 8008bf4:	0800c6ba 	.word	0x0800c6ba
 8008bf8:	0800d75b 	.word	0x0800d75b
 8008bfc:	0800d76a 	.word	0x0800d76a
 8008c00:	0800d77a 	.word	0x0800d77a
 8008c04:	0800d78d 	.word	0x0800d78d
 8008c08:	0800d7c4 	.word	0x0800d7c4
 8008c0c:	200077f8 	.word	0x200077f8
 8008c10:	4269      	negs	r1, r5
 8008c12:	b209      	sxth	r1, r1
 8008c14:	f7fe fbfc 	bl	8007410 <pbuf_header>
 8008c18:	2800      	cmp	r0, #0
 8008c1a:	f43f aef2 	beq.w	8008a02 <tcp_receive+0x3da>
 8008c1e:	4b9d      	ldr	r3, [pc, #628]	; (8008e94 <tcp_receive+0x86c>)
 8008c20:	f240 5251 	movw	r2, #1361	; 0x551
 8008c24:	e6e9      	b.n	80089fa <tcp_receive+0x3d2>
 8008c26:	1a9b      	subs	r3, r3, r2
 8008c28:	2b00      	cmp	r3, #0
 8008c2a:	bfbe      	ittt	lt
 8008c2c:	7ea3      	ldrblt	r3, [r4, #26]
 8008c2e:	f043 0302 	orrlt.w	r3, r3, #2
 8008c32:	76a3      	strblt	r3, [r4, #26]
 8008c34:	e6f1      	b.n	8008a1a <tcp_receive+0x3f2>
 8008c36:	6803      	ldr	r3, [r0, #0]
 8008c38:	6723      	str	r3, [r4, #112]	; 0x70
 8008c3a:	f7fe ff6f 	bl	8007b1c <tcp_seg_free>
 8008c3e:	6f20      	ldr	r0, [r4, #112]	; 0x70
 8008c40:	2800      	cmp	r0, #0
 8008c42:	d1f8      	bne.n	8008c36 <tcp_receive+0x60e>
 8008c44:	883a      	ldrh	r2, [r7, #0]
 8008c46:	6833      	ldr	r3, [r6, #0]
 8008c48:	4413      	add	r3, r2
 8008c4a:	6263      	str	r3, [r4, #36]	; 0x24
 8008c4c:	8d23      	ldrh	r3, [r4, #40]	; 0x28
 8008c4e:	4293      	cmp	r3, r2
 8008c50:	d206      	bcs.n	8008c60 <tcp_receive+0x638>
 8008c52:	4b90      	ldr	r3, [pc, #576]	; (8008e94 <tcp_receive+0x86c>)
 8008c54:	f240 52b9 	movw	r2, #1465	; 0x5b9
 8008c58:	498f      	ldr	r1, [pc, #572]	; (8008e98 <tcp_receive+0x870>)
 8008c5a:	4890      	ldr	r0, [pc, #576]	; (8008e9c <tcp_receive+0x874>)
 8008c5c:	f002 fe60 	bl	800b920 <iprintf>
 8008c60:	8d23      	ldrh	r3, [r4, #40]	; 0x28
 8008c62:	4620      	mov	r0, r4
 8008c64:	883a      	ldrh	r2, [r7, #0]
 8008c66:	1a9b      	subs	r3, r3, r2
 8008c68:	8523      	strh	r3, [r4, #40]	; 0x28
 8008c6a:	f7fe feed 	bl	8007a48 <tcp_update_rcv_ann_wnd>
 8008c6e:	686b      	ldr	r3, [r5, #4]
 8008c70:	891a      	ldrh	r2, [r3, #8]
 8008c72:	b11a      	cbz	r2, 8008c7c <tcp_receive+0x654>
 8008c74:	4a8a      	ldr	r2, [pc, #552]	; (8008ea0 <tcp_receive+0x878>)
 8008c76:	6013      	str	r3, [r2, #0]
 8008c78:	2300      	movs	r3, #0
 8008c7a:	606b      	str	r3, [r5, #4]
 8008c7c:	68eb      	ldr	r3, [r5, #12]
 8008c7e:	4f85      	ldr	r7, [pc, #532]	; (8008e94 <tcp_receive+0x86c>)
 8008c80:	8998      	ldrh	r0, [r3, #12]
 8008c82:	f7fc fdf3 	bl	800586c <lwip_htons>
 8008c86:	07c5      	lsls	r5, r0, #31
 8008c88:	f8df 8220 	ldr.w	r8, [pc, #544]	; 8008eac <tcp_receive+0x884>
 8008c8c:	bf48      	it	mi
 8008c8e:	4a85      	ldrmi	r2, [pc, #532]	; (8008ea4 <tcp_receive+0x87c>)
 8008c90:	f8df 9208 	ldr.w	r9, [pc, #520]	; 8008e9c <tcp_receive+0x874>
 8008c94:	bf42      	ittt	mi
 8008c96:	7813      	ldrbmi	r3, [r2, #0]
 8008c98:	f043 0320 	orrmi.w	r3, r3, #32
 8008c9c:	7013      	strbmi	r3, [r2, #0]
 8008c9e:	6f25      	ldr	r5, [r4, #112]	; 0x70
 8008ca0:	b125      	cbz	r5, 8008cac <tcp_receive+0x684>
 8008ca2:	68ea      	ldr	r2, [r5, #12]
 8008ca4:	6a61      	ldr	r1, [r4, #36]	; 0x24
 8008ca6:	6853      	ldr	r3, [r2, #4]
 8008ca8:	428b      	cmp	r3, r1
 8008caa:	d033      	beq.n	8008d14 <tcp_receive+0x6ec>
 8008cac:	7ea3      	ldrb	r3, [r4, #26]
 8008cae:	07d9      	lsls	r1, r3, #31
 8008cb0:	f140 8087 	bpl.w	8008dc2 <tcp_receive+0x79a>
 8008cb4:	f023 0301 	bic.w	r3, r3, #1
 8008cb8:	f043 0302 	orr.w	r3, r3, #2
 8008cbc:	e083      	b.n	8008dc6 <tcp_receive+0x79e>
 8008cbe:	f8be 000c 	ldrh.w	r0, [lr, #12]
 8008cc2:	f7fc fdd3 	bl	800586c <lwip_htons>
 8008cc6:	07c1      	lsls	r1, r0, #31
 8008cc8:	d51d      	bpl.n	8008d06 <tcp_receive+0x6de>
 8008cca:	68eb      	ldr	r3, [r5, #12]
 8008ccc:	8998      	ldrh	r0, [r3, #12]
 8008cce:	f7fc fdcd 	bl	800586c <lwip_htons>
 8008cd2:	0782      	lsls	r2, r0, #30
 8008cd4:	d417      	bmi.n	8008d06 <tcp_receive+0x6de>
 8008cd6:	f8d5 a00c 	ldr.w	sl, [r5, #12]
 8008cda:	2001      	movs	r0, #1
 8008cdc:	f8ba 900c 	ldrh.w	r9, [sl, #12]
 8008ce0:	f7fc fdc4 	bl	800586c <lwip_htons>
 8008ce4:	68eb      	ldr	r3, [r5, #12]
 8008ce6:	ea49 0000 	orr.w	r0, r9, r0
 8008cea:	f8b5 9008 	ldrh.w	r9, [r5, #8]
 8008cee:	f8aa 000c 	strh.w	r0, [sl, #12]
 8008cf2:	8998      	ldrh	r0, [r3, #12]
 8008cf4:	f7fc fdba 	bl	800586c <lwip_htons>
 8008cf8:	f010 0003 	ands.w	r0, r0, #3
 8008cfc:	bf18      	it	ne
 8008cfe:	2001      	movne	r0, #1
 8008d00:	4481      	add	r9, r0
 8008d02:	f8a7 9000 	strh.w	r9, [r7]
 8008d06:	f8d8 9000 	ldr.w	r9, [r8]
 8008d0a:	4640      	mov	r0, r8
 8008d0c:	f7fe ff06 	bl	8007b1c <tcp_seg_free>
 8008d10:	46c8      	mov	r8, r9
 8008d12:	e6f2      	b.n	8008afa <tcp_receive+0x4d2>
 8008d14:	6033      	str	r3, [r6, #0]
 8008d16:	8990      	ldrh	r0, [r2, #12]
 8008d18:	f8b5 a008 	ldrh.w	sl, [r5, #8]
 8008d1c:	f7fc fda6 	bl	800586c <lwip_htons>
 8008d20:	6a63      	ldr	r3, [r4, #36]	; 0x24
 8008d22:	f010 0003 	ands.w	r0, r0, #3
 8008d26:	f8b5 b008 	ldrh.w	fp, [r5, #8]
 8008d2a:	bf18      	it	ne
 8008d2c:	2001      	movne	r0, #1
 8008d2e:	449a      	add	sl, r3
 8008d30:	68eb      	ldr	r3, [r5, #12]
 8008d32:	4450      	add	r0, sl
 8008d34:	f8b4 a028 	ldrh.w	sl, [r4, #40]	; 0x28
 8008d38:	6260      	str	r0, [r4, #36]	; 0x24
 8008d3a:	8998      	ldrh	r0, [r3, #12]
 8008d3c:	f7fc fd96 	bl	800586c <lwip_htons>
 8008d40:	f010 0003 	ands.w	r0, r0, #3
 8008d44:	bf18      	it	ne
 8008d46:	2001      	movne	r0, #1
 8008d48:	4458      	add	r0, fp
 8008d4a:	4582      	cmp	sl, r0
 8008d4c:	d206      	bcs.n	8008d5c <tcp_receive+0x734>
 8008d4e:	463b      	mov	r3, r7
 8008d50:	f240 52de 	movw	r2, #1502	; 0x5de
 8008d54:	4641      	mov	r1, r8
 8008d56:	4648      	mov	r0, r9
 8008d58:	f002 fde2 	bl	800b920 <iprintf>
 8008d5c:	68eb      	ldr	r3, [r5, #12]
 8008d5e:	f8b5 a008 	ldrh.w	sl, [r5, #8]
 8008d62:	8998      	ldrh	r0, [r3, #12]
 8008d64:	f7fc fd82 	bl	800586c <lwip_htons>
 8008d68:	f010 0003 	ands.w	r0, r0, #3
 8008d6c:	8d23      	ldrh	r3, [r4, #40]	; 0x28
 8008d6e:	bf18      	it	ne
 8008d70:	2001      	movne	r0, #1
 8008d72:	4450      	add	r0, sl
 8008d74:	1a18      	subs	r0, r3, r0
 8008d76:	8520      	strh	r0, [r4, #40]	; 0x28
 8008d78:	4620      	mov	r0, r4
 8008d7a:	f7fe fe65 	bl	8007a48 <tcp_update_rcv_ann_wnd>
 8008d7e:	6869      	ldr	r1, [r5, #4]
 8008d80:	890b      	ldrh	r3, [r1, #8]
 8008d82:	b133      	cbz	r3, 8008d92 <tcp_receive+0x76a>
 8008d84:	4b46      	ldr	r3, [pc, #280]	; (8008ea0 <tcp_receive+0x878>)
 8008d86:	6818      	ldr	r0, [r3, #0]
 8008d88:	b1c8      	cbz	r0, 8008dbe <tcp_receive+0x796>
 8008d8a:	f7fe fd21 	bl	80077d0 <pbuf_cat>
 8008d8e:	2300      	movs	r3, #0
 8008d90:	606b      	str	r3, [r5, #4]
 8008d92:	68eb      	ldr	r3, [r5, #12]
 8008d94:	8998      	ldrh	r0, [r3, #12]
 8008d96:	f7fc fd69 	bl	800586c <lwip_htons>
 8008d9a:	07c0      	lsls	r0, r0, #31
 8008d9c:	d509      	bpl.n	8008db2 <tcp_receive+0x78a>
 8008d9e:	4a41      	ldr	r2, [pc, #260]	; (8008ea4 <tcp_receive+0x87c>)
 8008da0:	7813      	ldrb	r3, [r2, #0]
 8008da2:	f043 0320 	orr.w	r3, r3, #32
 8008da6:	7013      	strb	r3, [r2, #0]
 8008da8:	7d23      	ldrb	r3, [r4, #20]
 8008daa:	2b04      	cmp	r3, #4
 8008dac:	bf04      	itt	eq
 8008dae:	2307      	moveq	r3, #7
 8008db0:	7523      	strbeq	r3, [r4, #20]
 8008db2:	682b      	ldr	r3, [r5, #0]
 8008db4:	4628      	mov	r0, r5
 8008db6:	6723      	str	r3, [r4, #112]	; 0x70
 8008db8:	f7fe feb0 	bl	8007b1c <tcp_seg_free>
 8008dbc:	e76f      	b.n	8008c9e <tcp_receive+0x676>
 8008dbe:	6019      	str	r1, [r3, #0]
 8008dc0:	e7e5      	b.n	8008d8e <tcp_receive+0x766>
 8008dc2:	f043 0301 	orr.w	r3, r3, #1
 8008dc6:	76a3      	strb	r3, [r4, #26]
 8008dc8:	b003      	add	sp, #12
 8008dca:	e8bd 8ff0 	ldmia.w	sp!, {r4, r5, r6, r7, r8, r9, sl, fp, pc}
 8008dce:	4620      	mov	r0, r4
 8008dd0:	f000 ffd6 	bl	8009d80 <tcp_send_empty_ack>
 8008dd4:	6f25      	ldr	r5, [r4, #112]	; 0x70
 8008dd6:	b925      	cbnz	r5, 8008de2 <tcp_receive+0x7ba>
 8008dd8:	4833      	ldr	r0, [pc, #204]	; (8008ea8 <tcp_receive+0x880>)
 8008dda:	f7fe feb5 	bl	8007b48 <tcp_seg_copy>
 8008dde:	6720      	str	r0, [r4, #112]	; 0x70
 8008de0:	e7f2      	b.n	8008dc8 <tcp_receive+0x7a0>
 8008de2:	6833      	ldr	r3, [r6, #0]
 8008de4:	f04f 0800 	mov.w	r8, #0
 8008de8:	f103 3eff 	add.w	lr, r3, #4294967295
 8008dec:	f103 0c01 	add.w	ip, r3, #1
 8008df0:	68e8      	ldr	r0, [r5, #12]
 8008df2:	6842      	ldr	r2, [r0, #4]
 8008df4:	429a      	cmp	r2, r3
 8008df6:	d117      	bne.n	8008e28 <tcp_receive+0x800>
 8008df8:	482b      	ldr	r0, [pc, #172]	; (8008ea8 <tcp_receive+0x880>)
 8008dfa:	892b      	ldrh	r3, [r5, #8]
 8008dfc:	8902      	ldrh	r2, [r0, #8]
 8008dfe:	429a      	cmp	r2, r3
 8008e00:	d9e2      	bls.n	8008dc8 <tcp_receive+0x7a0>
 8008e02:	f7fe fea1 	bl	8007b48 <tcp_seg_copy>
 8008e06:	2800      	cmp	r0, #0
 8008e08:	d0de      	beq.n	8008dc8 <tcp_receive+0x7a0>
 8008e0a:	f1b8 0f00 	cmp.w	r8, #0
 8008e0e:	d009      	beq.n	8008e24 <tcp_receive+0x7fc>
 8008e10:	f8c8 0000 	str.w	r0, [r8]
 8008e14:	4629      	mov	r1, r5
 8008e16:	b003      	add	sp, #12
 8008e18:	e8bd 4ff0 	ldmia.w	sp!, {r4, r5, r6, r7, r8, r9, sl, fp, lr}
 8008e1c:	f7ff bbc6 	b.w	80085ac <tcp_oos_insert_segment>
 8008e20:	460d      	mov	r5, r1
 8008e22:	e7e5      	b.n	8008df0 <tcp_receive+0x7c8>
 8008e24:	6720      	str	r0, [r4, #112]	; 0x70
 8008e26:	e7f5      	b.n	8008e14 <tcp_receive+0x7ec>
 8008e28:	f1b8 0f00 	cmp.w	r8, #0
 8008e2c:	d109      	bne.n	8008e42 <tcp_receive+0x81a>
 8008e2e:	1a99      	subs	r1, r3, r2
 8008e30:	2900      	cmp	r1, #0
 8008e32:	da3d      	bge.n	8008eb0 <tcp_receive+0x888>
 8008e34:	481c      	ldr	r0, [pc, #112]	; (8008ea8 <tcp_receive+0x880>)
 8008e36:	f7fe fe87 	bl	8007b48 <tcp_seg_copy>
 8008e3a:	2800      	cmp	r0, #0
 8008e3c:	d0c4      	beq.n	8008dc8 <tcp_receive+0x7a0>
 8008e3e:	6720      	str	r0, [r4, #112]	; 0x70
 8008e40:	e7e8      	b.n	8008e14 <tcp_receive+0x7ec>
 8008e42:	f8d8 100c 	ldr.w	r1, [r8, #12]
 8008e46:	6849      	ldr	r1, [r1, #4]
 8008e48:	ebae 0101 	sub.w	r1, lr, r1
 8008e4c:	2900      	cmp	r1, #0
 8008e4e:	db2f      	blt.n	8008eb0 <tcp_receive+0x888>
 8008e50:	ebac 0102 	sub.w	r1, ip, r2
 8008e54:	2900      	cmp	r1, #0
 8008e56:	dc2b      	bgt.n	8008eb0 <tcp_receive+0x888>
 8008e58:	4813      	ldr	r0, [pc, #76]	; (8008ea8 <tcp_receive+0x880>)
 8008e5a:	f7fe fe75 	bl	8007b48 <tcp_seg_copy>
 8008e5e:	4604      	mov	r4, r0
 8008e60:	2800      	cmp	r0, #0
 8008e62:	d0b1      	beq.n	8008dc8 <tcp_receive+0x7a0>
 8008e64:	f8d8 300c 	ldr.w	r3, [r8, #12]
 8008e68:	6831      	ldr	r1, [r6, #0]
 8008e6a:	685a      	ldr	r2, [r3, #4]
 8008e6c:	f8b8 3008 	ldrh.w	r3, [r8, #8]
 8008e70:	4413      	add	r3, r2
 8008e72:	1a5b      	subs	r3, r3, r1
 8008e74:	2b00      	cmp	r3, #0
 8008e76:	dd07      	ble.n	8008e88 <tcp_receive+0x860>
 8008e78:	1a89      	subs	r1, r1, r2
 8008e7a:	f8d8 0004 	ldr.w	r0, [r8, #4]
 8008e7e:	b289      	uxth	r1, r1
 8008e80:	f8a8 1008 	strh.w	r1, [r8, #8]
 8008e84:	f7fe fc10 	bl	80076a8 <pbuf_realloc>
 8008e88:	f8c8 4000 	str.w	r4, [r8]
 8008e8c:	4629      	mov	r1, r5
 8008e8e:	4620      	mov	r0, r4
 8008e90:	e7c1      	b.n	8008e16 <tcp_receive+0x7ee>
 8008e92:	bf00      	nop
 8008e94:	0800d6b8 	.word	0x0800d6b8
 8008e98:	0800d7ff 	.word	0x0800d7ff
 8008e9c:	0800c6ba 	.word	0x0800c6ba
 8008ea0:	200040ac 	.word	0x200040ac
 8008ea4:	200040b0 	.word	0x200040b0
 8008ea8:	20004098 	.word	0x20004098
 8008eac:	0800d81e 	.word	0x0800d81e
 8008eb0:	6829      	ldr	r1, [r5, #0]
 8008eb2:	46a8      	mov	r8, r5
 8008eb4:	2900      	cmp	r1, #0
 8008eb6:	d1b3      	bne.n	8008e20 <tcp_receive+0x7f8>
 8008eb8:	1a9b      	subs	r3, r3, r2
 8008eba:	2b00      	cmp	r3, #0
 8008ebc:	dd84      	ble.n	8008dc8 <tcp_receive+0x7a0>
 8008ebe:	8980      	ldrh	r0, [r0, #12]
 8008ec0:	f7fc fcd4 	bl	800586c <lwip_htons>
 8008ec4:	07c2      	lsls	r2, r0, #31
 8008ec6:	f53f af7f 	bmi.w	8008dc8 <tcp_receive+0x7a0>
 8008eca:	483d      	ldr	r0, [pc, #244]	; (8008fc0 <tcp_receive+0x998>)
 8008ecc:	f7fe fe3c 	bl	8007b48 <tcp_seg_copy>
 8008ed0:	6028      	str	r0, [r5, #0]
 8008ed2:	2800      	cmp	r0, #0
 8008ed4:	f43f af78 	beq.w	8008dc8 <tcp_receive+0x7a0>
 8008ed8:	68eb      	ldr	r3, [r5, #12]
 8008eda:	6831      	ldr	r1, [r6, #0]
 8008edc:	685a      	ldr	r2, [r3, #4]
 8008ede:	892b      	ldrh	r3, [r5, #8]
 8008ee0:	4413      	add	r3, r2
 8008ee2:	1a5b      	subs	r3, r3, r1
 8008ee4:	2b00      	cmp	r3, #0
 8008ee6:	dd05      	ble.n	8008ef4 <tcp_receive+0x8cc>
 8008ee8:	1a89      	subs	r1, r1, r2
 8008eea:	6868      	ldr	r0, [r5, #4]
 8008eec:	b289      	uxth	r1, r1
 8008eee:	8129      	strh	r1, [r5, #8]
 8008ef0:	f7fe fbda 	bl	80076a8 <pbuf_realloc>
 8008ef4:	6832      	ldr	r2, [r6, #0]
 8008ef6:	883b      	ldrh	r3, [r7, #0]
 8008ef8:	4413      	add	r3, r2
 8008efa:	6a62      	ldr	r2, [r4, #36]	; 0x24
 8008efc:	1a9b      	subs	r3, r3, r2
 8008efe:	8d22      	ldrh	r2, [r4, #40]	; 0x28
 8008f00:	1a9b      	subs	r3, r3, r2
 8008f02:	2b00      	cmp	r3, #0
 8008f04:	f77f af60 	ble.w	8008dc8 <tcp_receive+0x7a0>
 8008f08:	682b      	ldr	r3, [r5, #0]
 8008f0a:	68db      	ldr	r3, [r3, #12]
 8008f0c:	8998      	ldrh	r0, [r3, #12]
 8008f0e:	f7fc fcad 	bl	800586c <lwip_htons>
 8008f12:	07c3      	lsls	r3, r0, #31
 8008f14:	d511      	bpl.n	8008f3a <tcp_receive+0x912>
 8008f16:	682b      	ldr	r3, [r5, #0]
 8008f18:	f8d3 900c 	ldr.w	r9, [r3, #12]
 8008f1c:	f8b9 800c 	ldrh.w	r8, [r9, #12]
 8008f20:	4640      	mov	r0, r8
 8008f22:	f428 587c 	bic.w	r8, r8, #16128	; 0x3f00
 8008f26:	f7fc fca1 	bl	800586c <lwip_htons>
 8008f2a:	f000 003e 	and.w	r0, r0, #62	; 0x3e
 8008f2e:	f7fc fc9d 	bl	800586c <lwip_htons>
 8008f32:	ea40 0808 	orr.w	r8, r0, r8
 8008f36:	f8a9 800c 	strh.w	r8, [r9, #12]
 8008f3a:	6832      	ldr	r2, [r6, #0]
 8008f3c:	8d21      	ldrh	r1, [r4, #40]	; 0x28
 8008f3e:	682b      	ldr	r3, [r5, #0]
 8008f40:	1a89      	subs	r1, r1, r2
 8008f42:	6a62      	ldr	r2, [r4, #36]	; 0x24
 8008f44:	6858      	ldr	r0, [r3, #4]
 8008f46:	4411      	add	r1, r2
 8008f48:	b289      	uxth	r1, r1
 8008f4a:	8119      	strh	r1, [r3, #8]
 8008f4c:	f7fe fbac 	bl	80076a8 <pbuf_realloc>
 8008f50:	682b      	ldr	r3, [r5, #0]
 8008f52:	891d      	ldrh	r5, [r3, #8]
 8008f54:	68db      	ldr	r3, [r3, #12]
 8008f56:	8998      	ldrh	r0, [r3, #12]
 8008f58:	f7fc fc88 	bl	800586c <lwip_htons>
 8008f5c:	f010 0003 	ands.w	r0, r0, #3
 8008f60:	6833      	ldr	r3, [r6, #0]
 8008f62:	bf18      	it	ne
 8008f64:	2001      	movne	r0, #1
 8008f66:	6a62      	ldr	r2, [r4, #36]	; 0x24
 8008f68:	4428      	add	r0, r5
 8008f6a:	b280      	uxth	r0, r0
 8008f6c:	8038      	strh	r0, [r7, #0]
 8008f6e:	4418      	add	r0, r3
 8008f70:	8d23      	ldrh	r3, [r4, #40]	; 0x28
 8008f72:	4413      	add	r3, r2
 8008f74:	4298      	cmp	r0, r3
 8008f76:	f43f af27 	beq.w	8008dc8 <tcp_receive+0x7a0>
 8008f7a:	4b12      	ldr	r3, [pc, #72]	; (8008fc4 <tcp_receive+0x99c>)
 8008f7c:	f240 627b 	movw	r2, #1659	; 0x67b
 8008f80:	4911      	ldr	r1, [pc, #68]	; (8008fc8 <tcp_receive+0x9a0>)
 8008f82:	4812      	ldr	r0, [pc, #72]	; (8008fcc <tcp_receive+0x9a4>)
 8008f84:	b003      	add	sp, #12
 8008f86:	e8bd 4ff0 	ldmia.w	sp!, {r4, r5, r6, r7, r8, r9, sl, fp, lr}
 8008f8a:	f002 bcc9 	b.w	800b920 <iprintf>
 8008f8e:	4620      	mov	r0, r4
 8008f90:	b003      	add	sp, #12
 8008f92:	e8bd 4ff0 	ldmia.w	sp!, {r4, r5, r6, r7, r8, r9, sl, fp, lr}
 8008f96:	f000 bef3 	b.w	8009d80 <tcp_send_empty_ack>
 8008f9a:	6833      	ldr	r3, [r6, #0]
 8008f9c:	1a99      	subs	r1, r3, r2
 8008f9e:	2900      	cmp	r1, #0
 8008fa0:	db06      	blt.n	8008fb0 <tcp_receive+0x988>
 8008fa2:	3301      	adds	r3, #1
 8008fa4:	1a9b      	subs	r3, r3, r2
 8008fa6:	8d22      	ldrh	r2, [r4, #40]	; 0x28
 8008fa8:	1a9b      	subs	r3, r3, r2
 8008faa:	2b00      	cmp	r3, #0
 8008fac:	f77f af0c 	ble.w	8008dc8 <tcp_receive+0x7a0>
 8008fb0:	7ea3      	ldrb	r3, [r4, #26]
 8008fb2:	e681      	b.n	8008cb8 <tcp_receive+0x690>
 8008fb4:	2300      	movs	r3, #0
 8008fb6:	f884 3043 	strb.w	r3, [r4, #67]	; 0x43
 8008fba:	f7ff bbaa 	b.w	8008712 <tcp_receive+0xea>
 8008fbe:	bf00      	nop
 8008fc0:	20004098 	.word	0x20004098
 8008fc4:	0800d6b8 	.word	0x0800d6b8
 8008fc8:	0800d78d 	.word	0x0800d78d
 8008fcc:	0800c6ba 	.word	0x0800c6ba

08008fd0 <tcp_getoptbyte>:
 8008fd0:	4b0b      	ldr	r3, [pc, #44]	; (8009000 <tcp_getoptbyte+0x30>)
 8008fd2:	4a0c      	ldr	r2, [pc, #48]	; (8009004 <tcp_getoptbyte+0x34>)
 8008fd4:	6819      	ldr	r1, [r3, #0]
 8008fd6:	b510      	push	{r4, lr}
 8008fd8:	b121      	cbz	r1, 8008fe4 <tcp_getoptbyte+0x14>
 8008fda:	480b      	ldr	r0, [pc, #44]	; (8009008 <tcp_getoptbyte+0x38>)
 8008fdc:	8813      	ldrh	r3, [r2, #0]
 8008fde:	8800      	ldrh	r0, [r0, #0]
 8008fe0:	4283      	cmp	r3, r0
 8008fe2:	d207      	bcs.n	8008ff4 <tcp_getoptbyte+0x24>
 8008fe4:	4b09      	ldr	r3, [pc, #36]	; (800900c <tcp_getoptbyte+0x3c>)
 8008fe6:	8811      	ldrh	r1, [r2, #0]
 8008fe8:	681b      	ldr	r3, [r3, #0]
 8008fea:	1c48      	adds	r0, r1, #1
 8008fec:	440b      	add	r3, r1
 8008fee:	8010      	strh	r0, [r2, #0]
 8008ff0:	7d18      	ldrb	r0, [r3, #20]
 8008ff2:	bd10      	pop	{r4, pc}
 8008ff4:	1c5c      	adds	r4, r3, #1
 8008ff6:	1a1b      	subs	r3, r3, r0
 8008ff8:	b2db      	uxtb	r3, r3
 8008ffa:	8014      	strh	r4, [r2, #0]
 8008ffc:	5cc8      	ldrb	r0, [r1, r3]
 8008ffe:	bd10      	pop	{r4, pc}
 8009000:	200040c4 	.word	0x200040c4
 8009004:	200040b8 	.word	0x200040b8
 8009008:	200040c0 	.word	0x200040c0
 800900c:	200040bc 	.word	0x200040bc

08009010 <tcp_parseopt.isra.1.part.2>:
 8009010:	b5f8      	push	{r3, r4, r5, r6, r7, lr}
 8009012:	4d19      	ldr	r5, [pc, #100]	; (8009078 <tcp_parseopt.isra.1.part.2+0x68>)
 8009014:	2300      	movs	r3, #0
 8009016:	4607      	mov	r7, r0
 8009018:	4e18      	ldr	r6, [pc, #96]	; (800907c <tcp_parseopt.isra.1.part.2+0x6c>)
 800901a:	802b      	strh	r3, [r5, #0]
 800901c:	8834      	ldrh	r4, [r6, #0]
 800901e:	882b      	ldrh	r3, [r5, #0]
 8009020:	42a3      	cmp	r3, r4
 8009022:	d300      	bcc.n	8009026 <tcp_parseopt.isra.1.part.2+0x16>
 8009024:	bdf8      	pop	{r3, r4, r5, r6, r7, pc}
 8009026:	f7ff ffd3 	bl	8008fd0 <tcp_getoptbyte>
 800902a:	2801      	cmp	r0, #1
 800902c:	d0f6      	beq.n	800901c <tcp_parseopt.isra.1.part.2+0xc>
 800902e:	d3f9      	bcc.n	8009024 <tcp_parseopt.isra.1.part.2+0x14>
 8009030:	2802      	cmp	r0, #2
 8009032:	d117      	bne.n	8009064 <tcp_parseopt.isra.1.part.2+0x54>
 8009034:	f7ff ffcc 	bl	8008fd0 <tcp_getoptbyte>
 8009038:	2804      	cmp	r0, #4
 800903a:	d1f3      	bne.n	8009024 <tcp_parseopt.isra.1.part.2+0x14>
 800903c:	882b      	ldrh	r3, [r5, #0]
 800903e:	3301      	adds	r3, #1
 8009040:	42a3      	cmp	r3, r4
 8009042:	daef      	bge.n	8009024 <tcp_parseopt.isra.1.part.2+0x14>
 8009044:	f7ff ffc4 	bl	8008fd0 <tcp_getoptbyte>
 8009048:	0200      	lsls	r0, r0, #8
 800904a:	b284      	uxth	r4, r0
 800904c:	f7ff ffc0 	bl	8008fd0 <tcp_getoptbyte>
 8009050:	4320      	orrs	r0, r4
 8009052:	b280      	uxth	r0, r0
 8009054:	1e43      	subs	r3, r0, #1
 8009056:	f5b3 7f06 	cmp.w	r3, #536	; 0x218
 800905a:	bf28      	it	cs
 800905c:	f44f 7006 	movcs.w	r0, #536	; 0x218
 8009060:	8038      	strh	r0, [r7, #0]
 8009062:	e7db      	b.n	800901c <tcp_parseopt.isra.1.part.2+0xc>
 8009064:	f7ff ffb4 	bl	8008fd0 <tcp_getoptbyte>
 8009068:	2801      	cmp	r0, #1
 800906a:	d9db      	bls.n	8009024 <tcp_parseopt.isra.1.part.2+0x14>
 800906c:	882b      	ldrh	r3, [r5, #0]
 800906e:	3b02      	subs	r3, #2
 8009070:	4418      	add	r0, r3
 8009072:	8028      	strh	r0, [r5, #0]
 8009074:	e7d2      	b.n	800901c <tcp_parseopt.isra.1.part.2+0xc>
 8009076:	bf00      	nop
 8009078:	200040b8 	.word	0x200040b8
 800907c:	200040c8 	.word	0x200040c8

08009080 <tcp_input_delayed_close>:
 8009080:	4b0d      	ldr	r3, [pc, #52]	; (80090b8 <tcp_input_delayed_close+0x38>)
 8009082:	b510      	push	{r4, lr}
 8009084:	4604      	mov	r4, r0
 8009086:	7818      	ldrb	r0, [r3, #0]
 8009088:	f010 0010 	ands.w	r0, r0, #16
 800908c:	d012      	beq.n	80090b4 <tcp_input_delayed_close+0x34>
 800908e:	7ea3      	ldrb	r3, [r4, #26]
 8009090:	06db      	lsls	r3, r3, #27
 8009092:	d406      	bmi.n	80090a2 <tcp_input_delayed_close+0x22>
 8009094:	f8d4 308c 	ldr.w	r3, [r4, #140]	; 0x8c
 8009098:	b11b      	cbz	r3, 80090a2 <tcp_input_delayed_close+0x22>
 800909a:	f06f 010e 	mvn.w	r1, #14
 800909e:	6920      	ldr	r0, [r4, #16]
 80090a0:	4798      	blx	r3
 80090a2:	4621      	mov	r1, r4
 80090a4:	4805      	ldr	r0, [pc, #20]	; (80090bc <tcp_input_delayed_close+0x3c>)
 80090a6:	f7fe ff67 	bl	8007f78 <tcp_pcb_remove>
 80090aa:	2001      	movs	r0, #1
 80090ac:	4621      	mov	r1, r4
 80090ae:	f7fe f82f 	bl	8007110 <memp_free>
 80090b2:	2001      	movs	r0, #1
 80090b4:	bd10      	pop	{r4, pc}
 80090b6:	bf00      	nop
 80090b8:	200040b0 	.word	0x200040b0
 80090bc:	200077f4 	.word	0x200077f4

080090c0 <tcp_input>:
 80090c0:	e92d 4ff0 	stmdb	sp!, {r4, r5, r6, r7, r8, r9, sl, fp, lr}
 80090c4:	6843      	ldr	r3, [r0, #4]
 80090c6:	b089      	sub	sp, #36	; 0x24
 80090c8:	4e9e      	ldr	r6, [pc, #632]	; (8009344 <tcp_input+0x284>)
 80090ca:	4605      	mov	r5, r0
 80090cc:	6033      	str	r3, [r6, #0]
 80090ce:	8943      	ldrh	r3, [r0, #10]
 80090d0:	2b13      	cmp	r3, #19
 80090d2:	f240 81b2 	bls.w	800943a <tcp_input+0x37a>
 80090d6:	4f9c      	ldr	r7, [pc, #624]	; (8009348 <tcp_input+0x288>)
 80090d8:	6839      	ldr	r1, [r7, #0]
 80090da:	46b8      	mov	r8, r7
 80090dc:	6978      	ldr	r0, [r7, #20]
 80090de:	f7fd f9d2 	bl	8006486 <ip4_addr_isbroadcast_u32>
 80090e2:	4604      	mov	r4, r0
 80090e4:	2800      	cmp	r0, #0
 80090e6:	f040 81a8 	bne.w	800943a <tcp_input+0x37a>
 80090ea:	697b      	ldr	r3, [r7, #20]
 80090ec:	f003 03f0 	and.w	r3, r3, #240	; 0xf0
 80090f0:	2be0      	cmp	r3, #224	; 0xe0
 80090f2:	f000 81a2 	beq.w	800943a <tcp_input+0x37a>
 80090f6:	6833      	ldr	r3, [r6, #0]
 80090f8:	8998      	ldrh	r0, [r3, #12]
 80090fa:	f7fc fbb7 	bl	800586c <lwip_htons>
 80090fe:	0a81      	lsrs	r1, r0, #10
 8009100:	f001 01fc 	and.w	r1, r1, #252	; 0xfc
 8009104:	2913      	cmp	r1, #19
 8009106:	f240 8198 	bls.w	800943a <tcp_input+0x37a>
 800910a:	b289      	uxth	r1, r1
 800910c:	892b      	ldrh	r3, [r5, #8]
 800910e:	428b      	cmp	r3, r1
 8009110:	f0c0 8193 	bcc.w	800943a <tcp_input+0x37a>
 8009114:	f1a1 0314 	sub.w	r3, r1, #20
 8009118:	8968      	ldrh	r0, [r5, #10]
 800911a:	4a8c      	ldr	r2, [pc, #560]	; (800934c <tcp_input+0x28c>)
 800911c:	b29b      	uxth	r3, r3
 800911e:	4f8c      	ldr	r7, [pc, #560]	; (8009350 <tcp_input+0x290>)
 8009120:	4288      	cmp	r0, r1
 8009122:	9206      	str	r2, [sp, #24]
 8009124:	603c      	str	r4, [r7, #0]
 8009126:	8013      	strh	r3, [r2, #0]
 8009128:	4c8a      	ldr	r4, [pc, #552]	; (8009354 <tcp_input+0x294>)
 800912a:	d344      	bcc.n	80091b6 <tcp_input+0xf6>
 800912c:	4249      	negs	r1, r1
 800912e:	4628      	mov	r0, r5
 8009130:	8023      	strh	r3, [r4, #0]
 8009132:	f7fe f96d 	bl	8007410 <pbuf_header>
 8009136:	6834      	ldr	r4, [r6, #0]
 8009138:	f04f 0a00 	mov.w	sl, #0
 800913c:	f8df b268 	ldr.w	fp, [pc, #616]	; 80093a8 <tcp_input+0x2e8>
 8009140:	8820      	ldrh	r0, [r4, #0]
 8009142:	f7fc fb93 	bl	800586c <lwip_htons>
 8009146:	8020      	strh	r0, [r4, #0]
 8009148:	6834      	ldr	r4, [r6, #0]
 800914a:	4f83      	ldr	r7, [pc, #524]	; (8009358 <tcp_input+0x298>)
 800914c:	8860      	ldrh	r0, [r4, #2]
 800914e:	f7fc fb8d 	bl	800586c <lwip_htons>
 8009152:	8060      	strh	r0, [r4, #2]
 8009154:	6834      	ldr	r4, [r6, #0]
 8009156:	6860      	ldr	r0, [r4, #4]
 8009158:	f7fc fb8b 	bl	8005872 <lwip_htonl>
 800915c:	6060      	str	r0, [r4, #4]
 800915e:	6834      	ldr	r4, [r6, #0]
 8009160:	f8cb 0000 	str.w	r0, [fp]
 8009164:	68a0      	ldr	r0, [r4, #8]
 8009166:	f7fc fb84 	bl	8005872 <lwip_htonl>
 800916a:	60a0      	str	r0, [r4, #8]
 800916c:	6834      	ldr	r4, [r6, #0]
 800916e:	6038      	str	r0, [r7, #0]
 8009170:	89e0      	ldrh	r0, [r4, #14]
 8009172:	f7fc fb7b 	bl	800586c <lwip_htons>
 8009176:	6833      	ldr	r3, [r6, #0]
 8009178:	81e0      	strh	r0, [r4, #14]
 800917a:	8998      	ldrh	r0, [r3, #12]
 800917c:	f7fc fb76 	bl	800586c <lwip_htons>
 8009180:	8929      	ldrh	r1, [r5, #8]
 8009182:	b2c0      	uxtb	r0, r0
 8009184:	4a75      	ldr	r2, [pc, #468]	; (800935c <tcp_input+0x29c>)
 8009186:	f000 033f 	and.w	r3, r0, #63	; 0x3f
 800918a:	f010 0003 	ands.w	r0, r0, #3
 800918e:	9203      	str	r2, [sp, #12]
 8009190:	bf18      	it	ne
 8009192:	2001      	movne	r0, #1
 8009194:	7013      	strb	r3, [r2, #0]
 8009196:	4b72      	ldr	r3, [pc, #456]	; (8009360 <tcp_input+0x2a0>)
 8009198:	4408      	add	r0, r1
 800919a:	4972      	ldr	r1, [pc, #456]	; (8009364 <tcp_input+0x2a4>)
 800919c:	9304      	str	r3, [sp, #16]
 800919e:	680c      	ldr	r4, [r1, #0]
 80091a0:	4689      	mov	r9, r1
 80091a2:	8018      	strh	r0, [r3, #0]
 80091a4:	2c00      	cmp	r4, #0
 80091a6:	d140      	bne.n	800922a <tcp_input+0x16a>
 80091a8:	4b6f      	ldr	r3, [pc, #444]	; (8009368 <tcp_input+0x2a8>)
 80091aa:	f8df a1c0 	ldr.w	sl, [pc, #448]	; 800936c <tcp_input+0x2ac>
 80091ae:	681c      	ldr	r4, [r3, #0]
 80091b0:	f8df 91f8 	ldr.w	r9, [pc, #504]	; 80093ac <tcp_input+0x2ec>
 80091b4:	e148      	b.n	8009448 <tcp_input+0x388>
 80091b6:	682b      	ldr	r3, [r5, #0]
 80091b8:	b92b      	cbnz	r3, 80091c6 <tcp_input+0x106>
 80091ba:	4b6c      	ldr	r3, [pc, #432]	; (800936c <tcp_input+0x2ac>)
 80091bc:	22b2      	movs	r2, #178	; 0xb2
 80091be:	496c      	ldr	r1, [pc, #432]	; (8009370 <tcp_input+0x2b0>)
 80091c0:	486c      	ldr	r0, [pc, #432]	; (8009374 <tcp_input+0x2b4>)
 80091c2:	f002 fbad 	bl	800b920 <iprintf>
 80091c6:	f06f 0113 	mvn.w	r1, #19
 80091ca:	4628      	mov	r0, r5
 80091cc:	f7fe f920 	bl	8007410 <pbuf_header>
 80091d0:	8969      	ldrh	r1, [r5, #10]
 80091d2:	9b06      	ldr	r3, [sp, #24]
 80091d4:	4628      	mov	r0, r5
 80091d6:	8021      	strh	r1, [r4, #0]
 80091d8:	881c      	ldrh	r4, [r3, #0]
 80091da:	1a64      	subs	r4, r4, r1
 80091dc:	4249      	negs	r1, r1
 80091de:	b209      	sxth	r1, r1
 80091e0:	f7fe f916 	bl	8007410 <pbuf_header>
 80091e4:	6828      	ldr	r0, [r5, #0]
 80091e6:	b2a4      	uxth	r4, r4
 80091e8:	8943      	ldrh	r3, [r0, #10]
 80091ea:	42a3      	cmp	r3, r4
 80091ec:	f0c0 8125 	bcc.w	800943a <tcp_input+0x37a>
 80091f0:	4261      	negs	r1, r4
 80091f2:	6843      	ldr	r3, [r0, #4]
 80091f4:	b209      	sxth	r1, r1
 80091f6:	603b      	str	r3, [r7, #0]
 80091f8:	f7fe f90a 	bl	8007410 <pbuf_header>
 80091fc:	892b      	ldrh	r3, [r5, #8]
 80091fe:	1b1c      	subs	r4, r3, r4
 8009200:	896b      	ldrh	r3, [r5, #10]
 8009202:	812c      	strh	r4, [r5, #8]
 8009204:	b12b      	cbz	r3, 8009212 <tcp_input+0x152>
 8009206:	4b59      	ldr	r3, [pc, #356]	; (800936c <tcp_input+0x2ac>)
 8009208:	22cf      	movs	r2, #207	; 0xcf
 800920a:	495b      	ldr	r1, [pc, #364]	; (8009378 <tcp_input+0x2b8>)
 800920c:	4859      	ldr	r0, [pc, #356]	; (8009374 <tcp_input+0x2b4>)
 800920e:	f002 fb87 	bl	800b920 <iprintf>
 8009212:	682b      	ldr	r3, [r5, #0]
 8009214:	892a      	ldrh	r2, [r5, #8]
 8009216:	891b      	ldrh	r3, [r3, #8]
 8009218:	429a      	cmp	r2, r3
 800921a:	d08c      	beq.n	8009136 <tcp_input+0x76>
 800921c:	4b53      	ldr	r3, [pc, #332]	; (800936c <tcp_input+0x2ac>)
 800921e:	22d0      	movs	r2, #208	; 0xd0
 8009220:	4956      	ldr	r1, [pc, #344]	; (800937c <tcp_input+0x2bc>)
 8009222:	4854      	ldr	r0, [pc, #336]	; (8009374 <tcp_input+0x2b4>)
 8009224:	f002 fb7c 	bl	800b920 <iprintf>
 8009228:	e785      	b.n	8009136 <tcp_input+0x76>
 800922a:	7d23      	ldrb	r3, [r4, #20]
 800922c:	b92b      	cbnz	r3, 800923a <tcp_input+0x17a>
 800922e:	4b4f      	ldr	r3, [pc, #316]	; (800936c <tcp_input+0x2ac>)
 8009230:	22e2      	movs	r2, #226	; 0xe2
 8009232:	4953      	ldr	r1, [pc, #332]	; (8009380 <tcp_input+0x2c0>)
 8009234:	484f      	ldr	r0, [pc, #316]	; (8009374 <tcp_input+0x2b4>)
 8009236:	f002 fb73 	bl	800b920 <iprintf>
 800923a:	7d23      	ldrb	r3, [r4, #20]
 800923c:	2b0a      	cmp	r3, #10
 800923e:	d105      	bne.n	800924c <tcp_input+0x18c>
 8009240:	4b4a      	ldr	r3, [pc, #296]	; (800936c <tcp_input+0x2ac>)
 8009242:	22e3      	movs	r2, #227	; 0xe3
 8009244:	494f      	ldr	r1, [pc, #316]	; (8009384 <tcp_input+0x2c4>)
 8009246:	484b      	ldr	r0, [pc, #300]	; (8009374 <tcp_input+0x2b4>)
 8009248:	f002 fb6a 	bl	800b920 <iprintf>
 800924c:	7d23      	ldrb	r3, [r4, #20]
 800924e:	2b01      	cmp	r3, #1
 8009250:	d105      	bne.n	800925e <tcp_input+0x19e>
 8009252:	4b46      	ldr	r3, [pc, #280]	; (800936c <tcp_input+0x2ac>)
 8009254:	22e4      	movs	r2, #228	; 0xe4
 8009256:	494c      	ldr	r1, [pc, #304]	; (8009388 <tcp_input+0x2c8>)
 8009258:	4846      	ldr	r0, [pc, #280]	; (8009374 <tcp_input+0x2b4>)
 800925a:	f002 fb61 	bl	800b920 <iprintf>
 800925e:	6832      	ldr	r2, [r6, #0]
 8009260:	8b21      	ldrh	r1, [r4, #24]
 8009262:	8813      	ldrh	r3, [r2, #0]
 8009264:	4299      	cmp	r1, r3
 8009266:	68e3      	ldr	r3, [r4, #12]
 8009268:	d169      	bne.n	800933e <tcp_input+0x27e>
 800926a:	8ae1      	ldrh	r1, [r4, #22]
 800926c:	8852      	ldrh	r2, [r2, #2]
 800926e:	4291      	cmp	r1, r2
 8009270:	d165      	bne.n	800933e <tcp_input+0x27e>
 8009272:	6861      	ldr	r1, [r4, #4]
 8009274:	f8d8 2010 	ldr.w	r2, [r8, #16]
 8009278:	4291      	cmp	r1, r2
 800927a:	d160      	bne.n	800933e <tcp_input+0x27e>
 800927c:	6821      	ldr	r1, [r4, #0]
 800927e:	f8d8 2014 	ldr.w	r2, [r8, #20]
 8009282:	4291      	cmp	r1, r2
 8009284:	d15b      	bne.n	800933e <tcp_input+0x27e>
 8009286:	429c      	cmp	r4, r3
 8009288:	f040 8406 	bne.w	8009a98 <tcp_input+0x9d8>
 800928c:	4b37      	ldr	r3, [pc, #220]	; (800936c <tcp_input+0x2ac>)
 800928e:	22ec      	movs	r2, #236	; 0xec
 8009290:	493e      	ldr	r1, [pc, #248]	; (800938c <tcp_input+0x2cc>)
 8009292:	4838      	ldr	r0, [pc, #224]	; (8009374 <tcp_input+0x2b4>)
 8009294:	f002 fb44 	bl	800b920 <iprintf>
 8009298:	f1ba 0f00 	cmp.w	sl, #0
 800929c:	d007      	beq.n	80092ae <tcp_input+0x1ee>
 800929e:	68e3      	ldr	r3, [r4, #12]
 80092a0:	f8ca 300c 	str.w	r3, [sl, #12]
 80092a4:	f8d9 3000 	ldr.w	r3, [r9]
 80092a8:	f8c9 4000 	str.w	r4, [r9]
 80092ac:	60e3      	str	r3, [r4, #12]
 80092ae:	68e3      	ldr	r3, [r4, #12]
 80092b0:	429c      	cmp	r4, r3
 80092b2:	d105      	bne.n	80092c0 <tcp_input+0x200>
 80092b4:	4b2d      	ldr	r3, [pc, #180]	; (800936c <tcp_input+0x2ac>)
 80092b6:	22f4      	movs	r2, #244	; 0xf4
 80092b8:	4935      	ldr	r1, [pc, #212]	; (8009390 <tcp_input+0x2d0>)
 80092ba:	482e      	ldr	r0, [pc, #184]	; (8009374 <tcp_input+0x2b4>)
 80092bc:	f002 fb30 	bl	800b920 <iprintf>
 80092c0:	4b34      	ldr	r3, [pc, #208]	; (8009394 <tcp_input+0x2d4>)
 80092c2:	2200      	movs	r2, #0
 80092c4:	8929      	ldrh	r1, [r5, #8]
 80092c6:	601a      	str	r2, [r3, #0]
 80092c8:	8119      	strh	r1, [r3, #8]
 80092ca:	6831      	ldr	r1, [r6, #0]
 80092cc:	4832      	ldr	r0, [pc, #200]	; (8009398 <tcp_input+0x2d8>)
 80092ce:	60d9      	str	r1, [r3, #12]
 80092d0:	605d      	str	r5, [r3, #4]
 80092d2:	4680      	mov	r8, r0
 80092d4:	4b31      	ldr	r3, [pc, #196]	; (800939c <tcp_input+0x2dc>)
 80092d6:	4932      	ldr	r1, [pc, #200]	; (80093a0 <tcp_input+0x2e0>)
 80092d8:	601a      	str	r2, [r3, #0]
 80092da:	469a      	mov	sl, r3
 80092dc:	7002      	strb	r2, [r0, #0]
 80092de:	800a      	strh	r2, [r1, #0]
 80092e0:	9a03      	ldr	r2, [sp, #12]
 80092e2:	9105      	str	r1, [sp, #20]
 80092e4:	7812      	ldrb	r2, [r2, #0]
 80092e6:	f012 0f08 	tst.w	r2, #8
 80092ea:	d003      	beq.n	80092f4 <tcp_input+0x234>
 80092ec:	7b6b      	ldrb	r3, [r5, #13]
 80092ee:	f043 0301 	orr.w	r3, r3, #1
 80092f2:	736b      	strb	r3, [r5, #13]
 80092f4:	6f63      	ldr	r3, [r4, #116]	; 0x74
 80092f6:	4d2b      	ldr	r5, [pc, #172]	; (80093a4 <tcp_input+0x2e4>)
 80092f8:	2b00      	cmp	r3, #0
 80092fa:	f000 8137 	beq.w	800956c <tcp_input+0x4ac>
 80092fe:	4620      	mov	r0, r4
 8009300:	f7fe ff4c 	bl	800819c <tcp_process_refused_data>
 8009304:	300d      	adds	r0, #13
 8009306:	d008      	beq.n	800931a <tcp_input+0x25a>
 8009308:	6f63      	ldr	r3, [r4, #116]	; 0x74
 800930a:	2b00      	cmp	r3, #0
 800930c:	f000 812e 	beq.w	800956c <tcp_input+0x4ac>
 8009310:	9b04      	ldr	r3, [sp, #16]
 8009312:	881b      	ldrh	r3, [r3, #0]
 8009314:	2b00      	cmp	r3, #0
 8009316:	f000 8129 	beq.w	800956c <tcp_input+0x4ac>
 800931a:	8d63      	ldrh	r3, [r4, #42]	; 0x2a
 800931c:	b913      	cbnz	r3, 8009324 <tcp_input+0x264>
 800931e:	4620      	mov	r0, r4
 8009320:	f000 fd2e 	bl	8009d80 <tcp_send_empty_ack>
 8009324:	2400      	movs	r4, #0
 8009326:	602c      	str	r4, [r5, #0]
 8009328:	4d1a      	ldr	r5, [pc, #104]	; (8009394 <tcp_input+0x2d4>)
 800932a:	f8ca 4000 	str.w	r4, [sl]
 800932e:	6868      	ldr	r0, [r5, #4]
 8009330:	b110      	cbz	r0, 8009338 <tcp_input+0x278>
 8009332:	f7fe f873 	bl	800741c <pbuf_free>
 8009336:	606c      	str	r4, [r5, #4]
 8009338:	b009      	add	sp, #36	; 0x24
 800933a:	e8bd 8ff0 	ldmia.w	sp!, {r4, r5, r6, r7, r8, r9, sl, fp, pc}
 800933e:	46a2      	mov	sl, r4
 8009340:	461c      	mov	r4, r3
 8009342:	e72f      	b.n	80091a4 <tcp_input+0xe4>
 8009344:	200040bc 	.word	0x200040bc
 8009348:	200040f0 	.word	0x200040f0
 800934c:	200040c8 	.word	0x200040c8
 8009350:	200040c4 	.word	0x200040c4
 8009354:	200040c0 	.word	0x200040c0
 8009358:	20004090 	.word	0x20004090
 800935c:	20004094 	.word	0x20004094
 8009360:	200040ca 	.word	0x200040ca
 8009364:	200077f4 	.word	0x200077f4
 8009368:	20007804 	.word	0x20007804
 800936c:	0800d6b8 	.word	0x0800d6b8
 8009370:	0800d502 	.word	0x0800d502
 8009374:	0800c6ba 	.word	0x0800c6ba
 8009378:	0800d512 	.word	0x0800d512
 800937c:	0800d51e 	.word	0x0800d51e
 8009380:	0800d53d 	.word	0x0800d53d
 8009384:	0800d564 	.word	0x0800d564
 8009388:	0800d58e 	.word	0x0800d58e
 800938c:	0800d5b5 	.word	0x0800d5b5
 8009390:	0800d5e0 	.word	0x0800d5e0
 8009394:	20004098 	.word	0x20004098
 8009398:	200040b0 	.word	0x200040b0
 800939c:	200040ac 	.word	0x200040ac
 80093a0:	200040a8 	.word	0x200040a8
 80093a4:	20007808 	.word	0x20007808
 80093a8:	200040b4 	.word	0x200040b4
 80093ac:	0800d60a 	.word	0x0800d60a
 80093b0:	7d23      	ldrb	r3, [r4, #20]
 80093b2:	2b0a      	cmp	r3, #10
 80093b4:	d005      	beq.n	80093c2 <tcp_input+0x302>
 80093b6:	4653      	mov	r3, sl
 80093b8:	22fe      	movs	r2, #254	; 0xfe
 80093ba:	4649      	mov	r1, r9
 80093bc:	489d      	ldr	r0, [pc, #628]	; (8009634 <tcp_input+0x574>)
 80093be:	f002 faaf 	bl	800b920 <iprintf>
 80093c2:	6833      	ldr	r3, [r6, #0]
 80093c4:	8b22      	ldrh	r2, [r4, #24]
 80093c6:	8818      	ldrh	r0, [r3, #0]
 80093c8:	4290      	cmp	r0, r2
 80093ca:	d13c      	bne.n	8009446 <tcp_input+0x386>
 80093cc:	8ae1      	ldrh	r1, [r4, #22]
 80093ce:	885a      	ldrh	r2, [r3, #2]
 80093d0:	428a      	cmp	r2, r1
 80093d2:	d138      	bne.n	8009446 <tcp_input+0x386>
 80093d4:	6861      	ldr	r1, [r4, #4]
 80093d6:	f8d8 3010 	ldr.w	r3, [r8, #16]
 80093da:	4299      	cmp	r1, r3
 80093dc:	d133      	bne.n	8009446 <tcp_input+0x386>
 80093de:	6821      	ldr	r1, [r4, #0]
 80093e0:	f8d8 3014 	ldr.w	r3, [r8, #20]
 80093e4:	4299      	cmp	r1, r3
 80093e6:	d12e      	bne.n	8009446 <tcp_input+0x386>
 80093e8:	9b03      	ldr	r3, [sp, #12]
 80093ea:	781b      	ldrb	r3, [r3, #0]
 80093ec:	0759      	lsls	r1, r3, #29
 80093ee:	d424      	bmi.n	800943a <tcp_input+0x37a>
 80093f0:	079e      	lsls	r6, r3, #30
 80093f2:	d513      	bpl.n	800941c <tcp_input+0x35c>
 80093f4:	f8db 1000 	ldr.w	r1, [fp]
 80093f8:	6a63      	ldr	r3, [r4, #36]	; 0x24
 80093fa:	1acb      	subs	r3, r1, r3
 80093fc:	d413      	bmi.n	8009426 <tcp_input+0x366>
 80093fe:	8d26      	ldrh	r6, [r4, #40]	; 0x28
 8009400:	1b9b      	subs	r3, r3, r6
 8009402:	2b00      	cmp	r3, #0
 8009404:	dc0f      	bgt.n	8009426 <tcp_input+0x366>
 8009406:	9b04      	ldr	r3, [sp, #16]
 8009408:	881c      	ldrh	r4, [r3, #0]
 800940a:	9001      	str	r0, [sp, #4]
 800940c:	9200      	str	r2, [sp, #0]
 800940e:	4b8a      	ldr	r3, [pc, #552]	; (8009638 <tcp_input+0x578>)
 8009410:	4421      	add	r1, r4
 8009412:	1d1a      	adds	r2, r3, #4
 8009414:	6838      	ldr	r0, [r7, #0]
 8009416:	f000 fe67 	bl	800a0e8 <tcp_rst>
 800941a:	e00e      	b.n	800943a <tcp_input+0x37a>
 800941c:	07d8      	lsls	r0, r3, #31
 800941e:	bf42      	ittt	mi
 8009420:	4b86      	ldrmi	r3, [pc, #536]	; (800963c <tcp_input+0x57c>)
 8009422:	681b      	ldrmi	r3, [r3, #0]
 8009424:	6223      	strmi	r3, [r4, #32]
 8009426:	9b04      	ldr	r3, [sp, #16]
 8009428:	881b      	ldrh	r3, [r3, #0]
 800942a:	b133      	cbz	r3, 800943a <tcp_input+0x37a>
 800942c:	7ea3      	ldrb	r3, [r4, #26]
 800942e:	f043 0302 	orr.w	r3, r3, #2
 8009432:	76a3      	strb	r3, [r4, #26]
 8009434:	4620      	mov	r0, r4
 8009436:	f000 fcd9 	bl	8009dec <tcp_output>
 800943a:	4628      	mov	r0, r5
 800943c:	b009      	add	sp, #36	; 0x24
 800943e:	e8bd 4ff0 	ldmia.w	sp!, {r4, r5, r6, r7, r8, r9, sl, fp, lr}
 8009442:	f7fd bfeb 	b.w	800741c <pbuf_free>
 8009446:	68e4      	ldr	r4, [r4, #12]
 8009448:	2c00      	cmp	r4, #0
 800944a:	d1b1      	bne.n	80093b0 <tcp_input+0x2f0>
 800944c:	4b7c      	ldr	r3, [pc, #496]	; (8009640 <tcp_input+0x580>)
 800944e:	6832      	ldr	r2, [r6, #0]
 8009450:	6819      	ldr	r1, [r3, #0]
 8009452:	f8d8 e014 	ldr.w	lr, [r8, #20]
 8009456:	4689      	mov	r9, r1
 8009458:	f1b9 0f00 	cmp.w	r9, #0
 800945c:	d111      	bne.n	8009482 <tcp_input+0x3c2>
 800945e:	8990      	ldrh	r0, [r2, #12]
 8009460:	f7fc fa04 	bl	800586c <lwip_htons>
 8009464:	0743      	lsls	r3, r0, #29
 8009466:	d4e8      	bmi.n	800943a <tcp_input+0x37a>
 8009468:	6833      	ldr	r3, [r6, #0]
 800946a:	9a04      	ldr	r2, [sp, #16]
 800946c:	f8db 1000 	ldr.w	r1, [fp]
 8009470:	8810      	ldrh	r0, [r2, #0]
 8009472:	881a      	ldrh	r2, [r3, #0]
 8009474:	4401      	add	r1, r0
 8009476:	9201      	str	r2, [sp, #4]
 8009478:	885b      	ldrh	r3, [r3, #2]
 800947a:	9300      	str	r3, [sp, #0]
 800947c:	4b6e      	ldr	r3, [pc, #440]	; (8009638 <tcp_input+0x578>)
 800947e:	1d1a      	adds	r2, r3, #4
 8009480:	e7c8      	b.n	8009414 <tcp_input+0x354>
 8009482:	f8b9 0016 	ldrh.w	r0, [r9, #22]
 8009486:	8853      	ldrh	r3, [r2, #2]
 8009488:	4283      	cmp	r3, r0
 800948a:	d107      	bne.n	800949c <tcp_input+0x3dc>
 800948c:	f8d9 3000 	ldr.w	r3, [r9]
 8009490:	4573      	cmp	r3, lr
 8009492:	f000 82dd 	beq.w	8009a50 <tcp_input+0x990>
 8009496:	2b00      	cmp	r3, #0
 8009498:	f000 82da 	beq.w	8009a50 <tcp_input+0x990>
 800949c:	464c      	mov	r4, r9
 800949e:	f8d9 900c 	ldr.w	r9, [r9, #12]
 80094a2:	e7d9      	b.n	8009458 <tcp_input+0x398>
 80094a4:	0798      	lsls	r0, r3, #30
 80094a6:	d5c8      	bpl.n	800943a <tcp_input+0x37a>
 80094a8:	f899 0015 	ldrb.w	r0, [r9, #21]
 80094ac:	f7fe ffb4 	bl	8008418 <tcp_alloc>
 80094b0:	4604      	mov	r4, r0
 80094b2:	b950      	cbnz	r0, 80094ca <tcp_input+0x40a>
 80094b4:	f8d9 3018 	ldr.w	r3, [r9, #24]
 80094b8:	2b00      	cmp	r3, #0
 80094ba:	d0be      	beq.n	800943a <tcp_input+0x37a>
 80094bc:	4601      	mov	r1, r0
 80094be:	f04f 32ff 	mov.w	r2, #4294967295
 80094c2:	f8d9 0010 	ldr.w	r0, [r9, #16]
 80094c6:	4798      	blx	r3
 80094c8:	e7b7      	b.n	800943a <tcp_input+0x37a>
 80094ca:	f8d8 3014 	ldr.w	r3, [r8, #20]
 80094ce:	6832      	ldr	r2, [r6, #0]
 80094d0:	6003      	str	r3, [r0, #0]
 80094d2:	f8d8 3010 	ldr.w	r3, [r8, #16]
 80094d6:	6043      	str	r3, [r0, #4]
 80094d8:	f8b9 3016 	ldrh.w	r3, [r9, #22]
 80094dc:	82c3      	strh	r3, [r0, #22]
 80094de:	7813      	ldrb	r3, [r2, #0]
 80094e0:	7852      	ldrb	r2, [r2, #1]
 80094e2:	ea43 2302 	orr.w	r3, r3, r2, lsl #8
 80094e6:	8303      	strh	r3, [r0, #24]
 80094e8:	2303      	movs	r3, #3
 80094ea:	7503      	strb	r3, [r0, #20]
 80094ec:	f8db 3000 	ldr.w	r3, [fp]
 80094f0:	3301      	adds	r3, #1
 80094f2:	6243      	str	r3, [r0, #36]	; 0x24
 80094f4:	62c3      	str	r3, [r0, #44]	; 0x2c
 80094f6:	f7ff f817 	bl	8008528 <tcp_next_iss>
 80094fa:	f8db 3000 	ldr.w	r3, [fp]
 80094fe:	6560      	str	r0, [r4, #84]	; 0x54
 8009500:	3b01      	subs	r3, #1
 8009502:	64e0      	str	r0, [r4, #76]	; 0x4c
 8009504:	6460      	str	r0, [r4, #68]	; 0x44
 8009506:	6523      	str	r3, [r4, #80]	; 0x50
 8009508:	f8d9 3010 	ldr.w	r3, [r9, #16]
 800950c:	65a0      	str	r0, [r4, #88]	; 0x58
 800950e:	6123      	str	r3, [r4, #16]
 8009510:	f8c4 9078 	str.w	r9, [r4, #120]	; 0x78
 8009514:	f899 3008 	ldrb.w	r3, [r9, #8]
 8009518:	f003 030c 	and.w	r3, r3, #12
 800951c:	7223      	strb	r3, [r4, #8]
 800951e:	4b49      	ldr	r3, [pc, #292]	; (8009644 <tcp_input+0x584>)
 8009520:	681a      	ldr	r2, [r3, #0]
 8009522:	601c      	str	r4, [r3, #0]
 8009524:	60e2      	str	r2, [r4, #12]
 8009526:	f000 ff81 	bl	800a42c <tcp_timer_needed>
 800952a:	4b47      	ldr	r3, [pc, #284]	; (8009648 <tcp_input+0x588>)
 800952c:	2201      	movs	r2, #1
 800952e:	701a      	strb	r2, [r3, #0]
 8009530:	9b06      	ldr	r3, [sp, #24]
 8009532:	881b      	ldrh	r3, [r3, #0]
 8009534:	b11b      	cbz	r3, 800953e <tcp_input+0x47e>
 8009536:	f104 0032 	add.w	r0, r4, #50	; 0x32
 800953a:	f7ff fd69 	bl	8009010 <tcp_parseopt.isra.1.part.2>
 800953e:	6833      	ldr	r3, [r6, #0]
 8009540:	1d21      	adds	r1, r4, #4
 8009542:	8e60      	ldrh	r0, [r4, #50]	; 0x32
 8009544:	89db      	ldrh	r3, [r3, #14]
 8009546:	f8a4 305c 	strh.w	r3, [r4, #92]	; 0x5c
 800954a:	f8a4 305e 	strh.w	r3, [r4, #94]	; 0x5e
 800954e:	f7fe fff7 	bl	8008540 <tcp_eff_send_mss_impl>
 8009552:	2112      	movs	r1, #18
 8009554:	8660      	strh	r0, [r4, #50]	; 0x32
 8009556:	4620      	mov	r0, r4
 8009558:	f000 fb5a 	bl	8009c10 <tcp_enqueue_flags>
 800955c:	2800      	cmp	r0, #0
 800955e:	f43f af69 	beq.w	8009434 <tcp_input+0x374>
 8009562:	2100      	movs	r1, #0
 8009564:	4620      	mov	r0, r4
 8009566:	f7fe fe9f 	bl	80082a8 <tcp_abandon>
 800956a:	e766      	b.n	800943a <tcp_input+0x37a>
 800956c:	9b03      	ldr	r3, [sp, #12]
 800956e:	602c      	str	r4, [r5, #0]
 8009570:	781b      	ldrb	r3, [r3, #0]
 8009572:	0759      	lsls	r1, r3, #29
 8009574:	d535      	bpl.n	80095e2 <tcp_input+0x522>
 8009576:	7d21      	ldrb	r1, [r4, #20]
 8009578:	2902      	cmp	r1, #2
 800957a:	d122      	bne.n	80095c2 <tcp_input+0x502>
 800957c:	6ce2      	ldr	r2, [r4, #76]	; 0x4c
 800957e:	683b      	ldr	r3, [r7, #0]
 8009580:	429a      	cmp	r2, r3
 8009582:	d109      	bne.n	8009598 <tcp_input+0x4d8>
 8009584:	f898 3000 	ldrb.w	r3, [r8]
 8009588:	f043 0308 	orr.w	r3, r3, #8
 800958c:	f888 3000 	strb.w	r3, [r8]
 8009590:	7ea3      	ldrb	r3, [r4, #26]
 8009592:	f023 0301 	bic.w	r3, r3, #1
 8009596:	76a3      	strb	r3, [r4, #26]
 8009598:	f898 3000 	ldrb.w	r3, [r8]
 800959c:	0719      	lsls	r1, r3, #28
 800959e:	f140 81ed 	bpl.w	800997c <tcp_input+0x8bc>
 80095a2:	f8d4 308c 	ldr.w	r3, [r4, #140]	; 0x8c
 80095a6:	b11b      	cbz	r3, 80095b0 <tcp_input+0x4f0>
 80095a8:	f06f 010d 	mvn.w	r1, #13
 80095ac:	6920      	ldr	r0, [r4, #16]
 80095ae:	4798      	blx	r3
 80095b0:	4621      	mov	r1, r4
 80095b2:	4824      	ldr	r0, [pc, #144]	; (8009644 <tcp_input+0x584>)
 80095b4:	f7fe fce0 	bl	8007f78 <tcp_pcb_remove>
 80095b8:	4621      	mov	r1, r4
 80095ba:	2001      	movs	r0, #1
 80095bc:	f7fd fda8 	bl	8007110 <memp_free>
 80095c0:	e6b0      	b.n	8009324 <tcp_input+0x264>
 80095c2:	6a62      	ldr	r2, [r4, #36]	; 0x24
 80095c4:	f8db 3000 	ldr.w	r3, [fp]
 80095c8:	429a      	cmp	r2, r3
 80095ca:	f000 825a 	beq.w	8009a82 <tcp_input+0x9c2>
 80095ce:	1a9b      	subs	r3, r3, r2
 80095d0:	d4e2      	bmi.n	8009598 <tcp_input+0x4d8>
 80095d2:	8d22      	ldrh	r2, [r4, #40]	; 0x28
 80095d4:	1a9b      	subs	r3, r3, r2
 80095d6:	2b00      	cmp	r3, #0
 80095d8:	dcde      	bgt.n	8009598 <tcp_input+0x4d8>
 80095da:	7ea3      	ldrb	r3, [r4, #26]
 80095dc:	f043 0302 	orr.w	r3, r3, #2
 80095e0:	e7d9      	b.n	8009596 <tcp_input+0x4d6>
 80095e2:	f013 0102 	ands.w	r1, r3, #2
 80095e6:	d003      	beq.n	80095f0 <tcp_input+0x530>
 80095e8:	7d22      	ldrb	r2, [r4, #20]
 80095ea:	3a02      	subs	r2, #2
 80095ec:	2a01      	cmp	r2, #1
 80095ee:	d8f4      	bhi.n	80095da <tcp_input+0x51a>
 80095f0:	7ea2      	ldrb	r2, [r4, #26]
 80095f2:	06d2      	lsls	r2, r2, #27
 80095f4:	bf5e      	ittt	pl
 80095f6:	4a11      	ldrpl	r2, [pc, #68]	; (800963c <tcp_input+0x57c>)
 80095f8:	6812      	ldrpl	r2, [r2, #0]
 80095fa:	6222      	strpl	r2, [r4, #32]
 80095fc:	2200      	movs	r2, #0
 80095fe:	f884 2096 	strb.w	r2, [r4, #150]	; 0x96
 8009602:	9a06      	ldr	r2, [sp, #24]
 8009604:	8812      	ldrh	r2, [r2, #0]
 8009606:	b13a      	cbz	r2, 8009618 <tcp_input+0x558>
 8009608:	f104 0032 	add.w	r0, r4, #50	; 0x32
 800960c:	9107      	str	r1, [sp, #28]
 800960e:	9306      	str	r3, [sp, #24]
 8009610:	f7ff fcfe 	bl	8009010 <tcp_parseopt.isra.1.part.2>
 8009614:	9907      	ldr	r1, [sp, #28]
 8009616:	9b06      	ldr	r3, [sp, #24]
 8009618:	7d22      	ldrb	r2, [r4, #20]
 800961a:	3a02      	subs	r2, #2
 800961c:	2a07      	cmp	r2, #7
 800961e:	d8bb      	bhi.n	8009598 <tcp_input+0x4d8>
 8009620:	e8df f012 	tbh	[pc, r2, lsl #1]
 8009624:	00940014 	.word	0x00940014
 8009628:	010000fc 	.word	0x010000fc
 800962c:	00fc014a 	.word	0x00fc014a
 8009630:	01830164 	.word	0x01830164
 8009634:	0800c6ba 	.word	0x0800c6ba
 8009638:	20004100 	.word	0x20004100
 800963c:	200077f8 	.word	0x200077f8
 8009640:	200077fc 	.word	0x200077fc
 8009644:	200077f4 	.word	0x200077f4
 8009648:	200077f0 	.word	0x200077f0
 800964c:	f003 0212 	and.w	r2, r3, #18
 8009650:	2a12      	cmp	r2, #18
 8009652:	d15e      	bne.n	8009712 <tcp_input+0x652>
 8009654:	6c62      	ldr	r2, [r4, #68]	; 0x44
 8009656:	6839      	ldr	r1, [r7, #0]
 8009658:	3201      	adds	r2, #1
 800965a:	428a      	cmp	r2, r1
 800965c:	d159      	bne.n	8009712 <tcp_input+0x652>
 800965e:	f8db 3000 	ldr.w	r3, [fp]
 8009662:	6462      	str	r2, [r4, #68]	; 0x44
 8009664:	1c59      	adds	r1, r3, #1
 8009666:	6832      	ldr	r2, [r6, #0]
 8009668:	3b01      	subs	r3, #1
 800966a:	8e60      	ldrh	r0, [r4, #50]	; 0x32
 800966c:	6261      	str	r1, [r4, #36]	; 0x24
 800966e:	62e1      	str	r1, [r4, #44]	; 0x2c
 8009670:	89d2      	ldrh	r2, [r2, #14]
 8009672:	6523      	str	r3, [r4, #80]	; 0x50
 8009674:	2304      	movs	r3, #4
 8009676:	f8a4 205c 	strh.w	r2, [r4, #92]	; 0x5c
 800967a:	f8a4 205e 	strh.w	r2, [r4, #94]	; 0x5e
 800967e:	18e1      	adds	r1, r4, r3
 8009680:	7523      	strb	r3, [r4, #20]
 8009682:	f7fe ff5d 	bl	8008540 <tcp_eff_send_mss_impl>
 8009686:	f241 121c 	movw	r2, #4380	; 0x111c
 800968a:	0043      	lsls	r3, r0, #1
 800968c:	8660      	strh	r0, [r4, #50]	; 0x32
 800968e:	0080      	lsls	r0, r0, #2
 8009690:	4293      	cmp	r3, r2
 8009692:	bf38      	it	cc
 8009694:	4613      	movcc	r3, r2
 8009696:	4283      	cmp	r3, r0
 8009698:	bf28      	it	cs
 800969a:	4603      	movcs	r3, r0
 800969c:	f8a4 3048 	strh.w	r3, [r4, #72]	; 0x48
 80096a0:	f8b4 3062 	ldrh.w	r3, [r4, #98]	; 0x62
 80096a4:	b933      	cbnz	r3, 80096b4 <tcp_input+0x5f4>
 80096a6:	4bad      	ldr	r3, [pc, #692]	; (800995c <tcp_input+0x89c>)
 80096a8:	f240 321a 	movw	r2, #794	; 0x31a
 80096ac:	49ac      	ldr	r1, [pc, #688]	; (8009960 <tcp_input+0x8a0>)
 80096ae:	48ad      	ldr	r0, [pc, #692]	; (8009964 <tcp_input+0x8a4>)
 80096b0:	f002 f936 	bl	800b920 <iprintf>
 80096b4:	f8b4 3062 	ldrh.w	r3, [r4, #98]	; 0x62
 80096b8:	6ee6      	ldr	r6, [r4, #108]	; 0x6c
 80096ba:	3b01      	subs	r3, #1
 80096bc:	f8a4 3062 	strh.w	r3, [r4, #98]	; 0x62
 80096c0:	b9fe      	cbnz	r6, 8009702 <tcp_input+0x642>
 80096c2:	6ea6      	ldr	r6, [r4, #104]	; 0x68
 80096c4:	b936      	cbnz	r6, 80096d4 <tcp_input+0x614>
 80096c6:	4ba5      	ldr	r3, [pc, #660]	; (800995c <tcp_input+0x89c>)
 80096c8:	f240 3222 	movw	r2, #802	; 0x322
 80096cc:	49a6      	ldr	r1, [pc, #664]	; (8009968 <tcp_input+0x8a8>)
 80096ce:	48a5      	ldr	r0, [pc, #660]	; (8009964 <tcp_input+0x8a4>)
 80096d0:	f002 f926 	bl	800b920 <iprintf>
 80096d4:	6833      	ldr	r3, [r6, #0]
 80096d6:	66a3      	str	r3, [r4, #104]	; 0x68
 80096d8:	4630      	mov	r0, r6
 80096da:	f7fe fa1f 	bl	8007b1c <tcp_seg_free>
 80096de:	6ee3      	ldr	r3, [r4, #108]	; 0x6c
 80096e0:	b993      	cbnz	r3, 8009708 <tcp_input+0x648>
 80096e2:	f64f 73ff 	movw	r3, #65535	; 0xffff
 80096e6:	8623      	strh	r3, [r4, #48]	; 0x30
 80096e8:	f8d4 3084 	ldr.w	r3, [r4, #132]	; 0x84
 80096ec:	2b00      	cmp	r3, #0
 80096ee:	f43f af74 	beq.w	80095da <tcp_input+0x51a>
 80096f2:	2200      	movs	r2, #0
 80096f4:	4621      	mov	r1, r4
 80096f6:	6920      	ldr	r0, [r4, #16]
 80096f8:	4798      	blx	r3
 80096fa:	300d      	adds	r0, #13
 80096fc:	f47f af6d 	bne.w	80095da <tcp_input+0x51a>
 8009700:	e610      	b.n	8009324 <tcp_input+0x264>
 8009702:	6833      	ldr	r3, [r6, #0]
 8009704:	66e3      	str	r3, [r4, #108]	; 0x6c
 8009706:	e7e7      	b.n	80096d8 <tcp_input+0x618>
 8009708:	2300      	movs	r3, #0
 800970a:	8623      	strh	r3, [r4, #48]	; 0x30
 800970c:	f884 3042 	strb.w	r3, [r4, #66]	; 0x42
 8009710:	e7ea      	b.n	80096e8 <tcp_input+0x628>
 8009712:	06db      	lsls	r3, r3, #27
 8009714:	f57f af40 	bpl.w	8009598 <tcp_input+0x4d8>
 8009718:	6833      	ldr	r3, [r6, #0]
 800971a:	9a04      	ldr	r2, [sp, #16]
 800971c:	f8db 1000 	ldr.w	r1, [fp]
 8009720:	8810      	ldrh	r0, [r2, #0]
 8009722:	881a      	ldrh	r2, [r3, #0]
 8009724:	4401      	add	r1, r0
 8009726:	9201      	str	r2, [sp, #4]
 8009728:	885b      	ldrh	r3, [r3, #2]
 800972a:	9300      	str	r3, [sp, #0]
 800972c:	4b8f      	ldr	r3, [pc, #572]	; (800996c <tcp_input+0x8ac>)
 800972e:	6838      	ldr	r0, [r7, #0]
 8009730:	1d1a      	adds	r2, r3, #4
 8009732:	f000 fcd9 	bl	800a0e8 <tcp_rst>
 8009736:	f894 3042 	ldrb.w	r3, [r4, #66]	; 0x42
 800973a:	2b05      	cmp	r3, #5
 800973c:	f63f af2c 	bhi.w	8009598 <tcp_input+0x4d8>
 8009740:	2300      	movs	r3, #0
 8009742:	4620      	mov	r0, r4
 8009744:	8623      	strh	r3, [r4, #48]	; 0x30
 8009746:	f000 fd29 	bl	800a19c <tcp_rexmit_rto>
 800974a:	e725      	b.n	8009598 <tcp_input+0x4d8>
 800974c:	06d8      	lsls	r0, r3, #27
 800974e:	d557      	bpl.n	8009800 <tcp_input+0x740>
 8009750:	6c63      	ldr	r3, [r4, #68]	; 0x44
 8009752:	6838      	ldr	r0, [r7, #0]
 8009754:	43db      	mvns	r3, r3
 8009756:	42c3      	cmn	r3, r0
 8009758:	d443      	bmi.n	80097e2 <tcp_input+0x722>
 800975a:	6ce3      	ldr	r3, [r4, #76]	; 0x4c
 800975c:	1ac3      	subs	r3, r0, r3
 800975e:	2b00      	cmp	r3, #0
 8009760:	dc3f      	bgt.n	80097e2 <tcp_input+0x722>
 8009762:	2304      	movs	r3, #4
 8009764:	7523      	strb	r3, [r4, #20]
 8009766:	6fa3      	ldr	r3, [r4, #120]	; 0x78
 8009768:	b143      	cbz	r3, 800977c <tcp_input+0x6bc>
 800976a:	699b      	ldr	r3, [r3, #24]
 800976c:	b933      	cbnz	r3, 800977c <tcp_input+0x6bc>
 800976e:	4b7b      	ldr	r3, [pc, #492]	; (800995c <tcp_input+0x89c>)
 8009770:	f240 3251 	movw	r2, #849	; 0x351
 8009774:	497e      	ldr	r1, [pc, #504]	; (8009970 <tcp_input+0x8b0>)
 8009776:	487b      	ldr	r0, [pc, #492]	; (8009964 <tcp_input+0x8a4>)
 8009778:	f002 f8d2 	bl	800b920 <iprintf>
 800977c:	6fa3      	ldr	r3, [r4, #120]	; 0x78
 800977e:	b91b      	cbnz	r3, 8009788 <tcp_input+0x6c8>
 8009780:	4620      	mov	r0, r4
 8009782:	f7fe fe07 	bl	8008394 <tcp_abort>
 8009786:	e5cd      	b.n	8009324 <tcp_input+0x264>
 8009788:	699b      	ldr	r3, [r3, #24]
 800978a:	2b00      	cmp	r3, #0
 800978c:	d0f8      	beq.n	8009780 <tcp_input+0x6c0>
 800978e:	2200      	movs	r2, #0
 8009790:	4621      	mov	r1, r4
 8009792:	6920      	ldr	r0, [r4, #16]
 8009794:	4798      	blx	r3
 8009796:	b110      	cbz	r0, 800979e <tcp_input+0x6de>
 8009798:	300d      	adds	r0, #13
 800979a:	d1f1      	bne.n	8009780 <tcp_input+0x6c0>
 800979c:	e5c2      	b.n	8009324 <tcp_input+0x264>
 800979e:	4620      	mov	r0, r4
 80097a0:	f7fe ff42 	bl	8008628 <tcp_receive>
 80097a4:	9b05      	ldr	r3, [sp, #20]
 80097a6:	881b      	ldrh	r3, [r3, #0]
 80097a8:	b113      	cbz	r3, 80097b0 <tcp_input+0x6f0>
 80097aa:	3b01      	subs	r3, #1
 80097ac:	9a05      	ldr	r2, [sp, #20]
 80097ae:	8013      	strh	r3, [r2, #0]
 80097b0:	8e62      	ldrh	r2, [r4, #50]	; 0x32
 80097b2:	f241 111c 	movw	r1, #4380	; 0x111c
 80097b6:	0053      	lsls	r3, r2, #1
 80097b8:	0092      	lsls	r2, r2, #2
 80097ba:	428b      	cmp	r3, r1
 80097bc:	bf38      	it	cc
 80097be:	460b      	movcc	r3, r1
 80097c0:	4293      	cmp	r3, r2
 80097c2:	bf28      	it	cs
 80097c4:	4613      	movcs	r3, r2
 80097c6:	f8a4 3048 	strh.w	r3, [r4, #72]	; 0x48
 80097ca:	f898 3000 	ldrb.w	r3, [r8]
 80097ce:	069a      	lsls	r2, r3, #26
 80097d0:	f57f aee2 	bpl.w	8009598 <tcp_input+0x4d8>
 80097d4:	7ea3      	ldrb	r3, [r4, #26]
 80097d6:	f043 0302 	orr.w	r3, r3, #2
 80097da:	76a3      	strb	r3, [r4, #26]
 80097dc:	2307      	movs	r3, #7
 80097de:	7523      	strb	r3, [r4, #20]
 80097e0:	e6da      	b.n	8009598 <tcp_input+0x4d8>
 80097e2:	6833      	ldr	r3, [r6, #0]
 80097e4:	9a04      	ldr	r2, [sp, #16]
 80097e6:	f8db 1000 	ldr.w	r1, [fp]
 80097ea:	8816      	ldrh	r6, [r2, #0]
 80097ec:	881a      	ldrh	r2, [r3, #0]
 80097ee:	4431      	add	r1, r6
 80097f0:	9201      	str	r2, [sp, #4]
 80097f2:	885b      	ldrh	r3, [r3, #2]
 80097f4:	9300      	str	r3, [sp, #0]
 80097f6:	4b5d      	ldr	r3, [pc, #372]	; (800996c <tcp_input+0x8ac>)
 80097f8:	1d1a      	adds	r2, r3, #4
 80097fa:	f000 fc75 	bl	800a0e8 <tcp_rst>
 80097fe:	e6cb      	b.n	8009598 <tcp_input+0x4d8>
 8009800:	2900      	cmp	r1, #0
 8009802:	f43f aec9 	beq.w	8009598 <tcp_input+0x4d8>
 8009806:	6a63      	ldr	r3, [r4, #36]	; 0x24
 8009808:	f8db 2000 	ldr.w	r2, [fp]
 800980c:	3b01      	subs	r3, #1
 800980e:	4293      	cmp	r3, r2
 8009810:	f47f aec2 	bne.w	8009598 <tcp_input+0x4d8>
 8009814:	4620      	mov	r0, r4
 8009816:	f000 fcdd 	bl	800a1d4 <tcp_rexmit>
 800981a:	e6bd      	b.n	8009598 <tcp_input+0x4d8>
 800981c:	4620      	mov	r0, r4
 800981e:	f7fe ff03 	bl	8008628 <tcp_receive>
 8009822:	e7d2      	b.n	80097ca <tcp_input+0x70a>
 8009824:	4620      	mov	r0, r4
 8009826:	f7fe feff 	bl	8008628 <tcp_receive>
 800982a:	f898 3000 	ldrb.w	r3, [r8]
 800982e:	f013 0f20 	tst.w	r3, #32
 8009832:	9b03      	ldr	r3, [sp, #12]
 8009834:	781b      	ldrb	r3, [r3, #0]
 8009836:	d031      	beq.n	800989c <tcp_input+0x7dc>
 8009838:	f013 0f10 	tst.w	r3, #16
 800983c:	7ea3      	ldrb	r3, [r4, #26]
 800983e:	d028      	beq.n	8009892 <tcp_input+0x7d2>
 8009840:	6ce1      	ldr	r1, [r4, #76]	; 0x4c
 8009842:	683a      	ldr	r2, [r7, #0]
 8009844:	4291      	cmp	r1, r2
 8009846:	d124      	bne.n	8009892 <tcp_input+0x7d2>
 8009848:	6ea2      	ldr	r2, [r4, #104]	; 0x68
 800984a:	bb12      	cbnz	r2, 8009892 <tcp_input+0x7d2>
 800984c:	f043 0302 	orr.w	r3, r3, #2
 8009850:	4620      	mov	r0, r4
 8009852:	76a3      	strb	r3, [r4, #26]
 8009854:	f7fe f98e 	bl	8007b74 <tcp_pcb_purge>
 8009858:	f8d9 3000 	ldr.w	r3, [r9]
 800985c:	429c      	cmp	r4, r3
 800985e:	d10a      	bne.n	8009876 <tcp_input+0x7b6>
 8009860:	68e3      	ldr	r3, [r4, #12]
 8009862:	f8c9 3000 	str.w	r3, [r9]
 8009866:	e008      	b.n	800987a <tcp_input+0x7ba>
 8009868:	68da      	ldr	r2, [r3, #12]
 800986a:	4294      	cmp	r4, r2
 800986c:	d102      	bne.n	8009874 <tcp_input+0x7b4>
 800986e:	68e2      	ldr	r2, [r4, #12]
 8009870:	60da      	str	r2, [r3, #12]
 8009872:	e002      	b.n	800987a <tcp_input+0x7ba>
 8009874:	4613      	mov	r3, r2
 8009876:	2b00      	cmp	r3, #0
 8009878:	d1f6      	bne.n	8009868 <tcp_input+0x7a8>
 800987a:	2201      	movs	r2, #1
 800987c:	4b3d      	ldr	r3, [pc, #244]	; (8009974 <tcp_input+0x8b4>)
 800987e:	701a      	strb	r2, [r3, #0]
 8009880:	230a      	movs	r3, #10
 8009882:	7523      	strb	r3, [r4, #20]
 8009884:	4b3c      	ldr	r3, [pc, #240]	; (8009978 <tcp_input+0x8b8>)
 8009886:	681a      	ldr	r2, [r3, #0]
 8009888:	601c      	str	r4, [r3, #0]
 800988a:	60e2      	str	r2, [r4, #12]
 800988c:	f000 fdce 	bl	800a42c <tcp_timer_needed>
 8009890:	e682      	b.n	8009598 <tcp_input+0x4d8>
 8009892:	f043 0302 	orr.w	r3, r3, #2
 8009896:	76a3      	strb	r3, [r4, #26]
 8009898:	2308      	movs	r3, #8
 800989a:	e7a0      	b.n	80097de <tcp_input+0x71e>
 800989c:	06db      	lsls	r3, r3, #27
 800989e:	f57f ae7b 	bpl.w	8009598 <tcp_input+0x4d8>
 80098a2:	6ce2      	ldr	r2, [r4, #76]	; 0x4c
 80098a4:	683b      	ldr	r3, [r7, #0]
 80098a6:	429a      	cmp	r2, r3
 80098a8:	f47f ae76 	bne.w	8009598 <tcp_input+0x4d8>
 80098ac:	6ea3      	ldr	r3, [r4, #104]	; 0x68
 80098ae:	2b00      	cmp	r3, #0
 80098b0:	f47f ae72 	bne.w	8009598 <tcp_input+0x4d8>
 80098b4:	2306      	movs	r3, #6
 80098b6:	e792      	b.n	80097de <tcp_input+0x71e>
 80098b8:	4620      	mov	r0, r4
 80098ba:	f7fe feb5 	bl	8008628 <tcp_receive>
 80098be:	f898 3000 	ldrb.w	r3, [r8]
 80098c2:	069f      	lsls	r7, r3, #26
 80098c4:	f57f ae68 	bpl.w	8009598 <tcp_input+0x4d8>
 80098c8:	7ea3      	ldrb	r3, [r4, #26]
 80098ca:	4620      	mov	r0, r4
 80098cc:	f043 0302 	orr.w	r3, r3, #2
 80098d0:	76a3      	strb	r3, [r4, #26]
 80098d2:	f7fe f94f 	bl	8007b74 <tcp_pcb_purge>
 80098d6:	f8d9 3000 	ldr.w	r3, [r9]
 80098da:	429c      	cmp	r4, r3
 80098dc:	d0c0      	beq.n	8009860 <tcp_input+0x7a0>
 80098de:	2b00      	cmp	r3, #0
 80098e0:	d0cb      	beq.n	800987a <tcp_input+0x7ba>
 80098e2:	68da      	ldr	r2, [r3, #12]
 80098e4:	4294      	cmp	r4, r2
 80098e6:	d0c2      	beq.n	800986e <tcp_input+0x7ae>
 80098e8:	4613      	mov	r3, r2
 80098ea:	e7f8      	b.n	80098de <tcp_input+0x81e>
 80098ec:	4620      	mov	r0, r4
 80098ee:	f7fe fe9b 	bl	8008628 <tcp_receive>
 80098f2:	9b03      	ldr	r3, [sp, #12]
 80098f4:	781b      	ldrb	r3, [r3, #0]
 80098f6:	06de      	lsls	r6, r3, #27
 80098f8:	f57f ae4e 	bpl.w	8009598 <tcp_input+0x4d8>
 80098fc:	6ce2      	ldr	r2, [r4, #76]	; 0x4c
 80098fe:	683b      	ldr	r3, [r7, #0]
 8009900:	429a      	cmp	r2, r3
 8009902:	f47f ae49 	bne.w	8009598 <tcp_input+0x4d8>
 8009906:	6ea3      	ldr	r3, [r4, #104]	; 0x68
 8009908:	2b00      	cmp	r3, #0
 800990a:	f47f ae45 	bne.w	8009598 <tcp_input+0x4d8>
 800990e:	4620      	mov	r0, r4
 8009910:	f7fe f930 	bl	8007b74 <tcp_pcb_purge>
 8009914:	f8d9 3000 	ldr.w	r3, [r9]
 8009918:	429c      	cmp	r4, r3
 800991a:	d0a1      	beq.n	8009860 <tcp_input+0x7a0>
 800991c:	2b00      	cmp	r3, #0
 800991e:	d0ac      	beq.n	800987a <tcp_input+0x7ba>
 8009920:	68da      	ldr	r2, [r3, #12]
 8009922:	4294      	cmp	r4, r2
 8009924:	d0a3      	beq.n	800986e <tcp_input+0x7ae>
 8009926:	4613      	mov	r3, r2
 8009928:	e7f8      	b.n	800991c <tcp_input+0x85c>
 800992a:	4620      	mov	r0, r4
 800992c:	f7fe fe7c 	bl	8008628 <tcp_receive>
 8009930:	9b03      	ldr	r3, [sp, #12]
 8009932:	781b      	ldrb	r3, [r3, #0]
 8009934:	06d8      	lsls	r0, r3, #27
 8009936:	f57f ae2f 	bpl.w	8009598 <tcp_input+0x4d8>
 800993a:	6ce2      	ldr	r2, [r4, #76]	; 0x4c
 800993c:	683b      	ldr	r3, [r7, #0]
 800993e:	429a      	cmp	r2, r3
 8009940:	f47f ae2a 	bne.w	8009598 <tcp_input+0x4d8>
 8009944:	6ea3      	ldr	r3, [r4, #104]	; 0x68
 8009946:	2b00      	cmp	r3, #0
 8009948:	f47f ae26 	bne.w	8009598 <tcp_input+0x4d8>
 800994c:	f898 3000 	ldrb.w	r3, [r8]
 8009950:	f043 0310 	orr.w	r3, r3, #16
 8009954:	f888 3000 	strb.w	r3, [r8]
 8009958:	e61e      	b.n	8009598 <tcp_input+0x4d8>
 800995a:	bf00      	nop
 800995c:	0800d6b8 	.word	0x0800d6b8
 8009960:	0800d657 	.word	0x0800d657
 8009964:	0800c6ba 	.word	0x0800c6ba
 8009968:	0800d66d 	.word	0x0800d66d
 800996c:	20004100 	.word	0x20004100
 8009970:	0800d680 	.word	0x0800d680
 8009974:	200077f0 	.word	0x200077f0
 8009978:	20007804 	.word	0x20007804
 800997c:	9b05      	ldr	r3, [sp, #20]
 800997e:	881a      	ldrh	r2, [r3, #0]
 8009980:	b122      	cbz	r2, 800998c <tcp_input+0x8cc>
 8009982:	6fe3      	ldr	r3, [r4, #124]	; 0x7c
 8009984:	b9eb      	cbnz	r3, 80099c2 <tcp_input+0x902>
 8009986:	2300      	movs	r3, #0
 8009988:	9a05      	ldr	r2, [sp, #20]
 800998a:	8013      	strh	r3, [r2, #0]
 800998c:	4620      	mov	r0, r4
 800998e:	f7ff fb77 	bl	8009080 <tcp_input_delayed_close>
 8009992:	2800      	cmp	r0, #0
 8009994:	f47f acc6 	bne.w	8009324 <tcp_input+0x264>
 8009998:	f8da 3000 	ldr.w	r3, [sl]
 800999c:	b33b      	cbz	r3, 80099ee <tcp_input+0x92e>
 800999e:	6f63      	ldr	r3, [r4, #116]	; 0x74
 80099a0:	b133      	cbz	r3, 80099b0 <tcp_input+0x8f0>
 80099a2:	4b40      	ldr	r3, [pc, #256]	; (8009aa4 <tcp_input+0x9e4>)
 80099a4:	f44f 72d2 	mov.w	r2, #420	; 0x1a4
 80099a8:	493f      	ldr	r1, [pc, #252]	; (8009aa8 <tcp_input+0x9e8>)
 80099aa:	4840      	ldr	r0, [pc, #256]	; (8009aac <tcp_input+0x9ec>)
 80099ac:	f001 ffb8 	bl	800b920 <iprintf>
 80099b0:	7ea3      	ldrb	r3, [r4, #26]
 80099b2:	f013 0310 	ands.w	r3, r3, #16
 80099b6:	d00a      	beq.n	80099ce <tcp_input+0x90e>
 80099b8:	f8da 0000 	ldr.w	r0, [sl]
 80099bc:	f7fd fd2e 	bl	800741c <pbuf_free>
 80099c0:	e6de      	b.n	8009780 <tcp_input+0x6c0>
 80099c2:	4621      	mov	r1, r4
 80099c4:	6920      	ldr	r0, [r4, #16]
 80099c6:	4798      	blx	r3
 80099c8:	300d      	adds	r0, #13
 80099ca:	d1dc      	bne.n	8009986 <tcp_input+0x8c6>
 80099cc:	e4aa      	b.n	8009324 <tcp_input+0x264>
 80099ce:	f8d4 6080 	ldr.w	r6, [r4, #128]	; 0x80
 80099d2:	b31e      	cbz	r6, 8009a1c <tcp_input+0x95c>
 80099d4:	f8da 2000 	ldr.w	r2, [sl]
 80099d8:	4621      	mov	r1, r4
 80099da:	6920      	ldr	r0, [r4, #16]
 80099dc:	47b0      	blx	r6
 80099de:	f110 0f0d 	cmn.w	r0, #13
 80099e2:	f43f ac9f 	beq.w	8009324 <tcp_input+0x264>
 80099e6:	b110      	cbz	r0, 80099ee <tcp_input+0x92e>
 80099e8:	f8da 3000 	ldr.w	r3, [sl]
 80099ec:	6763      	str	r3, [r4, #116]	; 0x74
 80099ee:	f898 3000 	ldrb.w	r3, [r8]
 80099f2:	069a      	lsls	r2, r3, #26
 80099f4:	d505      	bpl.n	8009a02 <tcp_input+0x942>
 80099f6:	6f63      	ldr	r3, [r4, #116]	; 0x74
 80099f8:	b1c3      	cbz	r3, 8009a2c <tcp_input+0x96c>
 80099fa:	7b5a      	ldrb	r2, [r3, #13]
 80099fc:	f042 0220 	orr.w	r2, r2, #32
 8009a00:	735a      	strb	r2, [r3, #13]
 8009a02:	2200      	movs	r2, #0
 8009a04:	4b2a      	ldr	r3, [pc, #168]	; (8009ab0 <tcp_input+0x9f0>)
 8009a06:	4620      	mov	r0, r4
 8009a08:	601a      	str	r2, [r3, #0]
 8009a0a:	f7ff fb39 	bl	8009080 <tcp_input_delayed_close>
 8009a0e:	2800      	cmp	r0, #0
 8009a10:	f47f ac88 	bne.w	8009324 <tcp_input+0x264>
 8009a14:	4620      	mov	r0, r4
 8009a16:	f000 f9e9 	bl	8009dec <tcp_output>
 8009a1a:	e483      	b.n	8009324 <tcp_input+0x264>
 8009a1c:	4633      	mov	r3, r6
 8009a1e:	f8da 2000 	ldr.w	r2, [sl]
 8009a22:	4621      	mov	r1, r4
 8009a24:	4630      	mov	r0, r6
 8009a26:	f7fe fba7 	bl	8008178 <tcp_recv_null>
 8009a2a:	e7d8      	b.n	80099de <tcp_input+0x91e>
 8009a2c:	8d23      	ldrh	r3, [r4, #40]	; 0x28
 8009a2e:	f8d4 6080 	ldr.w	r6, [r4, #128]	; 0x80
 8009a32:	f5b3 6f06 	cmp.w	r3, #2144	; 0x860
 8009a36:	bf1c      	itt	ne
 8009a38:	3301      	addne	r3, #1
 8009a3a:	8523      	strhne	r3, [r4, #40]	; 0x28
 8009a3c:	2e00      	cmp	r6, #0
 8009a3e:	d0e0      	beq.n	8009a02 <tcp_input+0x942>
 8009a40:	2300      	movs	r3, #0
 8009a42:	4621      	mov	r1, r4
 8009a44:	6920      	ldr	r0, [r4, #16]
 8009a46:	461a      	mov	r2, r3
 8009a48:	47b0      	blx	r6
 8009a4a:	300d      	adds	r0, #13
 8009a4c:	d1d9      	bne.n	8009a02 <tcp_input+0x942>
 8009a4e:	e469      	b.n	8009324 <tcp_input+0x264>
 8009a50:	b13c      	cbz	r4, 8009a62 <tcp_input+0x9a2>
 8009a52:	f8d9 300c 	ldr.w	r3, [r9, #12]
 8009a56:	60e3      	str	r3, [r4, #12]
 8009a58:	4b16      	ldr	r3, [pc, #88]	; (8009ab4 <tcp_input+0x9f4>)
 8009a5a:	f8c9 100c 	str.w	r1, [r9, #12]
 8009a5e:	f8c3 9000 	str.w	r9, [r3]
 8009a62:	9b03      	ldr	r3, [sp, #12]
 8009a64:	781b      	ldrb	r3, [r3, #0]
 8009a66:	0759      	lsls	r1, r3, #29
 8009a68:	f53f ace7 	bmi.w	800943a <tcp_input+0x37a>
 8009a6c:	06dc      	lsls	r4, r3, #27
 8009a6e:	f57f ad19 	bpl.w	80094a4 <tcp_input+0x3e4>
 8009a72:	9b04      	ldr	r3, [sp, #16]
 8009a74:	f8db 1000 	ldr.w	r1, [fp]
 8009a78:	881c      	ldrh	r4, [r3, #0]
 8009a7a:	8813      	ldrh	r3, [r2, #0]
 8009a7c:	e88d 0009 	stmia.w	sp, {r0, r3}
 8009a80:	e4c5      	b.n	800940e <tcp_input+0x34e>
 8009a82:	2900      	cmp	r1, #0
 8009a84:	f47f ad7e 	bne.w	8009584 <tcp_input+0x4c4>
 8009a88:	4b06      	ldr	r3, [pc, #24]	; (8009aa4 <tcp_input+0x9e4>)
 8009a8a:	f240 22e7 	movw	r2, #743	; 0x2e7
 8009a8e:	490a      	ldr	r1, [pc, #40]	; (8009ab8 <tcp_input+0x9f8>)
 8009a90:	4806      	ldr	r0, [pc, #24]	; (8009aac <tcp_input+0x9ec>)
 8009a92:	f001 ff45 	bl	800b920 <iprintf>
 8009a96:	e575      	b.n	8009584 <tcp_input+0x4c4>
 8009a98:	f1ba 0f00 	cmp.w	sl, #0
 8009a9c:	f47f abff 	bne.w	800929e <tcp_input+0x1de>
 8009aa0:	e40e      	b.n	80092c0 <tcp_input+0x200>
 8009aa2:	bf00      	nop
 8009aa4:	0800d6b8 	.word	0x0800d6b8
 8009aa8:	0800d69e 	.word	0x0800d69e
 8009aac:	0800c6ba 	.word	0x0800c6ba
 8009ab0:	20007808 	.word	0x20007808
 8009ab4:	200077fc 	.word	0x200077fc
 8009ab8:	0800d637 	.word	0x0800d637

08009abc <tcp_trigger_input_pcb_close>:
 8009abc:	4a02      	ldr	r2, [pc, #8]	; (8009ac8 <tcp_trigger_input_pcb_close+0xc>)
 8009abe:	7813      	ldrb	r3, [r2, #0]
 8009ac0:	f043 0310 	orr.w	r3, r3, #16
 8009ac4:	7013      	strb	r3, [r2, #0]
 8009ac6:	4770      	bx	lr
 8009ac8:	200040b0 	.word	0x200040b0

08009acc <tcp_create_segment>:
 8009acc:	e92d 47f0 	stmdb	sp!, {r4, r5, r6, r7, r8, r9, sl, lr}
 8009ad0:	f89d a020 	ldrb.w	sl, [sp, #32]
 8009ad4:	4680      	mov	r8, r0
 8009ad6:	2003      	movs	r0, #3
 8009ad8:	460f      	mov	r7, r1
 8009ada:	f01a 0f01 	tst.w	sl, #1
 8009ade:	4616      	mov	r6, r2
 8009ae0:	4699      	mov	r9, r3
 8009ae2:	bf14      	ite	ne
 8009ae4:	2504      	movne	r5, #4
 8009ae6:	2500      	moveq	r5, #0
 8009ae8:	f7fd faf6 	bl	80070d8 <memp_malloc>
 8009aec:	4604      	mov	r4, r0
 8009aee:	b928      	cbnz	r0, 8009afc <tcp_create_segment+0x30>
 8009af0:	4638      	mov	r0, r7
 8009af2:	f7fd fc93 	bl	800741c <pbuf_free>
 8009af6:	4620      	mov	r0, r4
 8009af8:	e8bd 87f0 	ldmia.w	sp!, {r4, r5, r6, r7, r8, r9, sl, pc}
 8009afc:	2300      	movs	r3, #0
 8009afe:	f880 a00a 	strb.w	sl, [r0, #10]
 8009b02:	fa1f fa85 	uxth.w	sl, r5
 8009b06:	e880 0088 	stmia.w	r0, {r3, r7}
 8009b0a:	893b      	ldrh	r3, [r7, #8]
 8009b0c:	4553      	cmp	r3, sl
 8009b0e:	d205      	bcs.n	8009b1c <tcp_create_segment+0x50>
 8009b10:	4b1e      	ldr	r3, [pc, #120]	; (8009b8c <tcp_create_segment+0xc0>)
 8009b12:	22ba      	movs	r2, #186	; 0xba
 8009b14:	491e      	ldr	r1, [pc, #120]	; (8009b90 <tcp_create_segment+0xc4>)
 8009b16:	481f      	ldr	r0, [pc, #124]	; (8009b94 <tcp_create_segment+0xc8>)
 8009b18:	f001 ff02 	bl	800b920 <iprintf>
 8009b1c:	893b      	ldrh	r3, [r7, #8]
 8009b1e:	4638      	mov	r0, r7
 8009b20:	2114      	movs	r1, #20
 8009b22:	eba3 030a 	sub.w	r3, r3, sl
 8009b26:	8123      	strh	r3, [r4, #8]
 8009b28:	f7fd fc72 	bl	8007410 <pbuf_header>
 8009b2c:	4607      	mov	r7, r0
 8009b2e:	b120      	cbz	r0, 8009b3a <tcp_create_segment+0x6e>
 8009b30:	4620      	mov	r0, r4
 8009b32:	2400      	movs	r4, #0
 8009b34:	f7fd fff2 	bl	8007b1c <tcp_seg_free>
 8009b38:	e7dd      	b.n	8009af6 <tcp_create_segment+0x2a>
 8009b3a:	6863      	ldr	r3, [r4, #4]
 8009b3c:	08ad      	lsrs	r5, r5, #2
 8009b3e:	f8b8 0016 	ldrh.w	r0, [r8, #22]
 8009b42:	f8d3 a004 	ldr.w	sl, [r3, #4]
 8009b46:	3505      	adds	r5, #5
 8009b48:	f8c4 a00c 	str.w	sl, [r4, #12]
 8009b4c:	ea46 3505 	orr.w	r5, r6, r5, lsl #12
 8009b50:	f7fb fe8c 	bl	800586c <lwip_htons>
 8009b54:	f8aa 0000 	strh.w	r0, [sl]
 8009b58:	f8d4 a00c 	ldr.w	sl, [r4, #12]
 8009b5c:	f8b8 0018 	ldrh.w	r0, [r8, #24]
 8009b60:	f7fb fe84 	bl	800586c <lwip_htons>
 8009b64:	f8d4 800c 	ldr.w	r8, [r4, #12]
 8009b68:	f8aa 0002 	strh.w	r0, [sl, #2]
 8009b6c:	4648      	mov	r0, r9
 8009b6e:	f7fb fe80 	bl	8005872 <lwip_htonl>
 8009b72:	f8c8 0004 	str.w	r0, [r8, #4]
 8009b76:	b2a8      	uxth	r0, r5
 8009b78:	f8d4 800c 	ldr.w	r8, [r4, #12]
 8009b7c:	f7fb fe76 	bl	800586c <lwip_htons>
 8009b80:	68e3      	ldr	r3, [r4, #12]
 8009b82:	f8a8 000c 	strh.w	r0, [r8, #12]
 8009b86:	749f      	strb	r7, [r3, #18]
 8009b88:	74df      	strb	r7, [r3, #19]
 8009b8a:	e7b4      	b.n	8009af6 <tcp_create_segment+0x2a>
 8009b8c:	0800d9bb 	.word	0x0800d9bb
 8009b90:	0800d843 	.word	0x0800d843
 8009b94:	0800c6ba 	.word	0x0800c6ba

08009b98 <tcp_output_alloc_header.constprop.0>:
 8009b98:	3114      	adds	r1, #20
 8009b9a:	b5f8      	push	{r3, r4, r5, r6, r7, lr}
 8009b9c:	b289      	uxth	r1, r1
 8009b9e:	4605      	mov	r5, r0
 8009ba0:	4617      	mov	r7, r2
 8009ba2:	2001      	movs	r0, #1
 8009ba4:	2200      	movs	r2, #0
 8009ba6:	f7fd fca3 	bl	80074f0 <pbuf_alloc>
 8009baa:	4606      	mov	r6, r0
 8009bac:	b340      	cbz	r0, 8009c00 <tcp_output_alloc_header.constprop.0+0x68>
 8009bae:	8943      	ldrh	r3, [r0, #10]
 8009bb0:	2b13      	cmp	r3, #19
 8009bb2:	dc05      	bgt.n	8009bc0 <tcp_output_alloc_header.constprop.0+0x28>
 8009bb4:	4b13      	ldr	r3, [pc, #76]	; (8009c04 <tcp_output_alloc_header.constprop.0+0x6c>)
 8009bb6:	2273      	movs	r2, #115	; 0x73
 8009bb8:	4913      	ldr	r1, [pc, #76]	; (8009c08 <tcp_output_alloc_header.constprop.0+0x70>)
 8009bba:	4814      	ldr	r0, [pc, #80]	; (8009c0c <tcp_output_alloc_header.constprop.0+0x74>)
 8009bbc:	f001 feb0 	bl	800b920 <iprintf>
 8009bc0:	6874      	ldr	r4, [r6, #4]
 8009bc2:	8ae8      	ldrh	r0, [r5, #22]
 8009bc4:	f7fb fe52 	bl	800586c <lwip_htons>
 8009bc8:	8020      	strh	r0, [r4, #0]
 8009bca:	8b28      	ldrh	r0, [r5, #24]
 8009bcc:	f7fb fe4e 	bl	800586c <lwip_htons>
 8009bd0:	6067      	str	r7, [r4, #4]
 8009bd2:	8060      	strh	r0, [r4, #2]
 8009bd4:	6a68      	ldr	r0, [r5, #36]	; 0x24
 8009bd6:	f7fb fe4c 	bl	8005872 <lwip_htonl>
 8009bda:	60a0      	str	r0, [r4, #8]
 8009bdc:	f245 0010 	movw	r0, #20496	; 0x5010
 8009be0:	f7fb fe44 	bl	800586c <lwip_htons>
 8009be4:	81a0      	strh	r0, [r4, #12]
 8009be6:	8d68      	ldrh	r0, [r5, #42]	; 0x2a
 8009be8:	f7fb fe40 	bl	800586c <lwip_htons>
 8009bec:	2300      	movs	r3, #0
 8009bee:	8d6a      	ldrh	r2, [r5, #42]	; 0x2a
 8009bf0:	7423      	strb	r3, [r4, #16]
 8009bf2:	7463      	strb	r3, [r4, #17]
 8009bf4:	74a3      	strb	r3, [r4, #18]
 8009bf6:	74e3      	strb	r3, [r4, #19]
 8009bf8:	6a6b      	ldr	r3, [r5, #36]	; 0x24
 8009bfa:	81e0      	strh	r0, [r4, #14]
 8009bfc:	4413      	add	r3, r2
 8009bfe:	62eb      	str	r3, [r5, #44]	; 0x2c
 8009c00:	4630      	mov	r0, r6
 8009c02:	bdf8      	pop	{r3, r4, r5, r6, r7, pc}
 8009c04:	0800d9bb 	.word	0x0800d9bb
 8009c08:	0800d98d 	.word	0x0800d98d
 8009c0c:	0800c6ba 	.word	0x0800c6ba

08009c10 <tcp_enqueue_flags>:
 8009c10:	e92d 43f7 	stmdb	sp!, {r0, r1, r2, r4, r5, r6, r7, r8, r9, lr}
 8009c14:	f011 0803 	ands.w	r8, r1, #3
 8009c18:	4604      	mov	r4, r0
 8009c1a:	460e      	mov	r6, r1
 8009c1c:	d106      	bne.n	8009c2c <tcp_enqueue_flags+0x1c>
 8009c1e:	4b40      	ldr	r3, [pc, #256]	; (8009d20 <tcp_enqueue_flags+0x110>)
 8009c20:	f240 321b 	movw	r2, #795	; 0x31b
 8009c24:	493f      	ldr	r1, [pc, #252]	; (8009d24 <tcp_enqueue_flags+0x114>)
 8009c26:	4840      	ldr	r0, [pc, #256]	; (8009d28 <tcp_enqueue_flags+0x118>)
 8009c28:	f001 fe7a 	bl	800b920 <iprintf>
 8009c2c:	f8b4 3062 	ldrh.w	r3, [r4, #98]	; 0x62
 8009c30:	2b08      	cmp	r3, #8
 8009c32:	d90a      	bls.n	8009c4a <tcp_enqueue_flags+0x3a>
 8009c34:	07f1      	lsls	r1, r6, #31
 8009c36:	d408      	bmi.n	8009c4a <tcp_enqueue_flags+0x3a>
 8009c38:	7ea3      	ldrb	r3, [r4, #26]
 8009c3a:	f04f 30ff 	mov.w	r0, #4294967295
 8009c3e:	f063 037f 	orn	r3, r3, #127	; 0x7f
 8009c42:	76a3      	strb	r3, [r4, #26]
 8009c44:	b003      	add	sp, #12
 8009c46:	e8bd 83f0 	ldmia.w	sp!, {r4, r5, r6, r7, r8, r9, pc}
 8009c4a:	f006 0302 	and.w	r3, r6, #2
 8009c4e:	2200      	movs	r2, #0
 8009c50:	2b00      	cmp	r3, #0
 8009c52:	4610      	mov	r0, r2
 8009c54:	bf15      	itete	ne
 8009c56:	2704      	movne	r7, #4
 8009c58:	2700      	moveq	r7, #0
 8009c5a:	f04f 0901 	movne.w	r9, #1
 8009c5e:	f04f 0900 	moveq.w	r9, #0
 8009c62:	4639      	mov	r1, r7
 8009c64:	f7fd fc44 	bl	80074f0 <pbuf_alloc>
 8009c68:	4605      	mov	r5, r0
 8009c6a:	2800      	cmp	r0, #0
 8009c6c:	d0e4      	beq.n	8009c38 <tcp_enqueue_flags+0x28>
 8009c6e:	8943      	ldrh	r3, [r0, #10]
 8009c70:	42bb      	cmp	r3, r7
 8009c72:	d206      	bcs.n	8009c82 <tcp_enqueue_flags+0x72>
 8009c74:	4b2a      	ldr	r3, [pc, #168]	; (8009d20 <tcp_enqueue_flags+0x110>)
 8009c76:	f240 3241 	movw	r2, #833	; 0x341
 8009c7a:	492c      	ldr	r1, [pc, #176]	; (8009d2c <tcp_enqueue_flags+0x11c>)
 8009c7c:	482a      	ldr	r0, [pc, #168]	; (8009d28 <tcp_enqueue_flags+0x118>)
 8009c7e:	f001 fe4f 	bl	800b920 <iprintf>
 8009c82:	f8cd 9000 	str.w	r9, [sp]
 8009c86:	4629      	mov	r1, r5
 8009c88:	6da3      	ldr	r3, [r4, #88]	; 0x58
 8009c8a:	4632      	mov	r2, r6
 8009c8c:	4620      	mov	r0, r4
 8009c8e:	f7ff ff1d 	bl	8009acc <tcp_create_segment>
 8009c92:	4605      	mov	r5, r0
 8009c94:	2800      	cmp	r0, #0
 8009c96:	d0cf      	beq.n	8009c38 <tcp_enqueue_flags+0x28>
 8009c98:	68c3      	ldr	r3, [r0, #12]
 8009c9a:	079a      	lsls	r2, r3, #30
 8009c9c:	d006      	beq.n	8009cac <tcp_enqueue_flags+0x9c>
 8009c9e:	4b20      	ldr	r3, [pc, #128]	; (8009d20 <tcp_enqueue_flags+0x110>)
 8009ca0:	f240 3249 	movw	r2, #841	; 0x349
 8009ca4:	4922      	ldr	r1, [pc, #136]	; (8009d30 <tcp_enqueue_flags+0x120>)
 8009ca6:	4820      	ldr	r0, [pc, #128]	; (8009d28 <tcp_enqueue_flags+0x118>)
 8009ca8:	f001 fe3a 	bl	800b920 <iprintf>
 8009cac:	892b      	ldrh	r3, [r5, #8]
 8009cae:	b133      	cbz	r3, 8009cbe <tcp_enqueue_flags+0xae>
 8009cb0:	4b1b      	ldr	r3, [pc, #108]	; (8009d20 <tcp_enqueue_flags+0x110>)
 8009cb2:	f240 324a 	movw	r2, #842	; 0x34a
 8009cb6:	491f      	ldr	r1, [pc, #124]	; (8009d34 <tcp_enqueue_flags+0x124>)
 8009cb8:	481b      	ldr	r0, [pc, #108]	; (8009d28 <tcp_enqueue_flags+0x118>)
 8009cba:	f001 fe31 	bl	800b920 <iprintf>
 8009cbe:	6ea3      	ldr	r3, [r4, #104]	; 0x68
 8009cc0:	bb4b      	cbnz	r3, 8009d16 <tcp_enqueue_flags+0x106>
 8009cc2:	66a5      	str	r5, [r4, #104]	; 0x68
 8009cc4:	2300      	movs	r3, #0
 8009cc6:	f8a4 3064 	strh.w	r3, [r4, #100]	; 0x64
 8009cca:	f1b8 0f00 	cmp.w	r8, #0
 8009cce:	d002      	beq.n	8009cd6 <tcp_enqueue_flags+0xc6>
 8009cd0:	6da3      	ldr	r3, [r4, #88]	; 0x58
 8009cd2:	3301      	adds	r3, #1
 8009cd4:	65a3      	str	r3, [r4, #88]	; 0x58
 8009cd6:	07f3      	lsls	r3, r6, #31
 8009cd8:	bf42      	ittt	mi
 8009cda:	7ea3      	ldrbmi	r3, [r4, #26]
 8009cdc:	f043 0320 	orrmi.w	r3, r3, #32
 8009ce0:	76a3      	strbmi	r3, [r4, #26]
 8009ce2:	6868      	ldr	r0, [r5, #4]
 8009ce4:	f7fd fd50 	bl	8007788 <pbuf_clen>
 8009ce8:	f8b4 3062 	ldrh.w	r3, [r4, #98]	; 0x62
 8009cec:	4418      	add	r0, r3
 8009cee:	b280      	uxth	r0, r0
 8009cf0:	f8a4 0062 	strh.w	r0, [r4, #98]	; 0x62
 8009cf4:	2800      	cmp	r0, #0
 8009cf6:	d0a5      	beq.n	8009c44 <tcp_enqueue_flags+0x34>
 8009cf8:	6ee0      	ldr	r0, [r4, #108]	; 0x6c
 8009cfa:	b948      	cbnz	r0, 8009d10 <tcp_enqueue_flags+0x100>
 8009cfc:	6ea4      	ldr	r4, [r4, #104]	; 0x68
 8009cfe:	2c00      	cmp	r4, #0
 8009d00:	d1a0      	bne.n	8009c44 <tcp_enqueue_flags+0x34>
 8009d02:	4b07      	ldr	r3, [pc, #28]	; (8009d20 <tcp_enqueue_flags+0x110>)
 8009d04:	f240 326d 	movw	r2, #877	; 0x36d
 8009d08:	490b      	ldr	r1, [pc, #44]	; (8009d38 <tcp_enqueue_flags+0x128>)
 8009d0a:	4807      	ldr	r0, [pc, #28]	; (8009d28 <tcp_enqueue_flags+0x118>)
 8009d0c:	f001 fe08 	bl	800b920 <iprintf>
 8009d10:	2000      	movs	r0, #0
 8009d12:	e797      	b.n	8009c44 <tcp_enqueue_flags+0x34>
 8009d14:	4613      	mov	r3, r2
 8009d16:	681a      	ldr	r2, [r3, #0]
 8009d18:	2a00      	cmp	r2, #0
 8009d1a:	d1fb      	bne.n	8009d14 <tcp_enqueue_flags+0x104>
 8009d1c:	601d      	str	r5, [r3, #0]
 8009d1e:	e7d1      	b.n	8009cc4 <tcp_enqueue_flags+0xb4>
 8009d20:	0800d9bb 	.word	0x0800d9bb
 8009d24:	0800d858 	.word	0x0800d858
 8009d28:	0800c6ba 	.word	0x0800c6ba
 8009d2c:	0800d8ad 	.word	0x0800d8ad
 8009d30:	0800d8e6 	.word	0x0800d8e6
 8009d34:	0800d8fe 	.word	0x0800d8fe
 8009d38:	0800d928 	.word	0x0800d928

08009d3c <tcp_send_fin>:
 8009d3c:	b5f8      	push	{r3, r4, r5, r6, r7, lr}
 8009d3e:	6e84      	ldr	r4, [r0, #104]	; 0x68
 8009d40:	4605      	mov	r5, r0
 8009d42:	b934      	cbnz	r4, 8009d52 <tcp_send_fin+0x16>
 8009d44:	4628      	mov	r0, r5
 8009d46:	2101      	movs	r1, #1
 8009d48:	e8bd 40f8 	ldmia.w	sp!, {r3, r4, r5, r6, r7, lr}
 8009d4c:	f7ff bf60 	b.w	8009c10 <tcp_enqueue_flags>
 8009d50:	461c      	mov	r4, r3
 8009d52:	6823      	ldr	r3, [r4, #0]
 8009d54:	2b00      	cmp	r3, #0
 8009d56:	d1fb      	bne.n	8009d50 <tcp_send_fin+0x14>
 8009d58:	68e3      	ldr	r3, [r4, #12]
 8009d5a:	8998      	ldrh	r0, [r3, #12]
 8009d5c:	f7fb fd86 	bl	800586c <lwip_htons>
 8009d60:	f010 0707 	ands.w	r7, r0, #7
 8009d64:	d1ee      	bne.n	8009d44 <tcp_send_fin+0x8>
 8009d66:	68e6      	ldr	r6, [r4, #12]
 8009d68:	2001      	movs	r0, #1
 8009d6a:	89b4      	ldrh	r4, [r6, #12]
 8009d6c:	f7fb fd7e 	bl	800586c <lwip_htons>
 8009d70:	4320      	orrs	r0, r4
 8009d72:	81b0      	strh	r0, [r6, #12]
 8009d74:	4638      	mov	r0, r7
 8009d76:	7eab      	ldrb	r3, [r5, #26]
 8009d78:	f043 0320 	orr.w	r3, r3, #32
 8009d7c:	76ab      	strb	r3, [r5, #26]
 8009d7e:	bdf8      	pop	{r3, r4, r5, r6, r7, pc}

08009d80 <tcp_send_empty_ack>:
 8009d80:	b57f      	push	{r0, r1, r2, r3, r4, r5, r6, lr}
 8009d82:	4604      	mov	r4, r0
 8009d84:	6cc0      	ldr	r0, [r0, #76]	; 0x4c
 8009d86:	f7fb fd74 	bl	8005872 <lwip_htonl>
 8009d8a:	2100      	movs	r1, #0
 8009d8c:	4602      	mov	r2, r0
 8009d8e:	4620      	mov	r0, r4
 8009d90:	f7ff ff02 	bl	8009b98 <tcp_output_alloc_header.constprop.0>
 8009d94:	4606      	mov	r6, r0
 8009d96:	b940      	cbnz	r0, 8009daa <tcp_send_empty_ack+0x2a>
 8009d98:	7ea3      	ldrb	r3, [r4, #26]
 8009d9a:	f06f 0501 	mvn.w	r5, #1
 8009d9e:	f043 0303 	orr.w	r3, r3, #3
 8009da2:	76a3      	strb	r3, [r4, #26]
 8009da4:	4628      	mov	r0, r5
 8009da6:	b004      	add	sp, #16
 8009da8:	bd70      	pop	{r4, r5, r6, pc}
 8009daa:	1d25      	adds	r5, r4, #4
 8009dac:	4628      	mov	r0, r5
 8009dae:	f7fc f9f3 	bl	8006198 <ip4_route>
 8009db2:	b1a0      	cbz	r0, 8009dde <tcp_send_empty_ack+0x5e>
 8009db4:	2206      	movs	r2, #6
 8009db6:	9002      	str	r0, [sp, #8]
 8009db8:	7aa3      	ldrb	r3, [r4, #10]
 8009dba:	4621      	mov	r1, r4
 8009dbc:	9201      	str	r2, [sp, #4]
 8009dbe:	4630      	mov	r0, r6
 8009dc0:	7a62      	ldrb	r2, [r4, #9]
 8009dc2:	9200      	str	r2, [sp, #0]
 8009dc4:	462a      	mov	r2, r5
 8009dc6:	f7fc fb4d 	bl	8006464 <ip4_output_if>
 8009dca:	4605      	mov	r5, r0
 8009dcc:	4630      	mov	r0, r6
 8009dce:	f7fd fb25 	bl	800741c <pbuf_free>
 8009dd2:	7ea3      	ldrb	r3, [r4, #26]
 8009dd4:	b135      	cbz	r5, 8009de4 <tcp_send_empty_ack+0x64>
 8009dd6:	f043 0303 	orr.w	r3, r3, #3
 8009dda:	76a3      	strb	r3, [r4, #26]
 8009ddc:	e7e2      	b.n	8009da4 <tcp_send_empty_ack+0x24>
 8009dde:	f06f 0503 	mvn.w	r5, #3
 8009de2:	e7f3      	b.n	8009dcc <tcp_send_empty_ack+0x4c>
 8009de4:	f023 0303 	bic.w	r3, r3, #3
 8009de8:	e7f7      	b.n	8009dda <tcp_send_empty_ack+0x5a>
	...

08009dec <tcp_output>:
 8009dec:	7d03      	ldrb	r3, [r0, #20]
 8009dee:	2b01      	cmp	r3, #1
 8009df0:	e92d 4ff0 	stmdb	sp!, {r4, r5, r6, r7, r8, r9, sl, fp, lr}
 8009df4:	4604      	mov	r4, r0
 8009df6:	b087      	sub	sp, #28
 8009df8:	d106      	bne.n	8009e08 <tcp_output+0x1c>
 8009dfa:	4ba5      	ldr	r3, [pc, #660]	; (800a090 <tcp_output+0x2a4>)
 8009dfc:	f240 32ed 	movw	r2, #1005	; 0x3ed
 8009e00:	49a4      	ldr	r1, [pc, #656]	; (800a094 <tcp_output+0x2a8>)
 8009e02:	48a5      	ldr	r0, [pc, #660]	; (800a098 <tcp_output+0x2ac>)
 8009e04:	f001 fd8c 	bl	800b920 <iprintf>
 8009e08:	4ba4      	ldr	r3, [pc, #656]	; (800a09c <tcp_output+0x2b0>)
 8009e0a:	681b      	ldr	r3, [r3, #0]
 8009e0c:	429c      	cmp	r4, r3
 8009e0e:	d052      	beq.n	8009eb6 <tcp_output+0xca>
 8009e10:	f8b4 3048 	ldrh.w	r3, [r4, #72]	; 0x48
 8009e14:	f8b4 705c 	ldrh.w	r7, [r4, #92]	; 0x5c
 8009e18:	6ea5      	ldr	r5, [r4, #104]	; 0x68
 8009e1a:	429f      	cmp	r7, r3
 8009e1c:	bf28      	it	cs
 8009e1e:	461f      	movcs	r7, r3
 8009e20:	7ea3      	ldrb	r3, [r4, #26]
 8009e22:	0799      	lsls	r1, r3, #30
 8009e24:	d510      	bpl.n	8009e48 <tcp_output+0x5c>
 8009e26:	b92d      	cbnz	r5, 8009e34 <tcp_output+0x48>
 8009e28:	4620      	mov	r0, r4
 8009e2a:	b007      	add	sp, #28
 8009e2c:	e8bd 4ff0 	ldmia.w	sp!, {r4, r5, r6, r7, r8, r9, sl, fp, lr}
 8009e30:	f7ff bfa6 	b.w	8009d80 <tcp_send_empty_ack>
 8009e34:	68eb      	ldr	r3, [r5, #12]
 8009e36:	6858      	ldr	r0, [r3, #4]
 8009e38:	f7fb fd1b 	bl	8005872 <lwip_htonl>
 8009e3c:	892b      	ldrh	r3, [r5, #8]
 8009e3e:	6c62      	ldr	r2, [r4, #68]	; 0x44
 8009e40:	1a9b      	subs	r3, r3, r2
 8009e42:	4418      	add	r0, r3
 8009e44:	4287      	cmp	r7, r0
 8009e46:	d3ef      	bcc.n	8009e28 <tcp_output+0x3c>
 8009e48:	6ee6      	ldr	r6, [r4, #108]	; 0x6c
 8009e4a:	2e00      	cmp	r6, #0
 8009e4c:	d136      	bne.n	8009ebc <tcp_output+0xd0>
 8009e4e:	f104 0804 	add.w	r8, r4, #4
 8009e52:	4640      	mov	r0, r8
 8009e54:	f7fc f9a0 	bl	8006198 <ip4_route>
 8009e58:	4681      	mov	r9, r0
 8009e5a:	2800      	cmp	r0, #0
 8009e5c:	f000 813c 	beq.w	800a0d8 <tcp_output+0x2ec>
 8009e60:	b10c      	cbz	r4, 8009e66 <tcp_output+0x7a>
 8009e62:	6823      	ldr	r3, [r4, #0]
 8009e64:	b913      	cbnz	r3, 8009e6c <tcp_output+0x80>
 8009e66:	f8d9 3004 	ldr.w	r3, [r9, #4]
 8009e6a:	6023      	str	r3, [r4, #0]
 8009e6c:	b1d5      	cbz	r5, 8009ea4 <tcp_output+0xb8>
 8009e6e:	68eb      	ldr	r3, [r5, #12]
 8009e70:	6858      	ldr	r0, [r3, #4]
 8009e72:	f7fb fcfe 	bl	8005872 <lwip_htonl>
 8009e76:	892b      	ldrh	r3, [r5, #8]
 8009e78:	6c62      	ldr	r2, [r4, #68]	; 0x44
 8009e7a:	1a9b      	subs	r3, r3, r2
 8009e7c:	4418      	add	r0, r3
 8009e7e:	4287      	cmp	r7, r0
 8009e80:	d26f      	bcs.n	8009f62 <tcp_output+0x176>
 8009e82:	2f00      	cmp	r7, #0
 8009e84:	d06d      	beq.n	8009f62 <tcp_output+0x176>
 8009e86:	f8b4 305c 	ldrh.w	r3, [r4, #92]	; 0x5c
 8009e8a:	429f      	cmp	r7, r3
 8009e8c:	d169      	bne.n	8009f62 <tcp_output+0x176>
 8009e8e:	6ee3      	ldr	r3, [r4, #108]	; 0x6c
 8009e90:	2b00      	cmp	r3, #0
 8009e92:	d166      	bne.n	8009f62 <tcp_output+0x176>
 8009e94:	f894 3095 	ldrb.w	r3, [r4, #149]	; 0x95
 8009e98:	b923      	cbnz	r3, 8009ea4 <tcp_output+0xb8>
 8009e9a:	f884 3094 	strb.w	r3, [r4, #148]	; 0x94
 8009e9e:	2301      	movs	r3, #1
 8009ea0:	f884 3095 	strb.w	r3, [r4, #149]	; 0x95
 8009ea4:	6ea3      	ldr	r3, [r4, #104]	; 0x68
 8009ea6:	b913      	cbnz	r3, 8009eae <tcp_output+0xc2>
 8009ea8:	2300      	movs	r3, #0
 8009eaa:	f8a4 3064 	strh.w	r3, [r4, #100]	; 0x64
 8009eae:	7ea3      	ldrb	r3, [r4, #26]
 8009eb0:	f003 037f 	and.w	r3, r3, #127	; 0x7f
 8009eb4:	76a3      	strb	r3, [r4, #26]
 8009eb6:	2000      	movs	r0, #0
 8009eb8:	e0e6      	b.n	800a088 <tcp_output+0x29c>
 8009eba:	461e      	mov	r6, r3
 8009ebc:	6833      	ldr	r3, [r6, #0]
 8009ebe:	2b00      	cmp	r3, #0
 8009ec0:	d1fb      	bne.n	8009eba <tcp_output+0xce>
 8009ec2:	e7c4      	b.n	8009e4e <tcp_output+0x62>
 8009ec4:	682b      	ldr	r3, [r5, #0]
 8009ec6:	66a3      	str	r3, [r4, #104]	; 0x68
 8009ec8:	7d23      	ldrb	r3, [r4, #20]
 8009eca:	2b02      	cmp	r3, #2
 8009ecc:	bf1e      	ittt	ne
 8009ece:	7ea3      	ldrbne	r3, [r4, #26]
 8009ed0:	f023 0303 	bicne.w	r3, r3, #3
 8009ed4:	76a3      	strbne	r3, [r4, #26]
 8009ed6:	68eb      	ldr	r3, [r5, #12]
 8009ed8:	6858      	ldr	r0, [r3, #4]
 8009eda:	f7fb fcca 	bl	8005872 <lwip_htonl>
 8009ede:	68e9      	ldr	r1, [r5, #12]
 8009ee0:	4683      	mov	fp, r0
 8009ee2:	f8b5 a008 	ldrh.w	sl, [r5, #8]
 8009ee6:	8988      	ldrh	r0, [r1, #12]
 8009ee8:	f7fb fcc0 	bl	800586c <lwip_htons>
 8009eec:	f010 0003 	ands.w	r0, r0, #3
 8009ef0:	eb0b 030a 	add.w	r3, fp, sl
 8009ef4:	68ea      	ldr	r2, [r5, #12]
 8009ef6:	bf18      	it	ne
 8009ef8:	2001      	movne	r0, #1
 8009efa:	f8b5 a008 	ldrh.w	sl, [r5, #8]
 8009efe:	4418      	add	r0, r3
 8009f00:	6ce3      	ldr	r3, [r4, #76]	; 0x4c
 8009f02:	1a1b      	subs	r3, r3, r0
 8009f04:	2b00      	cmp	r3, #0
 8009f06:	bfb8      	it	lt
 8009f08:	64e0      	strlt	r0, [r4, #76]	; 0x4c
 8009f0a:	8990      	ldrh	r0, [r2, #12]
 8009f0c:	f7fb fcae 	bl	800586c <lwip_htons>
 8009f10:	f010 0003 	ands.w	r0, r0, #3
 8009f14:	bf18      	it	ne
 8009f16:	2001      	movne	r0, #1
 8009f18:	eb10 0f0a 	cmn.w	r0, sl
 8009f1c:	f000 80d8 	beq.w	800a0d0 <tcp_output+0x2e4>
 8009f20:	2300      	movs	r3, #0
 8009f22:	602b      	str	r3, [r5, #0]
 8009f24:	6ee3      	ldr	r3, [r4, #108]	; 0x6c
 8009f26:	b913      	cbnz	r3, 8009f2e <tcp_output+0x142>
 8009f28:	66e5      	str	r5, [r4, #108]	; 0x6c
 8009f2a:	462e      	mov	r6, r5
 8009f2c:	e016      	b.n	8009f5c <tcp_output+0x170>
 8009f2e:	68eb      	ldr	r3, [r5, #12]
 8009f30:	6858      	ldr	r0, [r3, #4]
 8009f32:	f7fb fc9e 	bl	8005872 <lwip_htonl>
 8009f36:	68f2      	ldr	r2, [r6, #12]
 8009f38:	4682      	mov	sl, r0
 8009f3a:	6850      	ldr	r0, [r2, #4]
 8009f3c:	f7fb fc99 	bl	8005872 <lwip_htonl>
 8009f40:	ebaa 0000 	sub.w	r0, sl, r0
 8009f44:	2800      	cmp	r0, #0
 8009f46:	f280 80c1 	bge.w	800a0cc <tcp_output+0x2e0>
 8009f4a:	f104 036c 	add.w	r3, r4, #108	; 0x6c
 8009f4e:	681a      	ldr	r2, [r3, #0]
 8009f50:	2a00      	cmp	r2, #0
 8009f52:	f040 80a9 	bne.w	800a0a8 <tcp_output+0x2bc>
 8009f56:	681a      	ldr	r2, [r3, #0]
 8009f58:	602a      	str	r2, [r5, #0]
 8009f5a:	601d      	str	r5, [r3, #0]
 8009f5c:	6ea5      	ldr	r5, [r4, #104]	; 0x68
 8009f5e:	2d00      	cmp	r5, #0
 8009f60:	d0a2      	beq.n	8009ea8 <tcp_output+0xbc>
 8009f62:	68eb      	ldr	r3, [r5, #12]
 8009f64:	6858      	ldr	r0, [r3, #4]
 8009f66:	f7fb fc84 	bl	8005872 <lwip_htonl>
 8009f6a:	6c63      	ldr	r3, [r4, #68]	; 0x44
 8009f6c:	1ac0      	subs	r0, r0, r3
 8009f6e:	892b      	ldrh	r3, [r5, #8]
 8009f70:	4418      	add	r0, r3
 8009f72:	4287      	cmp	r7, r0
 8009f74:	d396      	bcc.n	8009ea4 <tcp_output+0xb8>
 8009f76:	68eb      	ldr	r3, [r5, #12]
 8009f78:	8998      	ldrh	r0, [r3, #12]
 8009f7a:	f7fb fc77 	bl	800586c <lwip_htons>
 8009f7e:	0742      	lsls	r2, r0, #29
 8009f80:	d506      	bpl.n	8009f90 <tcp_output+0x1a4>
 8009f82:	4b43      	ldr	r3, [pc, #268]	; (800a090 <tcp_output+0x2a4>)
 8009f84:	f240 4246 	movw	r2, #1094	; 0x446
 8009f88:	4945      	ldr	r1, [pc, #276]	; (800a0a0 <tcp_output+0x2b4>)
 8009f8a:	4843      	ldr	r0, [pc, #268]	; (800a098 <tcp_output+0x2ac>)
 8009f8c:	f001 fcc8 	bl	800b920 <iprintf>
 8009f90:	6ee3      	ldr	r3, [r4, #108]	; 0x6c
 8009f92:	b19b      	cbz	r3, 8009fbc <tcp_output+0x1d0>
 8009f94:	7ea2      	ldrb	r2, [r4, #26]
 8009f96:	f012 0f44 	tst.w	r2, #68	; 0x44
 8009f9a:	d10f      	bne.n	8009fbc <tcp_output+0x1d0>
 8009f9c:	6ea3      	ldr	r3, [r4, #104]	; 0x68
 8009f9e:	b12b      	cbz	r3, 8009fac <tcp_output+0x1c0>
 8009fa0:	6819      	ldr	r1, [r3, #0]
 8009fa2:	b959      	cbnz	r1, 8009fbc <tcp_output+0x1d0>
 8009fa4:	8919      	ldrh	r1, [r3, #8]
 8009fa6:	8e63      	ldrh	r3, [r4, #50]	; 0x32
 8009fa8:	4299      	cmp	r1, r3
 8009faa:	d207      	bcs.n	8009fbc <tcp_output+0x1d0>
 8009fac:	f8b4 3060 	ldrh.w	r3, [r4, #96]	; 0x60
 8009fb0:	b123      	cbz	r3, 8009fbc <tcp_output+0x1d0>
 8009fb2:	f8b4 3062 	ldrh.w	r3, [r4, #98]	; 0x62
 8009fb6:	2b08      	cmp	r3, #8
 8009fb8:	f240 8091 	bls.w	800a0de <tcp_output+0x2f2>
 8009fbc:	7d23      	ldrb	r3, [r4, #20]
 8009fbe:	2b02      	cmp	r3, #2
 8009fc0:	d00a      	beq.n	8009fd8 <tcp_output+0x1ec>
 8009fc2:	f8d5 a00c 	ldr.w	sl, [r5, #12]
 8009fc6:	2010      	movs	r0, #16
 8009fc8:	f8ba b00c 	ldrh.w	fp, [sl, #12]
 8009fcc:	f7fb fc4e 	bl	800586c <lwip_htons>
 8009fd0:	ea4b 0000 	orr.w	r0, fp, r0
 8009fd4:	f8aa 000c 	strh.w	r0, [sl, #12]
 8009fd8:	686b      	ldr	r3, [r5, #4]
 8009fda:	89db      	ldrh	r3, [r3, #14]
 8009fdc:	2b01      	cmp	r3, #1
 8009fde:	f47f af71 	bne.w	8009ec4 <tcp_output+0xd8>
 8009fe2:	f8d5 a00c 	ldr.w	sl, [r5, #12]
 8009fe6:	6a60      	ldr	r0, [r4, #36]	; 0x24
 8009fe8:	f7fb fc43 	bl	8005872 <lwip_htonl>
 8009fec:	f8ca 0008 	str.w	r0, [sl, #8]
 8009ff0:	8d60      	ldrh	r0, [r4, #42]	; 0x2a
 8009ff2:	f8d5 a00c 	ldr.w	sl, [r5, #12]
 8009ff6:	f7fb fc39 	bl	800586c <lwip_htons>
 8009ffa:	8d62      	ldrh	r2, [r4, #42]	; 0x2a
 8009ffc:	6a63      	ldr	r3, [r4, #36]	; 0x24
 8009ffe:	f8aa 000e 	strh.w	r0, [sl, #14]
 800a002:	4413      	add	r3, r2
 800a004:	62e3      	str	r3, [r4, #44]	; 0x2c
 800a006:	7aab      	ldrb	r3, [r5, #10]
 800a008:	07db      	lsls	r3, r3, #31
 800a00a:	d50c      	bpl.n	800a026 <tcp_output+0x23a>
 800a00c:	f8d5 a00c 	ldr.w	sl, [r5, #12]
 800a010:	4641      	mov	r1, r8
 800a012:	f44f 7006 	mov.w	r0, #536	; 0x218
 800a016:	f7fe fa93 	bl	8008540 <tcp_eff_send_mss_impl>
 800a01a:	f040 7001 	orr.w	r0, r0, #33816576	; 0x2040000
 800a01e:	f7fb fc28 	bl	8005872 <lwip_htonl>
 800a022:	f8ca 0014 	str.w	r0, [sl, #20]
 800a026:	f9b4 3030 	ldrsh.w	r3, [r4, #48]	; 0x30
 800a02a:	2b00      	cmp	r3, #0
 800a02c:	bfbc      	itt	lt
 800a02e:	2300      	movlt	r3, #0
 800a030:	8623      	strhlt	r3, [r4, #48]	; 0x30
 800a032:	6b63      	ldr	r3, [r4, #52]	; 0x34
 800a034:	b93b      	cbnz	r3, 800a046 <tcp_output+0x25a>
 800a036:	4b1b      	ldr	r3, [pc, #108]	; (800a0a4 <tcp_output+0x2b8>)
 800a038:	681b      	ldr	r3, [r3, #0]
 800a03a:	6363      	str	r3, [r4, #52]	; 0x34
 800a03c:	68eb      	ldr	r3, [r5, #12]
 800a03e:	6858      	ldr	r0, [r3, #4]
 800a040:	f7fb fc17 	bl	8005872 <lwip_htonl>
 800a044:	63a0      	str	r0, [r4, #56]	; 0x38
 800a046:	6868      	ldr	r0, [r5, #4]
 800a048:	68ea      	ldr	r2, [r5, #12]
 800a04a:	6843      	ldr	r3, [r0, #4]
 800a04c:	8941      	ldrh	r1, [r0, #10]
 800a04e:	1ad3      	subs	r3, r2, r3
 800a050:	6042      	str	r2, [r0, #4]
 800a052:	b29b      	uxth	r3, r3
 800a054:	1ac9      	subs	r1, r1, r3
 800a056:	8141      	strh	r1, [r0, #10]
 800a058:	8901      	ldrh	r1, [r0, #8]
 800a05a:	1acb      	subs	r3, r1, r3
 800a05c:	4621      	mov	r1, r4
 800a05e:	8103      	strh	r3, [r0, #8]
 800a060:	2300      	movs	r3, #0
 800a062:	7413      	strb	r3, [r2, #16]
 800a064:	7453      	strb	r3, [r2, #17]
 800a066:	2206      	movs	r2, #6
 800a068:	7aa3      	ldrb	r3, [r4, #10]
 800a06a:	9201      	str	r2, [sp, #4]
 800a06c:	7a62      	ldrb	r2, [r4, #9]
 800a06e:	f8cd 9008 	str.w	r9, [sp, #8]
 800a072:	9200      	str	r2, [sp, #0]
 800a074:	4642      	mov	r2, r8
 800a076:	f7fc f9f5 	bl	8006464 <ip4_output_if>
 800a07a:	2800      	cmp	r0, #0
 800a07c:	f43f af22 	beq.w	8009ec4 <tcp_output+0xd8>
 800a080:	7ea3      	ldrb	r3, [r4, #26]
 800a082:	f063 037f 	orn	r3, r3, #127	; 0x7f
 800a086:	76a3      	strb	r3, [r4, #26]
 800a088:	b007      	add	sp, #28
 800a08a:	e8bd 8ff0 	ldmia.w	sp!, {r4, r5, r6, r7, r8, r9, sl, fp, pc}
 800a08e:	bf00      	nop
 800a090:	0800d9bb 	.word	0x0800d9bb
 800a094:	0800d950 	.word	0x0800d950
 800a098:	0800c6ba 	.word	0x0800c6ba
 800a09c:	20007808 	.word	0x20007808
 800a0a0:	0800d976 	.word	0x0800d976
 800a0a4:	200077f8 	.word	0x200077f8
 800a0a8:	68d2      	ldr	r2, [r2, #12]
 800a0aa:	9305      	str	r3, [sp, #20]
 800a0ac:	6850      	ldr	r0, [r2, #4]
 800a0ae:	f7fb fbe0 	bl	8005872 <lwip_htonl>
 800a0b2:	68e9      	ldr	r1, [r5, #12]
 800a0b4:	4682      	mov	sl, r0
 800a0b6:	6848      	ldr	r0, [r1, #4]
 800a0b8:	f7fb fbdb 	bl	8005872 <lwip_htonl>
 800a0bc:	ebaa 0000 	sub.w	r0, sl, r0
 800a0c0:	9b05      	ldr	r3, [sp, #20]
 800a0c2:	2800      	cmp	r0, #0
 800a0c4:	f6bf af47 	bge.w	8009f56 <tcp_output+0x16a>
 800a0c8:	681b      	ldr	r3, [r3, #0]
 800a0ca:	e740      	b.n	8009f4e <tcp_output+0x162>
 800a0cc:	6035      	str	r5, [r6, #0]
 800a0ce:	e72c      	b.n	8009f2a <tcp_output+0x13e>
 800a0d0:	4628      	mov	r0, r5
 800a0d2:	f7fd fd23 	bl	8007b1c <tcp_seg_free>
 800a0d6:	e741      	b.n	8009f5c <tcp_output+0x170>
 800a0d8:	f06f 0003 	mvn.w	r0, #3
 800a0dc:	e7d4      	b.n	800a088 <tcp_output+0x29c>
 800a0de:	f012 0fa0 	tst.w	r2, #160	; 0xa0
 800a0e2:	f47f af6b 	bne.w	8009fbc <tcp_output+0x1d0>
 800a0e6:	e6dd      	b.n	8009ea4 <tcp_output+0xb8>

0800a0e8 <tcp_rst>:
 800a0e8:	e92d 4ff0 	stmdb	sp!, {r4, r5, r6, r7, r8, r9, sl, fp, lr}
 800a0ec:	b085      	sub	sp, #20
 800a0ee:	4681      	mov	r9, r0
 800a0f0:	460e      	mov	r6, r1
 800a0f2:	4690      	mov	r8, r2
 800a0f4:	2114      	movs	r1, #20
 800a0f6:	2200      	movs	r2, #0
 800a0f8:	2001      	movs	r0, #1
 800a0fa:	461f      	mov	r7, r3
 800a0fc:	f8bd b038 	ldrh.w	fp, [sp, #56]	; 0x38
 800a100:	f8bd a03c 	ldrh.w	sl, [sp, #60]	; 0x3c
 800a104:	f7fd f9f4 	bl	80074f0 <pbuf_alloc>
 800a108:	4605      	mov	r5, r0
 800a10a:	2800      	cmp	r0, #0
 800a10c:	d03c      	beq.n	800a188 <tcp_rst+0xa0>
 800a10e:	8943      	ldrh	r3, [r0, #10]
 800a110:	2b13      	cmp	r3, #19
 800a112:	d806      	bhi.n	800a122 <tcp_rst+0x3a>
 800a114:	4b1e      	ldr	r3, [pc, #120]	; (800a190 <tcp_rst+0xa8>)
 800a116:	f240 524d 	movw	r2, #1357	; 0x54d
 800a11a:	491e      	ldr	r1, [pc, #120]	; (800a194 <tcp_rst+0xac>)
 800a11c:	481e      	ldr	r0, [pc, #120]	; (800a198 <tcp_rst+0xb0>)
 800a11e:	f001 fbff 	bl	800b920 <iprintf>
 800a122:	686c      	ldr	r4, [r5, #4]
 800a124:	4658      	mov	r0, fp
 800a126:	f7fb fba1 	bl	800586c <lwip_htons>
 800a12a:	8020      	strh	r0, [r4, #0]
 800a12c:	4650      	mov	r0, sl
 800a12e:	f7fb fb9d 	bl	800586c <lwip_htons>
 800a132:	8060      	strh	r0, [r4, #2]
 800a134:	4648      	mov	r0, r9
 800a136:	f7fb fb9c 	bl	8005872 <lwip_htonl>
 800a13a:	6060      	str	r0, [r4, #4]
 800a13c:	4630      	mov	r0, r6
 800a13e:	2600      	movs	r6, #0
 800a140:	f7fb fb97 	bl	8005872 <lwip_htonl>
 800a144:	60a0      	str	r0, [r4, #8]
 800a146:	f245 0014 	movw	r0, #20500	; 0x5014
 800a14a:	f7fb fb8f 	bl	800586c <lwip_htons>
 800a14e:	2308      	movs	r3, #8
 800a150:	81a0      	strh	r0, [r4, #12]
 800a152:	4638      	mov	r0, r7
 800a154:	73a3      	strb	r3, [r4, #14]
 800a156:	2360      	movs	r3, #96	; 0x60
 800a158:	7426      	strb	r6, [r4, #16]
 800a15a:	73e3      	strb	r3, [r4, #15]
 800a15c:	7466      	strb	r6, [r4, #17]
 800a15e:	74a6      	strb	r6, [r4, #18]
 800a160:	74e6      	strb	r6, [r4, #19]
 800a162:	f7fc f819 	bl	8006198 <ip4_route>
 800a166:	b148      	cbz	r0, 800a17c <tcp_rst+0x94>
 800a168:	2306      	movs	r3, #6
 800a16a:	9002      	str	r0, [sp, #8]
 800a16c:	9600      	str	r6, [sp, #0]
 800a16e:	463a      	mov	r2, r7
 800a170:	9301      	str	r3, [sp, #4]
 800a172:	4641      	mov	r1, r8
 800a174:	23ff      	movs	r3, #255	; 0xff
 800a176:	4628      	mov	r0, r5
 800a178:	f7fc f974 	bl	8006464 <ip4_output_if>
 800a17c:	4628      	mov	r0, r5
 800a17e:	b005      	add	sp, #20
 800a180:	e8bd 4ff0 	ldmia.w	sp!, {r4, r5, r6, r7, r8, r9, sl, fp, lr}
 800a184:	f7fd b94a 	b.w	800741c <pbuf_free>
 800a188:	b005      	add	sp, #20
 800a18a:	e8bd 8ff0 	ldmia.w	sp!, {r4, r5, r6, r7, r8, r9, sl, fp, pc}
 800a18e:	bf00      	nop
 800a190:	0800d9bb 	.word	0x0800d9bb
 800a194:	0800d98d 	.word	0x0800d98d
 800a198:	0800c6ba 	.word	0x0800c6ba

0800a19c <tcp_rexmit_rto>:
 800a19c:	6ec2      	ldr	r2, [r0, #108]	; 0x6c
 800a19e:	b410      	push	{r4}
 800a1a0:	b1aa      	cbz	r2, 800a1ce <tcp_rexmit_rto+0x32>
 800a1a2:	4611      	mov	r1, r2
 800a1a4:	680b      	ldr	r3, [r1, #0]
 800a1a6:	b983      	cbnz	r3, 800a1ca <tcp_rexmit_rto+0x2e>
 800a1a8:	6e84      	ldr	r4, [r0, #104]	; 0x68
 800a1aa:	600c      	str	r4, [r1, #0]
 800a1ac:	66c3      	str	r3, [r0, #108]	; 0x6c
 800a1ae:	f890 3042 	ldrb.w	r3, [r0, #66]	; 0x42
 800a1b2:	6682      	str	r2, [r0, #104]	; 0x68
 800a1b4:	2bff      	cmp	r3, #255	; 0xff
 800a1b6:	bf1c      	itt	ne
 800a1b8:	3301      	addne	r3, #1
 800a1ba:	f880 3042 	strbne.w	r3, [r0, #66]	; 0x42
 800a1be:	2300      	movs	r3, #0
 800a1c0:	f85d 4b04 	ldr.w	r4, [sp], #4
 800a1c4:	6343      	str	r3, [r0, #52]	; 0x34
 800a1c6:	f7ff be11 	b.w	8009dec <tcp_output>
 800a1ca:	4619      	mov	r1, r3
 800a1cc:	e7ea      	b.n	800a1a4 <tcp_rexmit_rto+0x8>
 800a1ce:	f85d 4b04 	ldr.w	r4, [sp], #4
 800a1d2:	4770      	bx	lr

0800a1d4 <tcp_rexmit>:
 800a1d4:	b5f8      	push	{r3, r4, r5, r6, r7, lr}
 800a1d6:	6ec5      	ldr	r5, [r0, #108]	; 0x6c
 800a1d8:	4604      	mov	r4, r0
 800a1da:	b1ad      	cbz	r5, 800a208 <tcp_rexmit+0x34>
 800a1dc:	682b      	ldr	r3, [r5, #0]
 800a1de:	f100 0668 	add.w	r6, r0, #104	; 0x68
 800a1e2:	66c3      	str	r3, [r0, #108]	; 0x6c
 800a1e4:	6833      	ldr	r3, [r6, #0]
 800a1e6:	b983      	cbnz	r3, 800a20a <tcp_rexmit+0x36>
 800a1e8:	6833      	ldr	r3, [r6, #0]
 800a1ea:	602b      	str	r3, [r5, #0]
 800a1ec:	6035      	str	r5, [r6, #0]
 800a1ee:	682b      	ldr	r3, [r5, #0]
 800a1f0:	b90b      	cbnz	r3, 800a1f6 <tcp_rexmit+0x22>
 800a1f2:	f8a4 3064 	strh.w	r3, [r4, #100]	; 0x64
 800a1f6:	f894 3042 	ldrb.w	r3, [r4, #66]	; 0x42
 800a1fa:	2bff      	cmp	r3, #255	; 0xff
 800a1fc:	bf1c      	itt	ne
 800a1fe:	3301      	addne	r3, #1
 800a200:	f884 3042 	strbne.w	r3, [r4, #66]	; 0x42
 800a204:	2300      	movs	r3, #0
 800a206:	6363      	str	r3, [r4, #52]	; 0x34
 800a208:	bdf8      	pop	{r3, r4, r5, r6, r7, pc}
 800a20a:	68db      	ldr	r3, [r3, #12]
 800a20c:	6858      	ldr	r0, [r3, #4]
 800a20e:	f7fb fb30 	bl	8005872 <lwip_htonl>
 800a212:	68eb      	ldr	r3, [r5, #12]
 800a214:	4607      	mov	r7, r0
 800a216:	6858      	ldr	r0, [r3, #4]
 800a218:	f7fb fb2b 	bl	8005872 <lwip_htonl>
 800a21c:	1a38      	subs	r0, r7, r0
 800a21e:	2800      	cmp	r0, #0
 800a220:	dae2      	bge.n	800a1e8 <tcp_rexmit+0x14>
 800a222:	6836      	ldr	r6, [r6, #0]
 800a224:	e7de      	b.n	800a1e4 <tcp_rexmit+0x10>

0800a226 <tcp_rexmit_fast>:
 800a226:	6ec3      	ldr	r3, [r0, #108]	; 0x6c
 800a228:	b510      	push	{r4, lr}
 800a22a:	4604      	mov	r4, r0
 800a22c:	b30b      	cbz	r3, 800a272 <tcp_rexmit_fast+0x4c>
 800a22e:	7e83      	ldrb	r3, [r0, #26]
 800a230:	075b      	lsls	r3, r3, #29
 800a232:	d41e      	bmi.n	800a272 <tcp_rexmit_fast+0x4c>
 800a234:	f7ff ffce 	bl	800a1d4 <tcp_rexmit>
 800a238:	f8b4 205c 	ldrh.w	r2, [r4, #92]	; 0x5c
 800a23c:	f8b4 3048 	ldrh.w	r3, [r4, #72]	; 0x48
 800a240:	4293      	cmp	r3, r2
 800a242:	bf38      	it	cc
 800a244:	085a      	lsrcc	r2, r3, #1
 800a246:	8e63      	ldrh	r3, [r4, #50]	; 0x32
 800a248:	bf28      	it	cs
 800a24a:	0852      	lsrcs	r2, r2, #1
 800a24c:	0059      	lsls	r1, r3, #1
 800a24e:	f8a4 204a 	strh.w	r2, [r4, #74]	; 0x4a
 800a252:	428a      	cmp	r2, r1
 800a254:	440b      	add	r3, r1
 800a256:	bf38      	it	cc
 800a258:	f8a4 104a 	strhcc.w	r1, [r4, #74]	; 0x4a
 800a25c:	f8b4 204a 	ldrh.w	r2, [r4, #74]	; 0x4a
 800a260:	4413      	add	r3, r2
 800a262:	f8a4 3048 	strh.w	r3, [r4, #72]	; 0x48
 800a266:	7ea3      	ldrb	r3, [r4, #26]
 800a268:	f043 0304 	orr.w	r3, r3, #4
 800a26c:	76a3      	strb	r3, [r4, #26]
 800a26e:	2300      	movs	r3, #0
 800a270:	8623      	strh	r3, [r4, #48]	; 0x30
 800a272:	bd10      	pop	{r4, pc}

0800a274 <tcp_keepalive>:
 800a274:	b57f      	push	{r0, r1, r2, r3, r4, r5, r6, lr}
 800a276:	4604      	mov	r4, r0
 800a278:	6cc0      	ldr	r0, [r0, #76]	; 0x4c
 800a27a:	3801      	subs	r0, #1
 800a27c:	f7fb faf9 	bl	8005872 <lwip_htonl>
 800a280:	2100      	movs	r1, #0
 800a282:	4602      	mov	r2, r0
 800a284:	4620      	mov	r0, r4
 800a286:	f7ff fc87 	bl	8009b98 <tcp_output_alloc_header.constprop.0>
 800a28a:	4605      	mov	r5, r0
 800a28c:	b1c8      	cbz	r0, 800a2c2 <tcp_keepalive+0x4e>
 800a28e:	1d26      	adds	r6, r4, #4
 800a290:	4630      	mov	r0, r6
 800a292:	f7fb ff81 	bl	8006198 <ip4_route>
 800a296:	b188      	cbz	r0, 800a2bc <tcp_keepalive+0x48>
 800a298:	2100      	movs	r1, #0
 800a29a:	2206      	movs	r2, #6
 800a29c:	7aa3      	ldrb	r3, [r4, #10]
 800a29e:	9002      	str	r0, [sp, #8]
 800a2a0:	4628      	mov	r0, r5
 800a2a2:	e88d 0006 	stmia.w	sp, {r1, r2}
 800a2a6:	4621      	mov	r1, r4
 800a2a8:	4632      	mov	r2, r6
 800a2aa:	f7fc f8db 	bl	8006464 <ip4_output_if>
 800a2ae:	4604      	mov	r4, r0
 800a2b0:	4628      	mov	r0, r5
 800a2b2:	f7fd f8b3 	bl	800741c <pbuf_free>
 800a2b6:	4620      	mov	r0, r4
 800a2b8:	b004      	add	sp, #16
 800a2ba:	bd70      	pop	{r4, r5, r6, pc}
 800a2bc:	f06f 0403 	mvn.w	r4, #3
 800a2c0:	e7f6      	b.n	800a2b0 <tcp_keepalive+0x3c>
 800a2c2:	f04f 34ff 	mov.w	r4, #4294967295
 800a2c6:	e7f6      	b.n	800a2b6 <tcp_keepalive+0x42>

0800a2c8 <tcp_zero_window_probe>:
 800a2c8:	e92d 41ff 	stmdb	sp!, {r0, r1, r2, r3, r4, r5, r6, r7, r8, lr}
 800a2cc:	6ec4      	ldr	r4, [r0, #108]	; 0x6c
 800a2ce:	4606      	mov	r6, r0
 800a2d0:	b914      	cbnz	r4, 800a2d8 <tcp_zero_window_probe+0x10>
 800a2d2:	6e84      	ldr	r4, [r0, #104]	; 0x68
 800a2d4:	2c00      	cmp	r4, #0
 800a2d6:	d041      	beq.n	800a35c <tcp_zero_window_probe+0x94>
 800a2d8:	68e3      	ldr	r3, [r4, #12]
 800a2da:	8998      	ldrh	r0, [r3, #12]
 800a2dc:	f7fb fac6 	bl	800586c <lwip_htons>
 800a2e0:	f010 0501 	ands.w	r5, r0, #1
 800a2e4:	68e3      	ldr	r3, [r4, #12]
 800a2e6:	4630      	mov	r0, r6
 800a2e8:	bf18      	it	ne
 800a2ea:	8925      	ldrhne	r5, [r4, #8]
 800a2ec:	685a      	ldr	r2, [r3, #4]
 800a2ee:	bf1c      	itt	ne
 800a2f0:	fab5 f585 	clzne	r5, r5
 800a2f4:	096d      	lsrne	r5, r5, #5
 800a2f6:	f085 0101 	eor.w	r1, r5, #1
 800a2fa:	f7ff fc4d 	bl	8009b98 <tcp_output_alloc_header.constprop.0>
 800a2fe:	4607      	mov	r7, r0
 800a300:	2800      	cmp	r0, #0
 800a302:	d03d      	beq.n	800a380 <tcp_zero_window_probe+0xb8>
 800a304:	f8d0 8004 	ldr.w	r8, [r0, #4]
 800a308:	b365      	cbz	r5, 800a364 <tcp_zero_window_probe+0x9c>
 800a30a:	f8b8 500c 	ldrh.w	r5, [r8, #12]
 800a30e:	2011      	movs	r0, #17
 800a310:	f7fb faac 	bl	800586c <lwip_htons>
 800a314:	f425 557c 	bic.w	r5, r5, #16128	; 0x3f00
 800a318:	b2ad      	uxth	r5, r5
 800a31a:	4328      	orrs	r0, r5
 800a31c:	f8a8 000c 	strh.w	r0, [r8, #12]
 800a320:	68e3      	ldr	r3, [r4, #12]
 800a322:	1d34      	adds	r4, r6, #4
 800a324:	6858      	ldr	r0, [r3, #4]
 800a326:	f7fb faa4 	bl	8005872 <lwip_htonl>
 800a32a:	6cf3      	ldr	r3, [r6, #76]	; 0x4c
 800a32c:	3001      	adds	r0, #1
 800a32e:	1a1b      	subs	r3, r3, r0
 800a330:	2b00      	cmp	r3, #0
 800a332:	bfb8      	it	lt
 800a334:	64f0      	strlt	r0, [r6, #76]	; 0x4c
 800a336:	4620      	mov	r0, r4
 800a338:	f7fb ff2e 	bl	8006198 <ip4_route>
 800a33c:	b1e8      	cbz	r0, 800a37a <tcp_zero_window_probe+0xb2>
 800a33e:	2100      	movs	r1, #0
 800a340:	2206      	movs	r2, #6
 800a342:	9002      	str	r0, [sp, #8]
 800a344:	4638      	mov	r0, r7
 800a346:	7ab3      	ldrb	r3, [r6, #10]
 800a348:	e88d 0006 	stmia.w	sp, {r1, r2}
 800a34c:	4622      	mov	r2, r4
 800a34e:	4631      	mov	r1, r6
 800a350:	f7fc f888 	bl	8006464 <ip4_output_if>
 800a354:	4604      	mov	r4, r0
 800a356:	4638      	mov	r0, r7
 800a358:	f7fd f860 	bl	800741c <pbuf_free>
 800a35c:	4620      	mov	r0, r4
 800a35e:	b004      	add	sp, #16
 800a360:	e8bd 81f0 	ldmia.w	sp!, {r4, r5, r6, r7, r8, pc}
 800a364:	6860      	ldr	r0, [r4, #4]
 800a366:	f108 0114 	add.w	r1, r8, #20
 800a36a:	8922      	ldrh	r2, [r4, #8]
 800a36c:	8903      	ldrh	r3, [r0, #8]
 800a36e:	1a9b      	subs	r3, r3, r2
 800a370:	2201      	movs	r2, #1
 800a372:	b29b      	uxth	r3, r3
 800a374:	f7fd faf0 	bl	8007958 <pbuf_copy_partial>
 800a378:	e7d2      	b.n	800a320 <tcp_zero_window_probe+0x58>
 800a37a:	f06f 0403 	mvn.w	r4, #3
 800a37e:	e7ea      	b.n	800a356 <tcp_zero_window_probe+0x8e>
 800a380:	f04f 34ff 	mov.w	r4, #4294967295
 800a384:	e7ea      	b.n	800a35c <tcp_zero_window_probe+0x94>
	...

0800a388 <sys_timeout>:
 800a388:	e92d 41f0 	stmdb	sp!, {r4, r5, r6, r7, r8, lr}
 800a38c:	4605      	mov	r5, r0
 800a38e:	200a      	movs	r0, #10
 800a390:	460f      	mov	r7, r1
 800a392:	4616      	mov	r6, r2
 800a394:	f7fc fea0 	bl	80070d8 <memp_malloc>
 800a398:	4604      	mov	r4, r0
 800a39a:	b938      	cbnz	r0, 800a3ac <sys_timeout+0x24>
 800a39c:	4b1e      	ldr	r3, [pc, #120]	; (800a418 <sys_timeout+0x90>)
 800a39e:	22d4      	movs	r2, #212	; 0xd4
 800a3a0:	491e      	ldr	r1, [pc, #120]	; (800a41c <sys_timeout+0x94>)
 800a3a2:	481f      	ldr	r0, [pc, #124]	; (800a420 <sys_timeout+0x98>)
 800a3a4:	e8bd 41f0 	ldmia.w	sp!, {r4, r5, r6, r7, r8, lr}
 800a3a8:	f001 baba 	b.w	800b920 <iprintf>
 800a3ac:	f000 fc96 	bl	800acdc <sys_now>
 800a3b0:	4a1c      	ldr	r2, [pc, #112]	; (800a424 <sys_timeout+0x9c>)
 800a3b2:	491d      	ldr	r1, [pc, #116]	; (800a428 <sys_timeout+0xa0>)
 800a3b4:	6813      	ldr	r3, [r2, #0]
 800a3b6:	b95b      	cbnz	r3, 800a3d0 <sys_timeout+0x48>
 800a3b8:	6008      	str	r0, [r1, #0]
 800a3ba:	4618      	mov	r0, r3
 800a3bc:	2100      	movs	r1, #0
 800a3be:	4428      	add	r0, r5
 800a3c0:	60a7      	str	r7, [r4, #8]
 800a3c2:	6021      	str	r1, [r4, #0]
 800a3c4:	60e6      	str	r6, [r4, #12]
 800a3c6:	6060      	str	r0, [r4, #4]
 800a3c8:	b92b      	cbnz	r3, 800a3d6 <sys_timeout+0x4e>
 800a3ca:	6014      	str	r4, [r2, #0]
 800a3cc:	e8bd 81f0 	ldmia.w	sp!, {r4, r5, r6, r7, r8, pc}
 800a3d0:	6809      	ldr	r1, [r1, #0]
 800a3d2:	1a40      	subs	r0, r0, r1
 800a3d4:	e7f2      	b.n	800a3bc <sys_timeout+0x34>
 800a3d6:	6859      	ldr	r1, [r3, #4]
 800a3d8:	428d      	cmp	r5, r1
 800a3da:	d217      	bcs.n	800a40c <sys_timeout+0x84>
 800a3dc:	1b4d      	subs	r5, r1, r5
 800a3de:	605d      	str	r5, [r3, #4]
 800a3e0:	6023      	str	r3, [r4, #0]
 800a3e2:	e7f2      	b.n	800a3ca <sys_timeout+0x42>
 800a3e4:	684e      	ldr	r6, [r1, #4]
 800a3e6:	42b2      	cmp	r2, r6
 800a3e8:	d312      	bcc.n	800a410 <sys_timeout+0x88>
 800a3ea:	4608      	mov	r0, r1
 800a3ec:	6841      	ldr	r1, [r0, #4]
 800a3ee:	6862      	ldr	r2, [r4, #4]
 800a3f0:	1a52      	subs	r2, r2, r1
 800a3f2:	6801      	ldr	r1, [r0, #0]
 800a3f4:	6062      	str	r2, [r4, #4]
 800a3f6:	2900      	cmp	r1, #0
 800a3f8:	d1f4      	bne.n	800a3e4 <sys_timeout+0x5c>
 800a3fa:	4295      	cmp	r5, r2
 800a3fc:	d202      	bcs.n	800a404 <sys_timeout+0x7c>
 800a3fe:	685b      	ldr	r3, [r3, #4]
 800a400:	441d      	add	r5, r3
 800a402:	6065      	str	r5, [r4, #4]
 800a404:	6021      	str	r1, [r4, #0]
 800a406:	6004      	str	r4, [r0, #0]
 800a408:	e8bd 81f0 	ldmia.w	sp!, {r4, r5, r6, r7, r8, pc}
 800a40c:	4618      	mov	r0, r3
 800a40e:	e7ed      	b.n	800a3ec <sys_timeout+0x64>
 800a410:	1ab2      	subs	r2, r6, r2
 800a412:	604a      	str	r2, [r1, #4]
 800a414:	e7f6      	b.n	800a404 <sys_timeout+0x7c>
 800a416:	bf00      	nop
 800a418:	0800da1c 	.word	0x0800da1c
 800a41c:	0800da50 	.word	0x0800da50
 800a420:	0800c6ba 	.word	0x0800c6ba
 800a424:	200040cc 	.word	0x200040cc
 800a428:	200040d4 	.word	0x200040d4

0800a42c <tcp_timer_needed>:
 800a42c:	4b08      	ldr	r3, [pc, #32]	; (800a450 <tcp_timer_needed+0x24>)
 800a42e:	681a      	ldr	r2, [r3, #0]
 800a430:	b962      	cbnz	r2, 800a44c <tcp_timer_needed+0x20>
 800a432:	4a08      	ldr	r2, [pc, #32]	; (800a454 <tcp_timer_needed+0x28>)
 800a434:	6812      	ldr	r2, [r2, #0]
 800a436:	b912      	cbnz	r2, 800a43e <tcp_timer_needed+0x12>
 800a438:	4a07      	ldr	r2, [pc, #28]	; (800a458 <tcp_timer_needed+0x2c>)
 800a43a:	6812      	ldr	r2, [r2, #0]
 800a43c:	b132      	cbz	r2, 800a44c <tcp_timer_needed+0x20>
 800a43e:	2201      	movs	r2, #1
 800a440:	4906      	ldr	r1, [pc, #24]	; (800a45c <tcp_timer_needed+0x30>)
 800a442:	20fa      	movs	r0, #250	; 0xfa
 800a444:	601a      	str	r2, [r3, #0]
 800a446:	2200      	movs	r2, #0
 800a448:	f7ff bf9e 	b.w	800a388 <sys_timeout>
 800a44c:	4770      	bx	lr
 800a44e:	bf00      	nop
 800a450:	200040d0 	.word	0x200040d0
 800a454:	200077f4 	.word	0x200077f4
 800a458:	20007804 	.word	0x20007804
 800a45c:	0800a461 	.word	0x0800a461

0800a460 <tcpip_tcp_timer>:
 800a460:	b508      	push	{r3, lr}
 800a462:	f7fd ff0f 	bl	8008284 <tcp_tmr>
 800a466:	4b08      	ldr	r3, [pc, #32]	; (800a488 <tcpip_tcp_timer+0x28>)
 800a468:	681b      	ldr	r3, [r3, #0]
 800a46a:	b913      	cbnz	r3, 800a472 <tcpip_tcp_timer+0x12>
 800a46c:	4b07      	ldr	r3, [pc, #28]	; (800a48c <tcpip_tcp_timer+0x2c>)
 800a46e:	681b      	ldr	r3, [r3, #0]
 800a470:	b133      	cbz	r3, 800a480 <tcpip_tcp_timer+0x20>
 800a472:	2200      	movs	r2, #0
 800a474:	4906      	ldr	r1, [pc, #24]	; (800a490 <tcpip_tcp_timer+0x30>)
 800a476:	20fa      	movs	r0, #250	; 0xfa
 800a478:	e8bd 4008 	ldmia.w	sp!, {r3, lr}
 800a47c:	f7ff bf84 	b.w	800a388 <sys_timeout>
 800a480:	4a04      	ldr	r2, [pc, #16]	; (800a494 <tcpip_tcp_timer+0x34>)
 800a482:	6013      	str	r3, [r2, #0]
 800a484:	bd08      	pop	{r3, pc}
 800a486:	bf00      	nop
 800a488:	200077f4 	.word	0x200077f4
 800a48c:	20007804 	.word	0x20007804
 800a490:	0800a461 	.word	0x0800a461
 800a494:	200040d0 	.word	0x200040d0

0800a498 <sys_timeouts_init>:
 800a498:	b538      	push	{r3, r4, r5, lr}
 800a49a:	4d0a      	ldr	r5, [pc, #40]	; (800a4c4 <sys_timeouts_init+0x2c>)
 800a49c:	f44f 707a 	mov.w	r0, #1000	; 0x3e8
 800a4a0:	4c09      	ldr	r4, [pc, #36]	; (800a4c8 <sys_timeouts_init+0x30>)
 800a4a2:	f105 0208 	add.w	r2, r5, #8
 800a4a6:	4621      	mov	r1, r4
 800a4a8:	f7ff ff6e 	bl	800a388 <sys_timeout>
 800a4ac:	f105 0210 	add.w	r2, r5, #16
 800a4b0:	4621      	mov	r1, r4
 800a4b2:	f44f 707a 	mov.w	r0, #1000	; 0x3e8
 800a4b6:	f7ff ff67 	bl	800a388 <sys_timeout>
 800a4ba:	f000 fc0f 	bl	800acdc <sys_now>
 800a4be:	4b03      	ldr	r3, [pc, #12]	; (800a4cc <sys_timeouts_init+0x34>)
 800a4c0:	6018      	str	r0, [r3, #0]
 800a4c2:	bd38      	pop	{r3, r4, r5, pc}
 800a4c4:	0800da04 	.word	0x0800da04
 800a4c8:	0800a4d1 	.word	0x0800a4d1
 800a4cc:	200040d4 	.word	0x200040d4

0800a4d0 <cyclic_timer>:
 800a4d0:	b510      	push	{r4, lr}
 800a4d2:	4604      	mov	r4, r0
 800a4d4:	6843      	ldr	r3, [r0, #4]
 800a4d6:	4798      	blx	r3
 800a4d8:	4903      	ldr	r1, [pc, #12]	; (800a4e8 <cyclic_timer+0x18>)
 800a4da:	4622      	mov	r2, r4
 800a4dc:	6820      	ldr	r0, [r4, #0]
 800a4de:	e8bd 4010 	ldmia.w	sp!, {r4, lr}
 800a4e2:	f7ff bf51 	b.w	800a388 <sys_timeout>
 800a4e6:	bf00      	nop
 800a4e8:	0800a4d1 	.word	0x0800a4d1

0800a4ec <sys_timeouts_mbox_fetch>:
 800a4ec:	e92d 4ff7 	stmdb	sp!, {r0, r1, r2, r4, r5, r6, r7, r8, r9, sl, fp, lr}
 800a4f0:	4d24      	ldr	r5, [pc, #144]	; (800a584 <sys_timeouts_mbox_fetch+0x98>)
 800a4f2:	4681      	mov	r9, r0
 800a4f4:	468a      	mov	sl, r1
 800a4f6:	4c24      	ldr	r4, [pc, #144]	; (800a588 <sys_timeouts_mbox_fetch+0x9c>)
 800a4f8:	462e      	mov	r6, r5
 800a4fa:	682a      	ldr	r2, [r5, #0]
 800a4fc:	b932      	cbnz	r2, 800a50c <sys_timeouts_mbox_fetch+0x20>
 800a4fe:	4651      	mov	r1, sl
 800a500:	4648      	mov	r0, r9
 800a502:	b003      	add	sp, #12
 800a504:	e8bd 4ff0 	ldmia.w	sp!, {r4, r5, r6, r7, r8, r9, sl, fp, lr}
 800a508:	f000 b99c 	b.w	800a844 <sys_arch_mbox_fetch>
 800a50c:	f000 fbe6 	bl	800acdc <sys_now>
 800a510:	6822      	ldr	r2, [r4, #0]
 800a512:	682b      	ldr	r3, [r5, #0]
 800a514:	1a80      	subs	r0, r0, r2
 800a516:	685a      	ldr	r2, [r3, #4]
 800a518:	4290      	cmp	r0, r2
 800a51a:	d928      	bls.n	800a56e <sys_timeouts_mbox_fetch+0x82>
 800a51c:	6833      	ldr	r3, [r6, #0]
 800a51e:	2b00      	cmp	r3, #0
 800a520:	d0eb      	beq.n	800a4fa <sys_timeouts_mbox_fetch+0xe>
 800a522:	f000 fbdb 	bl	800acdc <sys_now>
 800a526:	6823      	ldr	r3, [r4, #0]
 800a528:	4f18      	ldr	r7, [pc, #96]	; (800a58c <sys_timeouts_mbox_fetch+0xa0>)
 800a52a:	eba0 0b03 	sub.w	fp, r0, r3
 800a52e:	6831      	ldr	r1, [r6, #0]
 800a530:	2900      	cmp	r1, #0
 800a532:	d0e2      	beq.n	800a4fa <sys_timeouts_mbox_fetch+0xe>
 800a534:	684a      	ldr	r2, [r1, #4]
 800a536:	455a      	cmp	r2, fp
 800a538:	d8df      	bhi.n	800a4fa <sys_timeouts_mbox_fetch+0xe>
 800a53a:	6820      	ldr	r0, [r4, #0]
 800a53c:	ebab 0b02 	sub.w	fp, fp, r2
 800a540:	f8d1 8008 	ldr.w	r8, [r1, #8]
 800a544:	4410      	add	r0, r2
 800a546:	68cb      	ldr	r3, [r1, #12]
 800a548:	680a      	ldr	r2, [r1, #0]
 800a54a:	6020      	str	r0, [r4, #0]
 800a54c:	200a      	movs	r0, #10
 800a54e:	6032      	str	r2, [r6, #0]
 800a550:	9301      	str	r3, [sp, #4]
 800a552:	f7fc fddd 	bl	8007110 <memp_free>
 800a556:	f1b8 0f00 	cmp.w	r8, #0
 800a55a:	d0e8      	beq.n	800a52e <sys_timeouts_mbox_fetch+0x42>
 800a55c:	4638      	mov	r0, r7
 800a55e:	f000 f9b4 	bl	800a8ca <sys_mutex_lock>
 800a562:	9801      	ldr	r0, [sp, #4]
 800a564:	47c0      	blx	r8
 800a566:	4638      	mov	r0, r7
 800a568:	f000 f9b4 	bl	800a8d4 <sys_mutex_unlock>
 800a56c:	e7df      	b.n	800a52e <sys_timeouts_mbox_fetch+0x42>
 800a56e:	1a12      	subs	r2, r2, r0
 800a570:	d0d4      	beq.n	800a51c <sys_timeouts_mbox_fetch+0x30>
 800a572:	4651      	mov	r1, sl
 800a574:	4648      	mov	r0, r9
 800a576:	f000 f965 	bl	800a844 <sys_arch_mbox_fetch>
 800a57a:	3001      	adds	r0, #1
 800a57c:	d0ce      	beq.n	800a51c <sys_timeouts_mbox_fetch+0x30>
 800a57e:	b003      	add	sp, #12
 800a580:	e8bd 8ff0 	ldmia.w	sp!, {r4, r5, r6, r7, r8, r9, sl, fp, pc}
 800a584:	200040cc 	.word	0x200040cc
 800a588:	200040d4 	.word	0x200040d4
 800a58c:	200040ec 	.word	0x200040ec

0800a590 <udp_init>:
 800a590:	4770      	bx	lr
	...

0800a594 <udp_input>:
 800a594:	8943      	ldrh	r3, [r0, #10]
 800a596:	2b07      	cmp	r3, #7
 800a598:	e92d 4ff0 	stmdb	sp!, {r4, r5, r6, r7, r8, r9, sl, fp, lr}
 800a59c:	4605      	mov	r5, r0
 800a59e:	b085      	sub	sp, #20
 800a5a0:	4689      	mov	r9, r1
 800a5a2:	d805      	bhi.n	800a5b0 <udp_input+0x1c>
 800a5a4:	4628      	mov	r0, r5
 800a5a6:	b005      	add	sp, #20
 800a5a8:	e8bd 4ff0 	ldmia.w	sp!, {r4, r5, r6, r7, r8, r9, sl, fp, lr}
 800a5ac:	f7fc bf36 	b.w	800741c <pbuf_free>
 800a5b0:	4e3e      	ldr	r6, [pc, #248]	; (800a6ac <udp_input+0x118>)
 800a5b2:	6844      	ldr	r4, [r0, #4]
 800a5b4:	6831      	ldr	r1, [r6, #0]
 800a5b6:	6970      	ldr	r0, [r6, #20]
 800a5b8:	f7fb ff65 	bl	8006486 <ip4_addr_isbroadcast_u32>
 800a5bc:	4607      	mov	r7, r0
 800a5be:	8820      	ldrh	r0, [r4, #0]
 800a5c0:	f7fb f954 	bl	800586c <lwip_htons>
 800a5c4:	4680      	mov	r8, r0
 800a5c6:	8860      	ldrh	r0, [r4, #2]
 800a5c8:	2400      	movs	r4, #0
 800a5ca:	f7fb f94f 	bl	800586c <lwip_htons>
 800a5ce:	4a38      	ldr	r2, [pc, #224]	; (800a6b0 <udp_input+0x11c>)
 800a5d0:	4682      	mov	sl, r0
 800a5d2:	6971      	ldr	r1, [r6, #20]
 800a5d4:	6810      	ldr	r0, [r2, #0]
 800a5d6:	46a4      	mov	ip, r4
 800a5d8:	f8d6 e010 	ldr.w	lr, [r6, #16]
 800a5dc:	4693      	mov	fp, r2
 800a5de:	4603      	mov	r3, r0
 800a5e0:	9603      	str	r6, [sp, #12]
 800a5e2:	b92b      	cbnz	r3, 800a5f0 <udp_input+0x5c>
 800a5e4:	bb0c      	cbnz	r4, 800a62a <udp_input+0x96>
 800a5e6:	f8d9 3004 	ldr.w	r3, [r9, #4]
 800a5ea:	428b      	cmp	r3, r1
 800a5ec:	d1da      	bne.n	800a5a4 <udp_input+0x10>
 800a5ee:	e01c      	b.n	800a62a <udp_input+0x96>
 800a5f0:	8a5a      	ldrh	r2, [r3, #18]
 800a5f2:	4552      	cmp	r2, sl
 800a5f4:	d12b      	bne.n	800a64e <udp_input+0xba>
 800a5f6:	681a      	ldr	r2, [r3, #0]
 800a5f8:	b32f      	cbz	r7, 800a646 <udp_input+0xb2>
 800a5fa:	b13a      	cbz	r2, 800a60c <udp_input+0x78>
 800a5fc:	1c4e      	adds	r6, r1, #1
 800a5fe:	d005      	beq.n	800a60c <udp_input+0x78>
 800a600:	404a      	eors	r2, r1
 800a602:	4616      	mov	r6, r2
 800a604:	f8d9 2008 	ldr.w	r2, [r9, #8]
 800a608:	4216      	tst	r6, r2
 800a60a:	d120      	bne.n	800a64e <udp_input+0xba>
 800a60c:	7c1a      	ldrb	r2, [r3, #16]
 800a60e:	0752      	lsls	r2, r2, #29
 800a610:	d402      	bmi.n	800a618 <udp_input+0x84>
 800a612:	2c00      	cmp	r4, #0
 800a614:	bf08      	it	eq
 800a616:	461c      	moveq	r4, r3
 800a618:	8a9a      	ldrh	r2, [r3, #20]
 800a61a:	4542      	cmp	r2, r8
 800a61c:	d117      	bne.n	800a64e <udp_input+0xba>
 800a61e:	685a      	ldr	r2, [r3, #4]
 800a620:	b9c2      	cbnz	r2, 800a654 <udp_input+0xc0>
 800a622:	f1bc 0f00 	cmp.w	ip, #0
 800a626:	d118      	bne.n	800a65a <udp_input+0xc6>
 800a628:	461c      	mov	r4, r3
 800a62a:	f06f 0107 	mvn.w	r1, #7
 800a62e:	4628      	mov	r0, r5
 800a630:	f7fc feee 	bl	8007410 <pbuf_header>
 800a634:	b1c0      	cbz	r0, 800a668 <udp_input+0xd4>
 800a636:	4b1f      	ldr	r3, [pc, #124]	; (800a6b4 <udp_input+0x120>)
 800a638:	f240 1255 	movw	r2, #341	; 0x155
 800a63c:	491e      	ldr	r1, [pc, #120]	; (800a6b8 <udp_input+0x124>)
 800a63e:	481f      	ldr	r0, [pc, #124]	; (800a6bc <udp_input+0x128>)
 800a640:	f001 f96e 	bl	800b920 <iprintf>
 800a644:	e7ae      	b.n	800a5a4 <udp_input+0x10>
 800a646:	2a00      	cmp	r2, #0
 800a648:	d0e0      	beq.n	800a60c <udp_input+0x78>
 800a64a:	428a      	cmp	r2, r1
 800a64c:	d0de      	beq.n	800a60c <udp_input+0x78>
 800a64e:	469c      	mov	ip, r3
 800a650:	68db      	ldr	r3, [r3, #12]
 800a652:	e7c6      	b.n	800a5e2 <udp_input+0x4e>
 800a654:	4572      	cmp	r2, lr
 800a656:	d1fa      	bne.n	800a64e <udp_input+0xba>
 800a658:	e7e3      	b.n	800a622 <udp_input+0x8e>
 800a65a:	68da      	ldr	r2, [r3, #12]
 800a65c:	f8cb 3000 	str.w	r3, [fp]
 800a660:	f8cc 200c 	str.w	r2, [ip, #12]
 800a664:	60d8      	str	r0, [r3, #12]
 800a666:	e7df      	b.n	800a628 <udp_input+0x94>
 800a668:	b164      	cbz	r4, 800a684 <udp_input+0xf0>
 800a66a:	69a6      	ldr	r6, [r4, #24]
 800a66c:	2e00      	cmp	r6, #0
 800a66e:	d099      	beq.n	800a5a4 <udp_input+0x10>
 800a670:	f8cd 8000 	str.w	r8, [sp]
 800a674:	462a      	mov	r2, r5
 800a676:	4b12      	ldr	r3, [pc, #72]	; (800a6c0 <udp_input+0x12c>)
 800a678:	4621      	mov	r1, r4
 800a67a:	69e0      	ldr	r0, [r4, #28]
 800a67c:	47b0      	blx	r6
 800a67e:	b005      	add	sp, #20
 800a680:	e8bd 8ff0 	ldmia.w	sp!, {r4, r5, r6, r7, r8, r9, sl, fp, pc}
 800a684:	2f00      	cmp	r7, #0
 800a686:	d18d      	bne.n	800a5a4 <udp_input+0x10>
 800a688:	9b03      	ldr	r3, [sp, #12]
 800a68a:	695b      	ldr	r3, [r3, #20]
 800a68c:	f003 03f0 	and.w	r3, r3, #240	; 0xf0
 800a690:	2be0      	cmp	r3, #224	; 0xe0
 800a692:	d087      	beq.n	800a5a4 <udp_input+0x10>
 800a694:	9b03      	ldr	r3, [sp, #12]
 800a696:	4628      	mov	r0, r5
 800a698:	8999      	ldrh	r1, [r3, #12]
 800a69a:	3108      	adds	r1, #8
 800a69c:	b209      	sxth	r1, r1
 800a69e:	f7fc feba 	bl	8007416 <pbuf_header_force>
 800a6a2:	2103      	movs	r1, #3
 800a6a4:	4628      	mov	r0, r5
 800a6a6:	f7fb fd6d 	bl	8006184 <icmp_dest_unreach>
 800a6aa:	e77b      	b.n	800a5a4 <udp_input+0x10>
 800a6ac:	200040f0 	.word	0x200040f0
 800a6b0:	2000780c 	.word	0x2000780c
 800a6b4:	0800da8d 	.word	0x0800da8d
 800a6b8:	0800dabc 	.word	0x0800dabc
 800a6bc:	0800c6ba 	.word	0x0800c6ba
 800a6c0:	20004100 	.word	0x20004100

0800a6c4 <udp_netif_ip_addr_changed>:
 800a6c4:	b510      	push	{r4, lr}
 800a6c6:	b138      	cbz	r0, 800a6d8 <udp_netif_ip_addr_changed+0x14>
 800a6c8:	6803      	ldr	r3, [r0, #0]
 800a6ca:	b12b      	cbz	r3, 800a6d8 <udp_netif_ip_addr_changed+0x14>
 800a6cc:	b121      	cbz	r1, 800a6d8 <udp_netif_ip_addr_changed+0x14>
 800a6ce:	680b      	ldr	r3, [r1, #0]
 800a6d0:	b113      	cbz	r3, 800a6d8 <udp_netif_ip_addr_changed+0x14>
 800a6d2:	4b06      	ldr	r3, [pc, #24]	; (800a6ec <udp_netif_ip_addr_changed+0x28>)
 800a6d4:	681b      	ldr	r3, [r3, #0]
 800a6d6:	b903      	cbnz	r3, 800a6da <udp_netif_ip_addr_changed+0x16>
 800a6d8:	bd10      	pop	{r4, pc}
 800a6da:	681c      	ldr	r4, [r3, #0]
 800a6dc:	6802      	ldr	r2, [r0, #0]
 800a6de:	4294      	cmp	r4, r2
 800a6e0:	bf04      	itt	eq
 800a6e2:	680a      	ldreq	r2, [r1, #0]
 800a6e4:	601a      	streq	r2, [r3, #0]
 800a6e6:	68db      	ldr	r3, [r3, #12]
 800a6e8:	e7f5      	b.n	800a6d6 <udp_netif_ip_addr_changed+0x12>
 800a6ea:	bf00      	nop
 800a6ec:	2000780c 	.word	0x2000780c

0800a6f0 <ethernet_input>:
 800a6f0:	8943      	ldrh	r3, [r0, #10]
 800a6f2:	2b0e      	cmp	r3, #14
 800a6f4:	b570      	push	{r4, r5, r6, lr}
 800a6f6:	4604      	mov	r4, r0
 800a6f8:	460d      	mov	r5, r1
 800a6fa:	d914      	bls.n	800a726 <ethernet_input+0x36>
 800a6fc:	6840      	ldr	r0, [r0, #4]
 800a6fe:	7803      	ldrb	r3, [r0, #0]
 800a700:	8986      	ldrh	r6, [r0, #12]
 800a702:	07d9      	lsls	r1, r3, #31
 800a704:	d50a      	bpl.n	800a71c <ethernet_input+0x2c>
 800a706:	2b01      	cmp	r3, #1
 800a708:	d111      	bne.n	800a72e <ethernet_input+0x3e>
 800a70a:	7843      	ldrb	r3, [r0, #1]
 800a70c:	b933      	cbnz	r3, 800a71c <ethernet_input+0x2c>
 800a70e:	7883      	ldrb	r3, [r0, #2]
 800a710:	2b5e      	cmp	r3, #94	; 0x5e
 800a712:	d103      	bne.n	800a71c <ethernet_input+0x2c>
 800a714:	7b63      	ldrb	r3, [r4, #13]
 800a716:	f043 0310 	orr.w	r3, r3, #16
 800a71a:	7363      	strb	r3, [r4, #13]
 800a71c:	2e08      	cmp	r6, #8
 800a71e:	d010      	beq.n	800a742 <ethernet_input+0x52>
 800a720:	f5b6 6fc1 	cmp.w	r6, #1544	; 0x608
 800a724:	d01e      	beq.n	800a764 <ethernet_input+0x74>
 800a726:	4620      	mov	r0, r4
 800a728:	f7fc fe78 	bl	800741c <pbuf_free>
 800a72c:	e018      	b.n	800a760 <ethernet_input+0x70>
 800a72e:	2206      	movs	r2, #6
 800a730:	4914      	ldr	r1, [pc, #80]	; (800a784 <ethernet_input+0x94>)
 800a732:	f001 f827 	bl	800b784 <memcmp>
 800a736:	2800      	cmp	r0, #0
 800a738:	d1f0      	bne.n	800a71c <ethernet_input+0x2c>
 800a73a:	7b63      	ldrb	r3, [r4, #13]
 800a73c:	f043 0308 	orr.w	r3, r3, #8
 800a740:	e7eb      	b.n	800a71a <ethernet_input+0x2a>
 800a742:	f895 302b 	ldrb.w	r3, [r5, #43]	; 0x2b
 800a746:	071a      	lsls	r2, r3, #28
 800a748:	d5ed      	bpl.n	800a726 <ethernet_input+0x36>
 800a74a:	f06f 010d 	mvn.w	r1, #13
 800a74e:	4620      	mov	r0, r4
 800a750:	f7fc fe5e 	bl	8007410 <pbuf_header>
 800a754:	2800      	cmp	r0, #0
 800a756:	d1e6      	bne.n	800a726 <ethernet_input+0x36>
 800a758:	4629      	mov	r1, r5
 800a75a:	4620      	mov	r0, r4
 800a75c:	f7fb fd48 	bl	80061f0 <ip4_input>
 800a760:	2000      	movs	r0, #0
 800a762:	bd70      	pop	{r4, r5, r6, pc}
 800a764:	f895 302b 	ldrb.w	r3, [r5, #43]	; 0x2b
 800a768:	071b      	lsls	r3, r3, #28
 800a76a:	d5dc      	bpl.n	800a726 <ethernet_input+0x36>
 800a76c:	f06f 010d 	mvn.w	r1, #13
 800a770:	4620      	mov	r0, r4
 800a772:	f7fc fe4d 	bl	8007410 <pbuf_header>
 800a776:	2800      	cmp	r0, #0
 800a778:	d1d5      	bne.n	800a726 <ethernet_input+0x36>
 800a77a:	4629      	mov	r1, r5
 800a77c:	4620      	mov	r0, r4
 800a77e:	f7fb f9a9 	bl	8005ad4 <etharp_input>
 800a782:	e7ed      	b.n	800a760 <ethernet_input+0x70>
 800a784:	0800dad0 	.word	0x0800dad0

0800a788 <ethernet_output>:
 800a788:	e92d 41f0 	stmdb	sp!, {r4, r5, r6, r7, r8, lr}
 800a78c:	460d      	mov	r5, r1
 800a78e:	4604      	mov	r4, r0
 800a790:	f8bd 0018 	ldrh.w	r0, [sp, #24]
 800a794:	4616      	mov	r6, r2
 800a796:	461f      	mov	r7, r3
 800a798:	f7fb f868 	bl	800586c <lwip_htons>
 800a79c:	210e      	movs	r1, #14
 800a79e:	4680      	mov	r8, r0
 800a7a0:	4628      	mov	r0, r5
 800a7a2:	f7fc fe35 	bl	8007410 <pbuf_header>
 800a7a6:	b9e0      	cbnz	r0, 800a7e2 <ethernet_output+0x5a>
 800a7a8:	6869      	ldr	r1, [r5, #4]
 800a7aa:	f8a1 800c 	strh.w	r8, [r1, #12]
 800a7ae:	683b      	ldr	r3, [r7, #0]
 800a7b0:	600b      	str	r3, [r1, #0]
 800a7b2:	88bb      	ldrh	r3, [r7, #4]
 800a7b4:	808b      	strh	r3, [r1, #4]
 800a7b6:	6833      	ldr	r3, [r6, #0]
 800a7b8:	f8c1 3006 	str.w	r3, [r1, #6]
 800a7bc:	88b3      	ldrh	r3, [r6, #4]
 800a7be:	814b      	strh	r3, [r1, #10]
 800a7c0:	f894 3024 	ldrb.w	r3, [r4, #36]	; 0x24
 800a7c4:	2b06      	cmp	r3, #6
 800a7c6:	d006      	beq.n	800a7d6 <ethernet_output+0x4e>
 800a7c8:	4b08      	ldr	r3, [pc, #32]	; (800a7ec <ethernet_output+0x64>)
 800a7ca:	f44f 7296 	mov.w	r2, #300	; 0x12c
 800a7ce:	4908      	ldr	r1, [pc, #32]	; (800a7f0 <ethernet_output+0x68>)
 800a7d0:	4808      	ldr	r0, [pc, #32]	; (800a7f4 <ethernet_output+0x6c>)
 800a7d2:	f001 f8a5 	bl	800b920 <iprintf>
 800a7d6:	69a3      	ldr	r3, [r4, #24]
 800a7d8:	4629      	mov	r1, r5
 800a7da:	4620      	mov	r0, r4
 800a7dc:	e8bd 41f0 	ldmia.w	sp!, {r4, r5, r6, r7, r8, lr}
 800a7e0:	4718      	bx	r3
 800a7e2:	f06f 0001 	mvn.w	r0, #1
 800a7e6:	e8bd 81f0 	ldmia.w	sp!, {r4, r5, r6, r7, r8, pc}
 800a7ea:	bf00      	nop
 800a7ec:	0800dad6 	.word	0x0800dad6
 800a7f0:	0800db0b 	.word	0x0800db0b
 800a7f4:	0800c6ba 	.word	0x0800c6ba

0800a7f8 <sys_mbox_new>:
 800a7f8:	b513      	push	{r0, r1, r4, lr}
 800a7fa:	2304      	movs	r3, #4
 800a7fc:	4604      	mov	r4, r0
 800a7fe:	9100      	str	r1, [sp, #0]
 800a800:	4668      	mov	r0, sp
 800a802:	2100      	movs	r1, #0
 800a804:	9301      	str	r3, [sp, #4]
 800a806:	f7f9 fbdd 	bl	8003fc4 <osMessageCreate>
 800a80a:	6020      	str	r0, [r4, #0]
 800a80c:	fab0 f080 	clz	r0, r0
 800a810:	0940      	lsrs	r0, r0, #5
 800a812:	4240      	negs	r0, r0
 800a814:	b002      	add	sp, #8
 800a816:	bd10      	pop	{r4, pc}

0800a818 <sys_mbox_post>:
 800a818:	b538      	push	{r3, r4, r5, lr}
 800a81a:	4604      	mov	r4, r0
 800a81c:	460d      	mov	r5, r1
 800a81e:	f04f 32ff 	mov.w	r2, #4294967295
 800a822:	4629      	mov	r1, r5
 800a824:	6820      	ldr	r0, [r4, #0]
 800a826:	f7f9 fbd1 	bl	8003fcc <osMessagePut>
 800a82a:	2800      	cmp	r0, #0
 800a82c:	d1f7      	bne.n	800a81e <sys_mbox_post+0x6>
 800a82e:	bd38      	pop	{r3, r4, r5, pc}

0800a830 <sys_mbox_trypost>:
 800a830:	b508      	push	{r3, lr}
 800a832:	2200      	movs	r2, #0
 800a834:	6800      	ldr	r0, [r0, #0]
 800a836:	f7f9 fbc9 	bl	8003fcc <osMessagePut>
 800a83a:	3000      	adds	r0, #0
 800a83c:	bf18      	it	ne
 800a83e:	2001      	movne	r0, #1
 800a840:	4240      	negs	r0, r0
 800a842:	bd08      	pop	{r3, pc}

0800a844 <sys_arch_mbox_fetch>:
 800a844:	b5f0      	push	{r4, r5, r6, r7, lr}
 800a846:	4617      	mov	r7, r2
 800a848:	b085      	sub	sp, #20
 800a84a:	4606      	mov	r6, r0
 800a84c:	460d      	mov	r5, r1
 800a84e:	f7f9 fb04 	bl	8003e5a <osKernelSysTick>
 800a852:	4604      	mov	r4, r0
 800a854:	b177      	cbz	r7, 800a874 <sys_arch_mbox_fetch+0x30>
 800a856:	463a      	mov	r2, r7
 800a858:	6831      	ldr	r1, [r6, #0]
 800a85a:	a801      	add	r0, sp, #4
 800a85c:	f7f9 fbde 	bl	800401c <osMessageGet>
 800a860:	9b01      	ldr	r3, [sp, #4]
 800a862:	2b10      	cmp	r3, #16
 800a864:	d10d      	bne.n	800a882 <sys_arch_mbox_fetch+0x3e>
 800a866:	9b02      	ldr	r3, [sp, #8]
 800a868:	602b      	str	r3, [r5, #0]
 800a86a:	f7f9 faf6 	bl	8003e5a <osKernelSysTick>
 800a86e:	1b00      	subs	r0, r0, r4
 800a870:	b005      	add	sp, #20
 800a872:	bdf0      	pop	{r4, r5, r6, r7, pc}
 800a874:	f04f 32ff 	mov.w	r2, #4294967295
 800a878:	6831      	ldr	r1, [r6, #0]
 800a87a:	a801      	add	r0, sp, #4
 800a87c:	f7f9 fbce 	bl	800401c <osMessageGet>
 800a880:	e7f1      	b.n	800a866 <sys_arch_mbox_fetch+0x22>
 800a882:	f04f 30ff 	mov.w	r0, #4294967295
 800a886:	e7f3      	b.n	800a870 <sys_arch_mbox_fetch+0x2c>

0800a888 <sys_mbox_valid>:
 800a888:	6800      	ldr	r0, [r0, #0]
 800a88a:	3000      	adds	r0, #0
 800a88c:	bf18      	it	ne
 800a88e:	2001      	movne	r0, #1
 800a890:	4770      	bx	lr
	...

0800a894 <sys_init>:
 800a894:	b508      	push	{r3, lr}
 800a896:	4803      	ldr	r0, [pc, #12]	; (800a8a4 <sys_init+0x10>)
 800a898:	f7f9 fb06 	bl	8003ea8 <osMutexCreate>
 800a89c:	4b02      	ldr	r3, [pc, #8]	; (800a8a8 <sys_init+0x14>)
 800a89e:	6018      	str	r0, [r3, #0]
 800a8a0:	bd08      	pop	{r3, pc}
 800a8a2:	bf00      	nop
 800a8a4:	0800db44 	.word	0x0800db44
 800a8a8:	20007814 	.word	0x20007814

0800a8ac <sys_mutex_new>:
 800a8ac:	b513      	push	{r0, r1, r4, lr}
 800a8ae:	2300      	movs	r3, #0
 800a8b0:	4604      	mov	r4, r0
 800a8b2:	a802      	add	r0, sp, #8
 800a8b4:	f840 3d04 	str.w	r3, [r0, #-4]!
 800a8b8:	f7f9 faf6 	bl	8003ea8 <osMutexCreate>
 800a8bc:	6020      	str	r0, [r4, #0]
 800a8be:	fab0 f080 	clz	r0, r0
 800a8c2:	0940      	lsrs	r0, r0, #5
 800a8c4:	4240      	negs	r0, r0
 800a8c6:	b002      	add	sp, #8
 800a8c8:	bd10      	pop	{r4, pc}

0800a8ca <sys_mutex_lock>:
 800a8ca:	f04f 31ff 	mov.w	r1, #4294967295
 800a8ce:	6800      	ldr	r0, [r0, #0]
 800a8d0:	f7f9 baee 	b.w	8003eb0 <osMutexWait>

0800a8d4 <sys_mutex_unlock>:
 800a8d4:	6800      	ldr	r0, [r0, #0]
 800a8d6:	f7f9 bb73 	b.w	8003fc0 <osMutexRelease>

0800a8da <sys_thread_new>:
 800a8da:	b57f      	push	{r0, r1, r2, r3, r4, r5, r6, lr}
 800a8dc:	9102      	str	r1, [sp, #8]
 800a8de:	9908      	ldr	r1, [sp, #32]
 800a8e0:	9001      	str	r0, [sp, #4]
 800a8e2:	a801      	add	r0, sp, #4
 800a8e4:	f8ad 100c 	strh.w	r1, [sp, #12]
 800a8e8:	2100      	movs	r1, #0
 800a8ea:	9305      	str	r3, [sp, #20]
 800a8ec:	9104      	str	r1, [sp, #16]
 800a8ee:	4611      	mov	r1, r2
 800a8f0:	f7f9 faba 	bl	8003e68 <osThreadCreate>
 800a8f4:	b007      	add	sp, #28
 800a8f6:	f85d fb04 	ldr.w	pc, [sp], #4
	...

0800a8fc <sys_arch_protect>:
 800a8fc:	b508      	push	{r3, lr}
 800a8fe:	4b04      	ldr	r3, [pc, #16]	; (800a910 <sys_arch_protect+0x14>)
 800a900:	f04f 31ff 	mov.w	r1, #4294967295
 800a904:	6818      	ldr	r0, [r3, #0]
 800a906:	f7f9 fad3 	bl	8003eb0 <osMutexWait>
 800a90a:	2001      	movs	r0, #1
 800a90c:	bd08      	pop	{r3, pc}
 800a90e:	bf00      	nop
 800a910:	20007814 	.word	0x20007814

0800a914 <sys_arch_unprotect>:
 800a914:	4b01      	ldr	r3, [pc, #4]	; (800a91c <sys_arch_unprotect+0x8>)
 800a916:	6818      	ldr	r0, [r3, #0]
 800a918:	f7f9 bb52 	b.w	8003fc0 <osMutexRelease>
 800a91c:	20007814 	.word	0x20007814

0800a920 <low_level_output>:
 800a920:	e92d 4ff7 	stmdb	sp!, {r0, r1, r2, r4, r5, r6, r7, r8, r9, sl, fp, lr}
 800a924:	4a25      	ldr	r2, [pc, #148]	; (800a9bc <low_level_output+0x9c>)
 800a926:	f04f 0800 	mov.w	r8, #0
 800a92a:	460c      	mov	r4, r1
 800a92c:	f240 5bf4 	movw	fp, #1524	; 0x5f4
 800a930:	6ad5      	ldr	r5, [r2, #44]	; 0x2c
 800a932:	4647      	mov	r7, r8
 800a934:	9200      	str	r2, [sp, #0]
 800a936:	68ab      	ldr	r3, [r5, #8]
 800a938:	b92c      	cbnz	r4, 800a946 <low_level_output+0x26>
 800a93a:	4639      	mov	r1, r7
 800a93c:	481f      	ldr	r0, [pc, #124]	; (800a9bc <low_level_output+0x9c>)
 800a93e:	f7f5 fff3 	bl	8000928 <HAL_ETH_TransmitFrame>
 800a942:	4620      	mov	r0, r4
 800a944:	e004      	b.n	800a950 <low_level_output+0x30>
 800a946:	682a      	ldr	r2, [r5, #0]
 800a948:	2a00      	cmp	r2, #0
 800a94a:	da11      	bge.n	800a970 <low_level_output+0x50>
 800a94c:	f06f 0007 	mvn.w	r0, #7
 800a950:	9b00      	ldr	r3, [sp, #0]
 800a952:	f241 0214 	movw	r2, #4116	; 0x1014
 800a956:	681b      	ldr	r3, [r3, #0]
 800a958:	5899      	ldr	r1, [r3, r2]
 800a95a:	0689      	lsls	r1, r1, #26
 800a95c:	d505      	bpl.n	800a96a <low_level_output+0x4a>
 800a95e:	2120      	movs	r1, #32
 800a960:	5099      	str	r1, [r3, r2]
 800a962:	2100      	movs	r1, #0
 800a964:	f241 0204 	movw	r2, #4100	; 0x1004
 800a968:	5099      	str	r1, [r3, r2]
 800a96a:	b003      	add	sp, #12
 800a96c:	e8bd 8ff0 	ldmia.w	sp!, {r4, r5, r6, r7, r8, r9, sl, fp, pc}
 800a970:	f8b4 900a 	ldrh.w	r9, [r4, #10]
 800a974:	4646      	mov	r6, r8
 800a976:	f04f 0a00 	mov.w	sl, #0
 800a97a:	eb06 0809 	add.w	r8, r6, r9
 800a97e:	1998      	adds	r0, r3, r6
 800a980:	6861      	ldr	r1, [r4, #4]
 800a982:	45d8      	cmp	r8, fp
 800a984:	d808      	bhi.n	800a998 <low_level_output+0x78>
 800a986:	464a      	mov	r2, r9
 800a988:	4451      	add	r1, sl
 800a98a:	9301      	str	r3, [sp, #4]
 800a98c:	444f      	add	r7, r9
 800a98e:	f000 ff08 	bl	800b7a2 <memcpy>
 800a992:	6824      	ldr	r4, [r4, #0]
 800a994:	9b01      	ldr	r3, [sp, #4]
 800a996:	e7cf      	b.n	800a938 <low_level_output+0x18>
 800a998:	ebab 0606 	sub.w	r6, fp, r6
 800a99c:	4451      	add	r1, sl
 800a99e:	4632      	mov	r2, r6
 800a9a0:	f000 feff 	bl	800b7a2 <memcpy>
 800a9a4:	68ed      	ldr	r5, [r5, #12]
 800a9a6:	682b      	ldr	r3, [r5, #0]
 800a9a8:	2b00      	cmp	r3, #0
 800a9aa:	dbcf      	blt.n	800a94c <low_level_output+0x2c>
 800a9ac:	44b2      	add	sl, r6
 800a9ae:	4437      	add	r7, r6
 800a9b0:	68ab      	ldr	r3, [r5, #8]
 800a9b2:	f2a8 59f4 	subw	r9, r8, #1524	; 0x5f4
 800a9b6:	2600      	movs	r6, #0
 800a9b8:	e7df      	b.n	800a97a <low_level_output+0x5a>
 800a9ba:	bf00      	nop
 800a9bc:	200090e8 	.word	0x200090e8

0800a9c0 <ethernetif_input>:
 800a9c0:	e92d 4ff7 	stmdb	sp!, {r0, r1, r2, r4, r5, r6, r7, r8, r9, sl, fp, lr}
 800a9c4:	4682      	mov	sl, r0
 800a9c6:	4c37      	ldr	r4, [pc, #220]	; (800aaa4 <ethernetif_input+0xe4>)
 800a9c8:	f04f 31ff 	mov.w	r1, #4294967295
 800a9cc:	6820      	ldr	r0, [r4, #0]
 800a9ce:	f7f9 faab 	bl	8003f28 <osSemaphoreWait>
 800a9d2:	2800      	cmp	r0, #0
 800a9d4:	d1f8      	bne.n	800a9c8 <ethernetif_input+0x8>
 800a9d6:	4c34      	ldr	r4, [pc, #208]	; (800aaa8 <ethernetif_input+0xe8>)
 800a9d8:	4620      	mov	r0, r4
 800a9da:	f7f6 f817 	bl	8000a0c <HAL_ETH_GetReceivedFrame_IT>
 800a9de:	4605      	mov	r5, r0
 800a9e0:	2800      	cmp	r0, #0
 800a9e2:	d1f0      	bne.n	800a9c6 <ethernetif_input+0x6>
 800a9e4:	6c23      	ldr	r3, [r4, #64]	; 0x40
 800a9e6:	8fa1      	ldrh	r1, [r4, #60]	; 0x3c
 800a9e8:	9301      	str	r3, [sp, #4]
 800a9ea:	bb01      	cbnz	r1, 800aa2e <ethernetif_input+0x6e>
 800a9ec:	2700      	movs	r7, #0
 800a9ee:	6b23      	ldr	r3, [r4, #48]	; 0x30
 800a9f0:	2200      	movs	r2, #0
 800a9f2:	6ba0      	ldr	r0, [r4, #56]	; 0x38
 800a9f4:	4282      	cmp	r2, r0
 800a9f6:	d14d      	bne.n	800aa94 <ethernetif_input+0xd4>
 800a9f8:	2300      	movs	r3, #0
 800a9fa:	f241 0214 	movw	r2, #4116	; 0x1014
 800a9fe:	63a3      	str	r3, [r4, #56]	; 0x38
 800aa00:	6823      	ldr	r3, [r4, #0]
 800aa02:	5899      	ldr	r1, [r3, r2]
 800aa04:	0609      	lsls	r1, r1, #24
 800aa06:	d505      	bpl.n	800aa14 <ethernetif_input+0x54>
 800aa08:	2180      	movs	r1, #128	; 0x80
 800aa0a:	5099      	str	r1, [r3, r2]
 800aa0c:	f241 0208 	movw	r2, #4104	; 0x1008
 800aa10:	2100      	movs	r1, #0
 800aa12:	5099      	str	r1, [r3, r2]
 800aa14:	2f00      	cmp	r7, #0
 800aa16:	d0d6      	beq.n	800a9c6 <ethernetif_input+0x6>
 800aa18:	f8da 3010 	ldr.w	r3, [sl, #16]
 800aa1c:	4651      	mov	r1, sl
 800aa1e:	4638      	mov	r0, r7
 800aa20:	4798      	blx	r3
 800aa22:	2800      	cmp	r0, #0
 800aa24:	d0d7      	beq.n	800a9d6 <ethernetif_input+0x16>
 800aa26:	4638      	mov	r0, r7
 800aa28:	f7fc fcf8 	bl	800741c <pbuf_free>
 800aa2c:	e7d3      	b.n	800a9d6 <ethernetif_input+0x16>
 800aa2e:	2203      	movs	r2, #3
 800aa30:	2004      	movs	r0, #4
 800aa32:	f7fc fd5d 	bl	80074f0 <pbuf_alloc>
 800aa36:	4607      	mov	r7, r0
 800aa38:	2800      	cmp	r0, #0
 800aa3a:	d0d7      	beq.n	800a9ec <ethernetif_input+0x2c>
 800aa3c:	f8d4 b030 	ldr.w	fp, [r4, #48]	; 0x30
 800aa40:	4680      	mov	r8, r0
 800aa42:	f8b8 200a 	ldrh.w	r2, [r8, #10]
 800aa46:	462e      	mov	r6, r5
 800aa48:	f04f 0900 	mov.w	r9, #0
 800aa4c:	f240 53f4 	movw	r3, #1524	; 0x5f4
 800aa50:	18b5      	adds	r5, r6, r2
 800aa52:	f8d8 0004 	ldr.w	r0, [r8, #4]
 800aa56:	429d      	cmp	r5, r3
 800aa58:	9b01      	ldr	r3, [sp, #4]
 800aa5a:	eb03 0106 	add.w	r1, r3, r6
 800aa5e:	d808      	bhi.n	800aa72 <ethernetif_input+0xb2>
 800aa60:	4448      	add	r0, r9
 800aa62:	f000 fe9e 	bl	800b7a2 <memcpy>
 800aa66:	f8d8 8000 	ldr.w	r8, [r8]
 800aa6a:	f1b8 0f00 	cmp.w	r8, #0
 800aa6e:	d1e8      	bne.n	800aa42 <ethernetif_input+0x82>
 800aa70:	e7bd      	b.n	800a9ee <ethernetif_input+0x2e>
 800aa72:	f5c6 66be 	rsb	r6, r6, #1520	; 0x5f0
 800aa76:	4448      	add	r0, r9
 800aa78:	3604      	adds	r6, #4
 800aa7a:	4632      	mov	r2, r6
 800aa7c:	44b1      	add	r9, r6
 800aa7e:	f000 fe90 	bl	800b7a2 <memcpy>
 800aa82:	f8db b00c 	ldr.w	fp, [fp, #12]
 800aa86:	f2a5 52f4 	subw	r2, r5, #1524	; 0x5f4
 800aa8a:	2600      	movs	r6, #0
 800aa8c:	f8db 3008 	ldr.w	r3, [fp, #8]
 800aa90:	9301      	str	r3, [sp, #4]
 800aa92:	e7db      	b.n	800aa4c <ethernetif_input+0x8c>
 800aa94:	6819      	ldr	r1, [r3, #0]
 800aa96:	3201      	adds	r2, #1
 800aa98:	f041 4100 	orr.w	r1, r1, #2147483648	; 0x80000000
 800aa9c:	6019      	str	r1, [r3, #0]
 800aa9e:	68db      	ldr	r3, [r3, #12]
 800aaa0:	e7a8      	b.n	800a9f4 <ethernetif_input+0x34>
 800aaa2:	bf00      	nop
 800aaa4:	200040d8 	.word	0x200040d8
 800aaa8:	200090e8 	.word	0x200090e8

0800aaac <HAL_ETH_MspInit>:
 800aaac:	6802      	ldr	r2, [r0, #0]
 800aaae:	4b2d      	ldr	r3, [pc, #180]	; (800ab64 <HAL_ETH_MspInit+0xb8>)
 800aab0:	429a      	cmp	r2, r3
 800aab2:	b5f0      	push	{r4, r5, r6, r7, lr}
 800aab4:	b089      	sub	sp, #36	; 0x24
 800aab6:	d152      	bne.n	800ab5e <HAL_ETH_MspInit+0xb2>
 800aab8:	f5a3 4390 	sub.w	r3, r3, #18432	; 0x4800
 800aabc:	2400      	movs	r4, #0
 800aabe:	2702      	movs	r7, #2
 800aac0:	2603      	movs	r6, #3
 800aac2:	6b1a      	ldr	r2, [r3, #48]	; 0x30
 800aac4:	250b      	movs	r5, #11
 800aac6:	a903      	add	r1, sp, #12
 800aac8:	4827      	ldr	r0, [pc, #156]	; (800ab68 <HAL_ETH_MspInit+0xbc>)
 800aaca:	f042 7200 	orr.w	r2, r2, #33554432	; 0x2000000
 800aace:	631a      	str	r2, [r3, #48]	; 0x30
 800aad0:	6b1a      	ldr	r2, [r3, #48]	; 0x30
 800aad2:	f002 7200 	and.w	r2, r2, #33554432	; 0x2000000
 800aad6:	9200      	str	r2, [sp, #0]
 800aad8:	9a00      	ldr	r2, [sp, #0]
 800aada:	6b1a      	ldr	r2, [r3, #48]	; 0x30
 800aadc:	f042 6280 	orr.w	r2, r2, #67108864	; 0x4000000
 800aae0:	631a      	str	r2, [r3, #48]	; 0x30
 800aae2:	6b1a      	ldr	r2, [r3, #48]	; 0x30
 800aae4:	f002 6280 	and.w	r2, r2, #67108864	; 0x4000000
 800aae8:	9201      	str	r2, [sp, #4]
 800aaea:	9a01      	ldr	r2, [sp, #4]
 800aaec:	6b1a      	ldr	r2, [r3, #48]	; 0x30
 800aaee:	f042 6200 	orr.w	r2, r2, #134217728	; 0x8000000
 800aaf2:	631a      	str	r2, [r3, #48]	; 0x30
 800aaf4:	6b1b      	ldr	r3, [r3, #48]	; 0x30
 800aaf6:	9704      	str	r7, [sp, #16]
 800aaf8:	f003 6300 	and.w	r3, r3, #134217728	; 0x8000000
 800aafc:	9405      	str	r4, [sp, #20]
 800aafe:	9606      	str	r6, [sp, #24]
 800ab00:	9302      	str	r3, [sp, #8]
 800ab02:	9b02      	ldr	r3, [sp, #8]
 800ab04:	2332      	movs	r3, #50	; 0x32
 800ab06:	9507      	str	r5, [sp, #28]
 800ab08:	9303      	str	r3, [sp, #12]
 800ab0a:	f7f6 f9a7 	bl	8000e5c <HAL_GPIO_Init>
 800ab0e:	2386      	movs	r3, #134	; 0x86
 800ab10:	a903      	add	r1, sp, #12
 800ab12:	4816      	ldr	r0, [pc, #88]	; (800ab6c <HAL_ETH_MspInit+0xc0>)
 800ab14:	9303      	str	r3, [sp, #12]
 800ab16:	9704      	str	r7, [sp, #16]
 800ab18:	9405      	str	r4, [sp, #20]
 800ab1a:	9606      	str	r6, [sp, #24]
 800ab1c:	9507      	str	r5, [sp, #28]
 800ab1e:	f7f6 f99d 	bl	8000e5c <HAL_GPIO_Init>
 800ab22:	f44f 5300 	mov.w	r3, #8192	; 0x2000
 800ab26:	a903      	add	r1, sp, #12
 800ab28:	4811      	ldr	r0, [pc, #68]	; (800ab70 <HAL_ETH_MspInit+0xc4>)
 800ab2a:	9303      	str	r3, [sp, #12]
 800ab2c:	9704      	str	r7, [sp, #16]
 800ab2e:	9405      	str	r4, [sp, #20]
 800ab30:	9606      	str	r6, [sp, #24]
 800ab32:	9507      	str	r5, [sp, #28]
 800ab34:	f7f6 f992 	bl	8000e5c <HAL_GPIO_Init>
 800ab38:	f44f 5320 	mov.w	r3, #10240	; 0x2800
 800ab3c:	a903      	add	r1, sp, #12
 800ab3e:	480d      	ldr	r0, [pc, #52]	; (800ab74 <HAL_ETH_MspInit+0xc8>)
 800ab40:	9303      	str	r3, [sp, #12]
 800ab42:	9704      	str	r7, [sp, #16]
 800ab44:	9405      	str	r4, [sp, #20]
 800ab46:	9606      	str	r6, [sp, #24]
 800ab48:	9507      	str	r5, [sp, #28]
 800ab4a:	f7f6 f987 	bl	8000e5c <HAL_GPIO_Init>
 800ab4e:	203d      	movs	r0, #61	; 0x3d
 800ab50:	4622      	mov	r2, r4
 800ab52:	2105      	movs	r1, #5
 800ab54:	f7f5 fd76 	bl	8000644 <HAL_NVIC_SetPriority>
 800ab58:	203d      	movs	r0, #61	; 0x3d
 800ab5a:	f7f5 fdab 	bl	80006b4 <HAL_NVIC_EnableIRQ>
 800ab5e:	b009      	add	sp, #36	; 0x24
 800ab60:	bdf0      	pop	{r4, r5, r6, r7, pc}
 800ab62:	bf00      	nop
 800ab64:	40028000 	.word	0x40028000
 800ab68:	40020800 	.word	0x40020800
 800ab6c:	40020000 	.word	0x40020000
 800ab70:	40020400 	.word	0x40020400
 800ab74:	40021800 	.word	0x40021800

0800ab78 <HAL_ETH_RxCpltCallback>:
 800ab78:	4b01      	ldr	r3, [pc, #4]	; (800ab80 <HAL_ETH_RxCpltCallback+0x8>)
 800ab7a:	6818      	ldr	r0, [r3, #0]
 800ab7c:	f7f9 b9fc 	b.w	8003f78 <osSemaphoreRelease>
 800ab80:	200040d8 	.word	0x200040d8

0800ab84 <ethernetif_init>:
 800ab84:	b5f0      	push	{r4, r5, r6, r7, lr}
 800ab86:	4604      	mov	r4, r0
 800ab88:	b08b      	sub	sp, #44	; 0x2c
 800ab8a:	b930      	cbnz	r0, 800ab9a <ethernetif_init+0x16>
 800ab8c:	4b46      	ldr	r3, [pc, #280]	; (800aca8 <ethernetif_init+0x124>)
 800ab8e:	f240 2247 	movw	r2, #583	; 0x247
 800ab92:	4946      	ldr	r1, [pc, #280]	; (800acac <ethernetif_init+0x128>)
 800ab94:	4846      	ldr	r0, [pc, #280]	; (800acb0 <ethernetif_init+0x12c>)
 800ab96:	f000 fec3 	bl	800b920 <iprintf>
 800ab9a:	2373      	movs	r3, #115	; 0x73
 800ab9c:	2180      	movs	r1, #128	; 0x80
 800ab9e:	4d45      	ldr	r5, [pc, #276]	; (800acb4 <ethernetif_init+0x130>)
 800aba0:	f884 302c 	strb.w	r3, [r4, #44]	; 0x2c
 800aba4:	2374      	movs	r3, #116	; 0x74
 800aba6:	4a44      	ldr	r2, [pc, #272]	; (800acb8 <ethernetif_init+0x134>)
 800aba8:	4628      	mov	r0, r5
 800abaa:	f884 302d 	strb.w	r3, [r4, #45]	; 0x2d
 800abae:	4b43      	ldr	r3, [pc, #268]	; (800acbc <ethernetif_init+0x138>)
 800abb0:	f88d 100d 	strb.w	r1, [sp, #13]
 800abb4:	21e1      	movs	r1, #225	; 0xe1
 800abb6:	6163      	str	r3, [r4, #20]
 800abb8:	4b41      	ldr	r3, [pc, #260]	; (800acc0 <ethernetif_init+0x13c>)
 800abba:	602a      	str	r2, [r5, #0]
 800abbc:	2201      	movs	r2, #1
 800abbe:	61a3      	str	r3, [r4, #24]
 800abc0:	2300      	movs	r3, #0
 800abc2:	f88d 100e 	strb.w	r1, [sp, #14]
 800abc6:	a903      	add	r1, sp, #12
 800abc8:	9301      	str	r3, [sp, #4]
 800abca:	822b      	strh	r3, [r5, #16]
 800abcc:	f88d 300c 	strb.w	r3, [sp, #12]
 800abd0:	f88d 300f 	strb.w	r3, [sp, #15]
 800abd4:	f88d 3010 	strb.w	r3, [sp, #16]
 800abd8:	f88d 3011 	strb.w	r3, [sp, #17]
 800abdc:	61eb      	str	r3, [r5, #28]
 800abde:	f44f 0300 	mov.w	r3, #8388608	; 0x800000
 800abe2:	606a      	str	r2, [r5, #4]
 800abe4:	6169      	str	r1, [r5, #20]
 800abe6:	61aa      	str	r2, [r5, #24]
 800abe8:	622b      	str	r3, [r5, #32]
 800abea:	f7f5 ffff 	bl	8000bec <HAL_ETH_Init>
 800abee:	b928      	cbnz	r0, 800abfc <ethernetif_init+0x78>
 800abf0:	f894 302b 	ldrb.w	r3, [r4, #43]	; 0x2b
 800abf4:	f043 0304 	orr.w	r3, r3, #4
 800abf8:	f884 302b 	strb.w	r3, [r4, #43]	; 0x2b
 800abfc:	2304      	movs	r3, #4
 800abfe:	4a31      	ldr	r2, [pc, #196]	; (800acc4 <ethernetif_init+0x140>)
 800ac00:	4931      	ldr	r1, [pc, #196]	; (800acc8 <ethernetif_init+0x144>)
 800ac02:	2700      	movs	r7, #0
 800ac04:	482b      	ldr	r0, [pc, #172]	; (800acb4 <ethernetif_init+0x130>)
 800ac06:	f7f5 fe15 	bl	8000834 <HAL_ETH_DMATxDescListInit>
 800ac0a:	2304      	movs	r3, #4
 800ac0c:	4a2f      	ldr	r2, [pc, #188]	; (800accc <ethernetif_init+0x148>)
 800ac0e:	4930      	ldr	r1, [pc, #192]	; (800acd0 <ethernetif_init+0x14c>)
 800ac10:	4828      	ldr	r0, [pc, #160]	; (800acb4 <ethernetif_init+0x130>)
 800ac12:	f7f5 fe4c 	bl	80008ae <HAL_ETH_DMARxDescListInit>
 800ac16:	2306      	movs	r3, #6
 800ac18:	a80a      	add	r0, sp, #40	; 0x28
 800ac1a:	2101      	movs	r1, #1
 800ac1c:	f884 3024 	strb.w	r3, [r4, #36]	; 0x24
 800ac20:	696b      	ldr	r3, [r5, #20]
 800ac22:	ad05      	add	r5, sp, #20
 800ac24:	4e2b      	ldr	r6, [pc, #172]	; (800acd4 <ethernetif_init+0x150>)
 800ac26:	781a      	ldrb	r2, [r3, #0]
 800ac28:	f884 2025 	strb.w	r2, [r4, #37]	; 0x25
 800ac2c:	785a      	ldrb	r2, [r3, #1]
 800ac2e:	f884 2026 	strb.w	r2, [r4, #38]	; 0x26
 800ac32:	789a      	ldrb	r2, [r3, #2]
 800ac34:	f884 2027 	strb.w	r2, [r4, #39]	; 0x27
 800ac38:	78da      	ldrb	r2, [r3, #3]
 800ac3a:	f840 7d20 	str.w	r7, [r0, #-32]!
 800ac3e:	f884 2028 	strb.w	r2, [r4, #40]	; 0x28
 800ac42:	791a      	ldrb	r2, [r3, #4]
 800ac44:	f884 2029 	strb.w	r2, [r4, #41]	; 0x29
 800ac48:	795b      	ldrb	r3, [r3, #5]
 800ac4a:	f884 302a 	strb.w	r3, [r4, #42]	; 0x2a
 800ac4e:	f240 53dc 	movw	r3, #1500	; 0x5dc
 800ac52:	8463      	strh	r3, [r4, #34]	; 0x22
 800ac54:	f894 302b 	ldrb.w	r3, [r4, #43]	; 0x2b
 800ac58:	f043 030a 	orr.w	r3, r3, #10
 800ac5c:	f884 302b 	strb.w	r3, [r4, #43]	; 0x2b
 800ac60:	f7f9 f94e 	bl	8003f00 <osSemaphoreCreate>
 800ac64:	4b1c      	ldr	r3, [pc, #112]	; (800acd8 <ethernetif_init+0x154>)
 800ac66:	6018      	str	r0, [r3, #0]
 800ac68:	ce0f      	ldmia	r6!, {r0, r1, r2, r3}
 800ac6a:	c50f      	stmia	r5!, {r0, r1, r2, r3}
 800ac6c:	6833      	ldr	r3, [r6, #0]
 800ac6e:	4621      	mov	r1, r4
 800ac70:	a805      	add	r0, sp, #20
 800ac72:	602b      	str	r3, [r5, #0]
 800ac74:	f7f9 f8f8 	bl	8003e68 <osThreadCreate>
 800ac78:	480e      	ldr	r0, [pc, #56]	; (800acb4 <ethernetif_init+0x130>)
 800ac7a:	f7f6 f8b1 	bl	8000de0 <HAL_ETH_Start>
 800ac7e:	aa01      	add	r2, sp, #4
 800ac80:	210b      	movs	r1, #11
 800ac82:	480c      	ldr	r0, [pc, #48]	; (800acb4 <ethernetif_init+0x130>)
 800ac84:	f7f5 ff41 	bl	8000b0a <HAL_ETH_ReadPHYRegister>
 800ac88:	9a01      	ldr	r2, [sp, #4]
 800ac8a:	210b      	movs	r1, #11
 800ac8c:	4809      	ldr	r0, [pc, #36]	; (800acb4 <ethernetif_init+0x130>)
 800ac8e:	f042 020b 	orr.w	r2, r2, #11
 800ac92:	9201      	str	r2, [sp, #4]
 800ac94:	f7f5 ff73 	bl	8000b7e <HAL_ETH_WritePHYRegister>
 800ac98:	aa01      	add	r2, sp, #4
 800ac9a:	210b      	movs	r1, #11
 800ac9c:	4805      	ldr	r0, [pc, #20]	; (800acb4 <ethernetif_init+0x130>)
 800ac9e:	f7f5 ff34 	bl	8000b0a <HAL_ETH_ReadPHYRegister>
 800aca2:	4638      	mov	r0, r7
 800aca4:	b00b      	add	sp, #44	; 0x2c
 800aca6:	bdf0      	pop	{r4, r5, r6, r7, pc}
 800aca8:	0800db48 	.word	0x0800db48
 800acac:	0800c80e 	.word	0x0800c80e
 800acb0:	0800c6ba 	.word	0x0800c6ba
 800acb4:	200090e8 	.word	0x200090e8
 800acb8:	40028000 	.word	0x40028000
 800acbc:	08005e99 	.word	0x08005e99
 800acc0:	0800a921 	.word	0x0800a921
 800acc4:	20009130 	.word	0x20009130
 800acc8:	20007818 	.word	0x20007818
 800accc:	20007898 	.word	0x20007898
 800acd0:	20009068 	.word	0x20009068
 800acd4:	0800c5d0 	.word	0x0800c5d0
 800acd8:	200040d8 	.word	0x200040d8

0800acdc <sys_now>:
 800acdc:	f7f5 bc88 	b.w	80005f0 <HAL_GetTick>

0800ace0 <MX_LWIP_Init>:
 800ace0:	b5f0      	push	{r4, r5, r6, r7, lr}
 800ace2:	2364      	movs	r3, #100	; 0x64
 800ace4:	4f2d      	ldr	r7, [pc, #180]	; (800ad9c <MX_LWIP_Init+0xbc>)
 800ace6:	4e2e      	ldr	r6, [pc, #184]	; (800ada0 <MX_LWIP_Init+0xc0>)
 800ace8:	2400      	movs	r4, #0
 800acea:	70fb      	strb	r3, [r7, #3]
 800acec:	23ff      	movs	r3, #255	; 0xff
 800acee:	4d2d      	ldr	r5, [pc, #180]	; (800ada4 <MX_LWIP_Init+0xc4>)
 800acf0:	20c0      	movs	r0, #192	; 0xc0
 800acf2:	21a8      	movs	r1, #168	; 0xa8
 800acf4:	2201      	movs	r2, #1
 800acf6:	7033      	strb	r3, [r6, #0]
 800acf8:	b085      	sub	sp, #20
 800acfa:	7073      	strb	r3, [r6, #1]
 800acfc:	70b3      	strb	r3, [r6, #2]
 800acfe:	2365      	movs	r3, #101	; 0x65
 800ad00:	7028      	strb	r0, [r5, #0]
 800ad02:	7069      	strb	r1, [r5, #1]
 800ad04:	7038      	strb	r0, [r7, #0]
 800ad06:	4620      	mov	r0, r4
 800ad08:	7079      	strb	r1, [r7, #1]
 800ad0a:	4621      	mov	r1, r4
 800ad0c:	70aa      	strb	r2, [r5, #2]
 800ad0e:	70eb      	strb	r3, [r5, #3]
 800ad10:	70ba      	strb	r2, [r7, #2]
 800ad12:	70f4      	strb	r4, [r6, #3]
 800ad14:	f7fa fd6a 	bl	80057ec <tcpip_init>
 800ad18:	787b      	ldrb	r3, [r7, #1]
 800ad1a:	783a      	ldrb	r2, [r7, #0]
 800ad1c:	041b      	lsls	r3, r3, #16
 800ad1e:	4922      	ldr	r1, [pc, #136]	; (800ada8 <MX_LWIP_Init+0xc8>)
 800ad20:	7868      	ldrb	r0, [r5, #1]
 800ad22:	ea43 6302 	orr.w	r3, r3, r2, lsl #24
 800ad26:	78fa      	ldrb	r2, [r7, #3]
 800ad28:	0400      	lsls	r0, r0, #16
 800ad2a:	4313      	orrs	r3, r2
 800ad2c:	78ba      	ldrb	r2, [r7, #2]
 800ad2e:	ea43 2302 	orr.w	r3, r3, r2, lsl #8
 800ad32:	7832      	ldrb	r2, [r6, #0]
 800ad34:	ba1b      	rev	r3, r3
 800ad36:	600b      	str	r3, [r1, #0]
 800ad38:	7873      	ldrb	r3, [r6, #1]
 800ad3a:	041b      	lsls	r3, r3, #16
 800ad3c:	ea43 6302 	orr.w	r3, r3, r2, lsl #24
 800ad40:	78f2      	ldrb	r2, [r6, #3]
 800ad42:	4313      	orrs	r3, r2
 800ad44:	78b2      	ldrb	r2, [r6, #2]
 800ad46:	ea43 2302 	orr.w	r3, r3, r2, lsl #8
 800ad4a:	4a18      	ldr	r2, [pc, #96]	; (800adac <MX_LWIP_Init+0xcc>)
 800ad4c:	ba1b      	rev	r3, r3
 800ad4e:	6013      	str	r3, [r2, #0]
 800ad50:	782b      	ldrb	r3, [r5, #0]
 800ad52:	ea40 6003 	orr.w	r0, r0, r3, lsl #24
 800ad56:	78eb      	ldrb	r3, [r5, #3]
 800ad58:	4318      	orrs	r0, r3
 800ad5a:	78ab      	ldrb	r3, [r5, #2]
 800ad5c:	4d14      	ldr	r5, [pc, #80]	; (800adb0 <MX_LWIP_Init+0xd0>)
 800ad5e:	ea40 2003 	orr.w	r0, r0, r3, lsl #8
 800ad62:	4b14      	ldr	r3, [pc, #80]	; (800adb4 <MX_LWIP_Init+0xd4>)
 800ad64:	ba00      	rev	r0, r0
 800ad66:	6018      	str	r0, [r3, #0]
 800ad68:	4813      	ldr	r0, [pc, #76]	; (800adb8 <MX_LWIP_Init+0xd8>)
 800ad6a:	9400      	str	r4, [sp, #0]
 800ad6c:	9002      	str	r0, [sp, #8]
 800ad6e:	4813      	ldr	r0, [pc, #76]	; (800adbc <MX_LWIP_Init+0xdc>)
 800ad70:	9001      	str	r0, [sp, #4]
 800ad72:	4628      	mov	r0, r5
 800ad74:	f7fc fa2e 	bl	80071d4 <netif_add>
 800ad78:	4628      	mov	r0, r5
 800ad7a:	f7fc fa69 	bl	8007250 <netif_set_default>
 800ad7e:	f895 302b 	ldrb.w	r3, [r5, #43]	; 0x2b
 800ad82:	4628      	mov	r0, r5
 800ad84:	075b      	lsls	r3, r3, #29
 800ad86:	d504      	bpl.n	800ad92 <MX_LWIP_Init+0xb2>
 800ad88:	b005      	add	sp, #20
 800ad8a:	e8bd 40f0 	ldmia.w	sp!, {r4, r5, r6, r7, lr}
 800ad8e:	f7fc ba65 	b.w	800725c <netif_set_up>
 800ad92:	b005      	add	sp, #20
 800ad94:	e8bd 40f0 	ldmia.w	sp!, {r4, r5, r6, r7, lr}
 800ad98:	f7fc ba6f 	b.w	800727a <netif_set_down>
 800ad9c:	2000a93c 	.word	0x2000a93c
 800ada0:	2000a938 	.word	0x2000a938
 800ada4:	2000a900 	.word	0x2000a900
 800ada8:	2000a934 	.word	0x2000a934
 800adac:	2000a940 	.word	0x2000a940
 800adb0:	2000a904 	.word	0x2000a904
 800adb4:	2000a944 	.word	0x2000a944
 800adb8:	08005771 	.word	0x08005771
 800adbc:	0800ab85 	.word	0x0800ab85

0800adc0 <StartDefaultTask>:
 800adc0:	b508      	push	{r3, lr}
 800adc2:	f000 fa41 	bl	800b248 <MX_USB_DEVICE_Init>
 800adc6:	f7ff ff8b 	bl	800ace0 <MX_LWIP_Init>
 800adca:	2001      	movs	r0, #1
 800adcc:	f7f9 f864 	bl	8003e98 <osDelay>
 800add0:	e7fb      	b.n	800adca <StartDefaultTask+0xa>
	...

0800add4 <SystemClock_Config>:
 800add4:	4b2c      	ldr	r3, [pc, #176]	; (800ae88 <SystemClock_Config+0xb4>)
 800add6:	6c1a      	ldr	r2, [r3, #64]	; 0x40
 800add8:	f042 5280 	orr.w	r2, r2, #268435456	; 0x10000000
 800addc:	b570      	push	{r4, r5, r6, lr}
 800adde:	641a      	str	r2, [r3, #64]	; 0x40
 800ade0:	b0b4      	sub	sp, #208	; 0xd0
 800ade2:	6c1b      	ldr	r3, [r3, #64]	; 0x40
 800ade4:	2402      	movs	r4, #2
 800ade6:	4a29      	ldr	r2, [pc, #164]	; (800ae8c <SystemClock_Config+0xb8>)
 800ade8:	2604      	movs	r6, #4
 800adea:	f003 5380 	and.w	r3, r3, #268435456	; 0x10000000
 800adee:	a807      	add	r0, sp, #28
 800adf0:	9300      	str	r3, [sp, #0]
 800adf2:	9b00      	ldr	r3, [sp, #0]
 800adf4:	6813      	ldr	r3, [r2, #0]
 800adf6:	f423 4340 	bic.w	r3, r3, #49152	; 0xc000
 800adfa:	f443 4380 	orr.w	r3, r3, #16384	; 0x4000
 800adfe:	6013      	str	r3, [r2, #0]
 800ae00:	6813      	ldr	r3, [r2, #0]
 800ae02:	940d      	str	r4, [sp, #52]	; 0x34
 800ae04:	f403 4340 	and.w	r3, r3, #49152	; 0xc000
 800ae08:	960f      	str	r6, [sp, #60]	; 0x3c
 800ae0a:	9411      	str	r4, [sp, #68]	; 0x44
 800ae0c:	9301      	str	r3, [sp, #4]
 800ae0e:	9b01      	ldr	r3, [sp, #4]
 800ae10:	2301      	movs	r3, #1
 800ae12:	9307      	str	r3, [sp, #28]
 800ae14:	f44f 23a0 	mov.w	r3, #327680	; 0x50000
 800ae18:	9308      	str	r3, [sp, #32]
 800ae1a:	f44f 0380 	mov.w	r3, #4194304	; 0x400000
 800ae1e:	930e      	str	r3, [sp, #56]	; 0x38
 800ae20:	2348      	movs	r3, #72	; 0x48
 800ae22:	9310      	str	r3, [sp, #64]	; 0x40
 800ae24:	2303      	movs	r3, #3
 800ae26:	9312      	str	r3, [sp, #72]	; 0x48
 800ae28:	f7f6 fe24 	bl	8001a74 <HAL_RCC_OscConfig>
 800ae2c:	b100      	cbz	r0, 800ae30 <SystemClock_Config+0x5c>
 800ae2e:	e7fe      	b.n	800ae2e <SystemClock_Config+0x5a>
 800ae30:	f44f 5380 	mov.w	r3, #4096	; 0x1000
 800ae34:	250f      	movs	r5, #15
 800ae36:	9004      	str	r0, [sp, #16]
 800ae38:	4621      	mov	r1, r4
 800ae3a:	a802      	add	r0, sp, #8
 800ae3c:	9502      	str	r5, [sp, #8]
 800ae3e:	9403      	str	r4, [sp, #12]
 800ae40:	9305      	str	r3, [sp, #20]
 800ae42:	9306      	str	r3, [sp, #24]
 800ae44:	f7f6 ffd8 	bl	8001df8 <HAL_RCC_ClockConfig>
 800ae48:	b100      	cbz	r0, 800ae4c <SystemClock_Config+0x78>
 800ae4a:	e7fe      	b.n	800ae4a <SystemClock_Config+0x76>
 800ae4c:	4b10      	ldr	r3, [pc, #64]	; (800ae90 <SystemClock_Config+0xbc>)
 800ae4e:	9026      	str	r0, [sp, #152]	; 0x98
 800ae50:	9032      	str	r0, [sp, #200]	; 0xc8
 800ae52:	a813      	add	r0, sp, #76	; 0x4c
 800ae54:	9313      	str	r3, [sp, #76]	; 0x4c
 800ae56:	f7f7 f8b1 	bl	8001fbc <HAL_RCCEx_PeriphCLKConfig>
 800ae5a:	4604      	mov	r4, r0
 800ae5c:	b100      	cbz	r0, 800ae60 <SystemClock_Config+0x8c>
 800ae5e:	e7fe      	b.n	800ae5e <SystemClock_Config+0x8a>
 800ae60:	f7f7 f868 	bl	8001f34 <HAL_RCC_GetHCLKFreq>
 800ae64:	f44f 737a 	mov.w	r3, #1000	; 0x3e8
 800ae68:	fbb0 f0f3 	udiv	r0, r0, r3
 800ae6c:	f7f5 fc2e 	bl	80006cc <HAL_SYSTICK_Config>
 800ae70:	4630      	mov	r0, r6
 800ae72:	f7f5 fc41 	bl	80006f8 <HAL_SYSTICK_CLKSourceConfig>
 800ae76:	4622      	mov	r2, r4
 800ae78:	4629      	mov	r1, r5
 800ae7a:	f04f 30ff 	mov.w	r0, #4294967295
 800ae7e:	f7f5 fbe1 	bl	8000644 <HAL_NVIC_SetPriority>
 800ae82:	b034      	add	sp, #208	; 0xd0
 800ae84:	bd70      	pop	{r4, r5, r6, pc}
 800ae86:	bf00      	nop
 800ae88:	40023800 	.word	0x40023800
 800ae8c:	40007000 	.word	0x40007000
 800ae90:	00200100 	.word	0x00200100

0800ae94 <main>:
 800ae94:	b500      	push	{lr}
 800ae96:	b08d      	sub	sp, #52	; 0x34
 800ae98:	2400      	movs	r4, #0
 800ae9a:	f7f5 fb91 	bl	80005c0 <HAL_Init>
 800ae9e:	2501      	movs	r5, #1
 800aea0:	f7ff ff98 	bl	800add4 <SystemClock_Config>
 800aea4:	4b44      	ldr	r3, [pc, #272]	; (800afb8 <main+0x124>)
 800aea6:	f244 0181 	movw	r1, #16513	; 0x4081
 800aeaa:	4844      	ldr	r0, [pc, #272]	; (800afbc <main+0x128>)
 800aeac:	6b1a      	ldr	r2, [r3, #48]	; 0x30
 800aeae:	f042 0204 	orr.w	r2, r2, #4
 800aeb2:	631a      	str	r2, [r3, #48]	; 0x30
 800aeb4:	6b1a      	ldr	r2, [r3, #48]	; 0x30
 800aeb6:	f002 0204 	and.w	r2, r2, #4
 800aeba:	9201      	str	r2, [sp, #4]
 800aebc:	9a01      	ldr	r2, [sp, #4]
 800aebe:	6b1a      	ldr	r2, [r3, #48]	; 0x30
 800aec0:	f042 0280 	orr.w	r2, r2, #128	; 0x80
 800aec4:	631a      	str	r2, [r3, #48]	; 0x30
 800aec6:	6b1a      	ldr	r2, [r3, #48]	; 0x30
 800aec8:	f002 0280 	and.w	r2, r2, #128	; 0x80
 800aecc:	9202      	str	r2, [sp, #8]
 800aece:	9a02      	ldr	r2, [sp, #8]
 800aed0:	6b1a      	ldr	r2, [r3, #48]	; 0x30
 800aed2:	f042 0201 	orr.w	r2, r2, #1
 800aed6:	631a      	str	r2, [r3, #48]	; 0x30
 800aed8:	6b1a      	ldr	r2, [r3, #48]	; 0x30
 800aeda:	f002 0201 	and.w	r2, r2, #1
 800aede:	9203      	str	r2, [sp, #12]
 800aee0:	9a03      	ldr	r2, [sp, #12]
 800aee2:	6b1a      	ldr	r2, [r3, #48]	; 0x30
 800aee4:	f042 0202 	orr.w	r2, r2, #2
 800aee8:	631a      	str	r2, [r3, #48]	; 0x30
 800aeea:	6b1a      	ldr	r2, [r3, #48]	; 0x30
 800aeec:	f002 0202 	and.w	r2, r2, #2
 800aef0:	9204      	str	r2, [sp, #16]
 800aef2:	9a04      	ldr	r2, [sp, #16]
 800aef4:	6b1a      	ldr	r2, [r3, #48]	; 0x30
 800aef6:	f042 0208 	orr.w	r2, r2, #8
 800aefa:	631a      	str	r2, [r3, #48]	; 0x30
 800aefc:	6b1a      	ldr	r2, [r3, #48]	; 0x30
 800aefe:	f002 0208 	and.w	r2, r2, #8
 800af02:	9205      	str	r2, [sp, #20]
 800af04:	9a05      	ldr	r2, [sp, #20]
 800af06:	6b1a      	ldr	r2, [r3, #48]	; 0x30
 800af08:	f042 0240 	orr.w	r2, r2, #64	; 0x40
 800af0c:	631a      	str	r2, [r3, #48]	; 0x30
 800af0e:	2200      	movs	r2, #0
 800af10:	6b1b      	ldr	r3, [r3, #48]	; 0x30
 800af12:	f003 0340 	and.w	r3, r3, #64	; 0x40
 800af16:	9306      	str	r3, [sp, #24]
 800af18:	9b06      	ldr	r3, [sp, #24]
 800af1a:	f7f6 f889 	bl	8001030 <HAL_GPIO_WritePin>
 800af1e:	2200      	movs	r2, #0
 800af20:	2140      	movs	r1, #64	; 0x40
 800af22:	4827      	ldr	r0, [pc, #156]	; (800afc0 <main+0x12c>)
 800af24:	f7f6 f884 	bl	8001030 <HAL_GPIO_WritePin>
 800af28:	f44f 5300 	mov.w	r3, #8192	; 0x2000
 800af2c:	a907      	add	r1, sp, #28
 800af2e:	4825      	ldr	r0, [pc, #148]	; (800afc4 <main+0x130>)
 800af30:	9307      	str	r3, [sp, #28]
 800af32:	4b25      	ldr	r3, [pc, #148]	; (800afc8 <main+0x134>)
 800af34:	9409      	str	r4, [sp, #36]	; 0x24
 800af36:	9308      	str	r3, [sp, #32]
 800af38:	f7f5 ff90 	bl	8000e5c <HAL_GPIO_Init>
 800af3c:	f244 0381 	movw	r3, #16513	; 0x4081
 800af40:	a907      	add	r1, sp, #28
 800af42:	481e      	ldr	r0, [pc, #120]	; (800afbc <main+0x128>)
 800af44:	9307      	str	r3, [sp, #28]
 800af46:	9508      	str	r5, [sp, #32]
 800af48:	9409      	str	r4, [sp, #36]	; 0x24
 800af4a:	940a      	str	r4, [sp, #40]	; 0x28
 800af4c:	f7f5 ff86 	bl	8000e5c <HAL_GPIO_Init>
 800af50:	2340      	movs	r3, #64	; 0x40
 800af52:	a907      	add	r1, sp, #28
 800af54:	481a      	ldr	r0, [pc, #104]	; (800afc0 <main+0x12c>)
 800af56:	9307      	str	r3, [sp, #28]
 800af58:	9508      	str	r5, [sp, #32]
 800af5a:	9409      	str	r4, [sp, #36]	; 0x24
 800af5c:	940a      	str	r4, [sp, #40]	; 0x28
 800af5e:	f7f5 ff7d 	bl	8000e5c <HAL_GPIO_Init>
 800af62:	2380      	movs	r3, #128	; 0x80
 800af64:	a907      	add	r1, sp, #28
 800af66:	4816      	ldr	r0, [pc, #88]	; (800afc0 <main+0x12c>)
 800af68:	9307      	str	r3, [sp, #28]
 800af6a:	9408      	str	r4, [sp, #32]
 800af6c:	9409      	str	r4, [sp, #36]	; 0x24
 800af6e:	f7f5 ff75 	bl	8000e5c <HAL_GPIO_Init>
 800af72:	4816      	ldr	r0, [pc, #88]	; (800afcc <main+0x138>)
 800af74:	f44f 33e1 	mov.w	r3, #115200	; 0x1c200
 800af78:	4a15      	ldr	r2, [pc, #84]	; (800afd0 <main+0x13c>)
 800af7a:	6084      	str	r4, [r0, #8]
 800af7c:	60c4      	str	r4, [r0, #12]
 800af7e:	6104      	str	r4, [r0, #16]
 800af80:	6184      	str	r4, [r0, #24]
 800af82:	61c4      	str	r4, [r0, #28]
 800af84:	6204      	str	r4, [r0, #32]
 800af86:	6244      	str	r4, [r0, #36]	; 0x24
 800af88:	e880 000c 	stmia.w	r0, {r2, r3}
 800af8c:	230c      	movs	r3, #12
 800af8e:	6143      	str	r3, [r0, #20]
 800af90:	f7f7 fdd3 	bl	8002b3a <HAL_UART_Init>
 800af94:	4606      	mov	r6, r0
 800af96:	b100      	cbz	r0, 800af9a <main+0x106>
 800af98:	e7fe      	b.n	800af98 <main+0x104>
 800af9a:	4d0e      	ldr	r5, [pc, #56]	; (800afd4 <main+0x140>)
 800af9c:	ac07      	add	r4, sp, #28
 800af9e:	cd0f      	ldmia	r5!, {r0, r1, r2, r3}
 800afa0:	c40f      	stmia	r4!, {r0, r1, r2, r3}
 800afa2:	682b      	ldr	r3, [r5, #0]
 800afa4:	4631      	mov	r1, r6
 800afa6:	a807      	add	r0, sp, #28
 800afa8:	6023      	str	r3, [r4, #0]
 800afaa:	f7f8 ff5d 	bl	8003e68 <osThreadCreate>
 800afae:	4b0a      	ldr	r3, [pc, #40]	; (800afd8 <main+0x144>)
 800afb0:	6018      	str	r0, [r3, #0]
 800afb2:	f7f8 ff4d 	bl	8003e50 <osKernelStart>
 800afb6:	e7fe      	b.n	800afb6 <main+0x122>
 800afb8:	40023800 	.word	0x40023800
 800afbc:	40020400 	.word	0x40020400
 800afc0:	40021800 	.word	0x40021800
 800afc4:	40020800 	.word	0x40020800
 800afc8:	10110000 	.word	0x10110000
 800afcc:	2000a94c 	.word	0x2000a94c
 800afd0:	40004800 	.word	0x40004800
 800afd4:	0800c5e4 	.word	0x0800c5e4
 800afd8:	2000a948 	.word	0x2000a948

0800afdc <HAL_TIM_PeriodElapsedCallback>:
 800afdc:	6802      	ldr	r2, [r0, #0]
 800afde:	4b03      	ldr	r3, [pc, #12]	; (800afec <HAL_TIM_PeriodElapsedCallback+0x10>)
 800afe0:	429a      	cmp	r2, r3
 800afe2:	d101      	bne.n	800afe8 <HAL_TIM_PeriodElapsedCallback+0xc>
 800afe4:	f7f5 baf8 	b.w	80005d8 <HAL_IncTick>
 800afe8:	4770      	bx	lr
 800afea:	bf00      	nop
 800afec:	40010000 	.word	0x40010000

0800aff0 <_Error_Handler>:
 800aff0:	e7fe      	b.n	800aff0 <_Error_Handler>
	...

0800aff4 <HAL_MspInit>:
 800aff4:	4b21      	ldr	r3, [pc, #132]	; (800b07c <HAL_MspInit+0x88>)
 800aff6:	b507      	push	{r0, r1, r2, lr}
 800aff8:	6c1a      	ldr	r2, [r3, #64]	; 0x40
 800affa:	2003      	movs	r0, #3
 800affc:	f042 5280 	orr.w	r2, r2, #268435456	; 0x10000000
 800b000:	641a      	str	r2, [r3, #64]	; 0x40
 800b002:	6c1a      	ldr	r2, [r3, #64]	; 0x40
 800b004:	f002 5280 	and.w	r2, r2, #268435456	; 0x10000000
 800b008:	9200      	str	r2, [sp, #0]
 800b00a:	9a00      	ldr	r2, [sp, #0]
 800b00c:	6c5a      	ldr	r2, [r3, #68]	; 0x44
 800b00e:	f442 4280 	orr.w	r2, r2, #16384	; 0x4000
 800b012:	645a      	str	r2, [r3, #68]	; 0x44
 800b014:	6c5b      	ldr	r3, [r3, #68]	; 0x44
 800b016:	f403 4380 	and.w	r3, r3, #16384	; 0x4000
 800b01a:	9301      	str	r3, [sp, #4]
 800b01c:	9b01      	ldr	r3, [sp, #4]
 800b01e:	f7f5 faff 	bl	8000620 <HAL_NVIC_SetPriorityGrouping>
 800b022:	2200      	movs	r2, #0
 800b024:	f06f 000b 	mvn.w	r0, #11
 800b028:	4611      	mov	r1, r2
 800b02a:	f7f5 fb0b 	bl	8000644 <HAL_NVIC_SetPriority>
 800b02e:	2200      	movs	r2, #0
 800b030:	f06f 000a 	mvn.w	r0, #10
 800b034:	4611      	mov	r1, r2
 800b036:	f7f5 fb05 	bl	8000644 <HAL_NVIC_SetPriority>
 800b03a:	2200      	movs	r2, #0
 800b03c:	f06f 0009 	mvn.w	r0, #9
 800b040:	4611      	mov	r1, r2
 800b042:	f7f5 faff 	bl	8000644 <HAL_NVIC_SetPriority>
 800b046:	2200      	movs	r2, #0
 800b048:	f06f 0004 	mvn.w	r0, #4
 800b04c:	4611      	mov	r1, r2
 800b04e:	f7f5 faf9 	bl	8000644 <HAL_NVIC_SetPriority>
 800b052:	2200      	movs	r2, #0
 800b054:	f06f 0003 	mvn.w	r0, #3
 800b058:	4611      	mov	r1, r2
 800b05a:	f7f5 faf3 	bl	8000644 <HAL_NVIC_SetPriority>
 800b05e:	2200      	movs	r2, #0
 800b060:	210f      	movs	r1, #15
 800b062:	f06f 0001 	mvn.w	r0, #1
 800b066:	f7f5 faed 	bl	8000644 <HAL_NVIC_SetPriority>
 800b06a:	2200      	movs	r2, #0
 800b06c:	210f      	movs	r1, #15
 800b06e:	f04f 30ff 	mov.w	r0, #4294967295
 800b072:	f7f5 fae7 	bl	8000644 <HAL_NVIC_SetPriority>
 800b076:	b003      	add	sp, #12
 800b078:	f85d fb04 	ldr.w	pc, [sp], #4
 800b07c:	40023800 	.word	0x40023800

0800b080 <HAL_UART_MspInit>:
 800b080:	b57f      	push	{r0, r1, r2, r3, r4, r5, r6, lr}
 800b082:	6802      	ldr	r2, [r0, #0]
 800b084:	4b0f      	ldr	r3, [pc, #60]	; (800b0c4 <HAL_UART_MspInit+0x44>)
 800b086:	429a      	cmp	r2, r3
 800b088:	d119      	bne.n	800b0be <HAL_UART_MspInit+0x3e>
 800b08a:	f503 33f8 	add.w	r3, r3, #126976	; 0x1f000
 800b08e:	a901      	add	r1, sp, #4
 800b090:	480d      	ldr	r0, [pc, #52]	; (800b0c8 <HAL_UART_MspInit+0x48>)
 800b092:	6c1a      	ldr	r2, [r3, #64]	; 0x40
 800b094:	f442 2280 	orr.w	r2, r2, #262144	; 0x40000
 800b098:	641a      	str	r2, [r3, #64]	; 0x40
 800b09a:	6c1b      	ldr	r3, [r3, #64]	; 0x40
 800b09c:	f403 2380 	and.w	r3, r3, #262144	; 0x40000
 800b0a0:	9300      	str	r3, [sp, #0]
 800b0a2:	9b00      	ldr	r3, [sp, #0]
 800b0a4:	f44f 7340 	mov.w	r3, #768	; 0x300
 800b0a8:	9301      	str	r3, [sp, #4]
 800b0aa:	2302      	movs	r3, #2
 800b0ac:	9302      	str	r3, [sp, #8]
 800b0ae:	2300      	movs	r3, #0
 800b0b0:	9303      	str	r3, [sp, #12]
 800b0b2:	2303      	movs	r3, #3
 800b0b4:	9304      	str	r3, [sp, #16]
 800b0b6:	2307      	movs	r3, #7
 800b0b8:	9305      	str	r3, [sp, #20]
 800b0ba:	f7f5 fecf 	bl	8000e5c <HAL_GPIO_Init>
 800b0be:	b007      	add	sp, #28
 800b0c0:	f85d fb04 	ldr.w	pc, [sp], #4
 800b0c4:	40004800 	.word	0x40004800
 800b0c8:	40020c00 	.word	0x40020c00

0800b0cc <HAL_InitTick>:
 800b0cc:	b510      	push	{r4, lr}
 800b0ce:	4601      	mov	r1, r0
 800b0d0:	b088      	sub	sp, #32
 800b0d2:	2200      	movs	r2, #0
 800b0d4:	2019      	movs	r0, #25
 800b0d6:	f7f5 fab5 	bl	8000644 <HAL_NVIC_SetPriority>
 800b0da:	2019      	movs	r0, #25
 800b0dc:	f7f5 faea 	bl	80006b4 <HAL_NVIC_EnableIRQ>
 800b0e0:	4b14      	ldr	r3, [pc, #80]	; (800b134 <HAL_InitTick+0x68>)
 800b0e2:	a901      	add	r1, sp, #4
 800b0e4:	a803      	add	r0, sp, #12
 800b0e6:	6c5a      	ldr	r2, [r3, #68]	; 0x44
 800b0e8:	4c13      	ldr	r4, [pc, #76]	; (800b138 <HAL_InitTick+0x6c>)
 800b0ea:	f042 0201 	orr.w	r2, r2, #1
 800b0ee:	645a      	str	r2, [r3, #68]	; 0x44
 800b0f0:	6c5b      	ldr	r3, [r3, #68]	; 0x44
 800b0f2:	f003 0301 	and.w	r3, r3, #1
 800b0f6:	9302      	str	r3, [sp, #8]
 800b0f8:	9b02      	ldr	r3, [sp, #8]
 800b0fa:	f7f6 ff41 	bl	8001f80 <HAL_RCC_GetClockConfig>
 800b0fe:	f7f6 ff2f 	bl	8001f60 <HAL_RCC_GetPCLK2Freq>
 800b102:	4b0e      	ldr	r3, [pc, #56]	; (800b13c <HAL_InitTick+0x70>)
 800b104:	0040      	lsls	r0, r0, #1
 800b106:	6023      	str	r3, [r4, #0]
 800b108:	f240 33e7 	movw	r3, #999	; 0x3e7
 800b10c:	60e3      	str	r3, [r4, #12]
 800b10e:	4b0c      	ldr	r3, [pc, #48]	; (800b140 <HAL_InitTick+0x74>)
 800b110:	fbb0 f0f3 	udiv	r0, r0, r3
 800b114:	3801      	subs	r0, #1
 800b116:	2300      	movs	r3, #0
 800b118:	6060      	str	r0, [r4, #4]
 800b11a:	4620      	mov	r0, r4
 800b11c:	6123      	str	r3, [r4, #16]
 800b11e:	60a3      	str	r3, [r4, #8]
 800b120:	f7f7 fafe 	bl	8002720 <HAL_TIM_Base_Init>
 800b124:	b920      	cbnz	r0, 800b130 <HAL_InitTick+0x64>
 800b126:	4620      	mov	r0, r4
 800b128:	f7f7 f9d3 	bl	80024d2 <HAL_TIM_Base_Start_IT>
 800b12c:	b008      	add	sp, #32
 800b12e:	bd10      	pop	{r4, pc}
 800b130:	2001      	movs	r0, #1
 800b132:	e7fb      	b.n	800b12c <HAL_InitTick+0x60>
 800b134:	40023800 	.word	0x40023800
 800b138:	2000a9bc 	.word	0x2000a9bc
 800b13c:	40010000 	.word	0x40010000
 800b140:	000f4240 	.word	0x000f4240

0800b144 <SysTick_Handler>:
 800b144:	f7f8 bfa4 	b.w	8004090 <osSystickHandler>

0800b148 <TIM1_UP_TIM10_IRQHandler>:
 800b148:	4801      	ldr	r0, [pc, #4]	; (800b150 <TIM1_UP_TIM10_IRQHandler+0x8>)
 800b14a:	f7f7 b9d1 	b.w	80024f0 <HAL_TIM_IRQHandler>
 800b14e:	bf00      	nop
 800b150:	2000a9bc 	.word	0x2000a9bc

0800b154 <ETH_IRQHandler>:
 800b154:	4801      	ldr	r0, [pc, #4]	; (800b15c <ETH_IRQHandler+0x8>)
 800b156:	f7f5 bca0 	b.w	8000a9a <HAL_ETH_IRQHandler>
 800b15a:	bf00      	nop
 800b15c:	200090e8 	.word	0x200090e8

0800b160 <OTG_FS_IRQHandler>:
 800b160:	4801      	ldr	r0, [pc, #4]	; (800b168 <OTG_FS_IRQHandler+0x8>)
 800b162:	f7f5 bff3 	b.w	800114c <HAL_PCD_IRQHandler>
 800b166:	bf00      	nop
 800b168:	2000bc98 	.word	0x2000bc98

0800b16c <_sbrk>:
 800b16c:	4b0b      	ldr	r3, [pc, #44]	; (800b19c <_sbrk+0x30>)
 800b16e:	4602      	mov	r2, r0
 800b170:	6819      	ldr	r1, [r3, #0]
 800b172:	b909      	cbnz	r1, 800b178 <_sbrk+0xc>
 800b174:	490a      	ldr	r1, [pc, #40]	; (800b1a0 <_sbrk+0x34>)
 800b176:	6019      	str	r1, [r3, #0]
 800b178:	490a      	ldr	r1, [pc, #40]	; (800b1a4 <_sbrk+0x38>)
 800b17a:	6818      	ldr	r0, [r3, #0]
 800b17c:	6809      	ldr	r1, [r1, #0]
 800b17e:	4402      	add	r2, r0
 800b180:	6809      	ldr	r1, [r1, #0]
 800b182:	f5a1 5100 	sub.w	r1, r1, #8192	; 0x2000
 800b186:	428a      	cmp	r2, r1
 800b188:	bf83      	ittte	hi
 800b18a:	220c      	movhi	r2, #12
 800b18c:	4b06      	ldrhi	r3, [pc, #24]	; (800b1a8 <_sbrk+0x3c>)
 800b18e:	f04f 30ff 	movhi.w	r0, #4294967295
 800b192:	601a      	strls	r2, [r3, #0]
 800b194:	bf88      	it	hi
 800b196:	601a      	strhi	r2, [r3, #0]
 800b198:	4770      	bx	lr
 800b19a:	bf00      	nop
 800b19c:	200040dc 	.word	0x200040dc
 800b1a0:	2000c298 	.word	0x2000c298
 800b1a4:	e000ed08 	.word	0xe000ed08
 800b1a8:	20007810 	.word	0x20007810

0800b1ac <_write>:
 800b1ac:	b570      	push	{r4, r5, r6, lr}
 800b1ae:	460e      	mov	r6, r1
 800b1b0:	4615      	mov	r5, r2
 800b1b2:	460c      	mov	r4, r1
 800b1b4:	1ba3      	subs	r3, r4, r6
 800b1b6:	429d      	cmp	r5, r3
 800b1b8:	dc01      	bgt.n	800b1be <_write+0x12>
 800b1ba:	4628      	mov	r0, r5
 800b1bc:	bd70      	pop	{r4, r5, r6, pc}
 800b1be:	f814 0b01 	ldrb.w	r0, [r4], #1
 800b1c2:	f3af 8000 	nop.w
 800b1c6:	e7f5      	b.n	800b1b4 <_write+0x8>

0800b1c8 <_close>:
 800b1c8:	f04f 30ff 	mov.w	r0, #4294967295
 800b1cc:	4770      	bx	lr

0800b1ce <_fstat>:
 800b1ce:	f44f 5300 	mov.w	r3, #8192	; 0x2000
 800b1d2:	2000      	movs	r0, #0
 800b1d4:	604b      	str	r3, [r1, #4]
 800b1d6:	4770      	bx	lr

0800b1d8 <_isatty>:
 800b1d8:	2001      	movs	r0, #1
 800b1da:	4770      	bx	lr

0800b1dc <_lseek>:
 800b1dc:	2000      	movs	r0, #0
 800b1de:	4770      	bx	lr

0800b1e0 <_read>:
 800b1e0:	b570      	push	{r4, r5, r6, lr}
 800b1e2:	460e      	mov	r6, r1
 800b1e4:	4615      	mov	r5, r2
 800b1e6:	460c      	mov	r4, r1
 800b1e8:	1ba3      	subs	r3, r4, r6
 800b1ea:	429d      	cmp	r5, r3
 800b1ec:	dc01      	bgt.n	800b1f2 <_read+0x12>
 800b1ee:	4628      	mov	r0, r5
 800b1f0:	bd70      	pop	{r4, r5, r6, pc}
 800b1f2:	f3af 8000 	nop.w
 800b1f6:	f804 0b01 	strb.w	r0, [r4], #1
 800b1fa:	e7f5      	b.n	800b1e8 <_read+0x8>

0800b1fc <SystemInit>:
 800b1fc:	490f      	ldr	r1, [pc, #60]	; (800b23c <SystemInit+0x40>)
 800b1fe:	2000      	movs	r0, #0
 800b200:	f8d1 3088 	ldr.w	r3, [r1, #136]	; 0x88
 800b204:	f443 0370 	orr.w	r3, r3, #15728640	; 0xf00000
 800b208:	f8c1 3088 	str.w	r3, [r1, #136]	; 0x88
 800b20c:	4b0c      	ldr	r3, [pc, #48]	; (800b240 <SystemInit+0x44>)
 800b20e:	681a      	ldr	r2, [r3, #0]
 800b210:	f042 0201 	orr.w	r2, r2, #1
 800b214:	601a      	str	r2, [r3, #0]
 800b216:	6098      	str	r0, [r3, #8]
 800b218:	681a      	ldr	r2, [r3, #0]
 800b21a:	f022 7284 	bic.w	r2, r2, #17301504	; 0x1080000
 800b21e:	f422 3280 	bic.w	r2, r2, #65536	; 0x10000
 800b222:	601a      	str	r2, [r3, #0]
 800b224:	4a07      	ldr	r2, [pc, #28]	; (800b244 <SystemInit+0x48>)
 800b226:	605a      	str	r2, [r3, #4]
 800b228:	681a      	ldr	r2, [r3, #0]
 800b22a:	f422 2280 	bic.w	r2, r2, #262144	; 0x40000
 800b22e:	601a      	str	r2, [r3, #0]
 800b230:	60d8      	str	r0, [r3, #12]
 800b232:	f04f 6300 	mov.w	r3, #134217728	; 0x8000000
 800b236:	608b      	str	r3, [r1, #8]
 800b238:	4770      	bx	lr
 800b23a:	bf00      	nop
 800b23c:	e000ed00 	.word	0xe000ed00
 800b240:	40023800 	.word	0x40023800
 800b244:	24003010 	.word	0x24003010

0800b248 <MX_USB_DEVICE_Init>:
 800b248:	b510      	push	{r4, lr}
 800b24a:	4c09      	ldr	r4, [pc, #36]	; (800b270 <MX_USB_DEVICE_Init+0x28>)
 800b24c:	2200      	movs	r2, #0
 800b24e:	4909      	ldr	r1, [pc, #36]	; (800b274 <MX_USB_DEVICE_Init+0x2c>)
 800b250:	4620      	mov	r0, r4
 800b252:	f7f8 fa5a 	bl	800370a <USBD_Init>
 800b256:	4908      	ldr	r1, [pc, #32]	; (800b278 <MX_USB_DEVICE_Init+0x30>)
 800b258:	4620      	mov	r0, r4
 800b25a:	f7f8 fa6b 	bl	8003734 <USBD_RegisterClass>
 800b25e:	4620      	mov	r0, r4
 800b260:	4906      	ldr	r1, [pc, #24]	; (800b27c <MX_USB_DEVICE_Init+0x34>)
 800b262:	f7f8 fa11 	bl	8003688 <USBD_CDC_RegisterInterface>
 800b266:	4620      	mov	r0, r4
 800b268:	e8bd 4010 	ldmia.w	sp!, {r4, lr}
 800b26c:	f7f8 ba69 	b.w	8003742 <USBD_Start>
 800b270:	2000a9fc 	.word	0x2000a9fc
 800b274:	20000130 	.word	0x20000130
 800b278:	20000004 	.word	0x20000004
 800b27c:	20000120 	.word	0x20000120

0800b280 <CDC_DeInit_FS>:
 800b280:	2000      	movs	r0, #0
 800b282:	4770      	bx	lr

0800b284 <CDC_Control_FS>:
 800b284:	2000      	movs	r0, #0
 800b286:	4770      	bx	lr

0800b288 <CDC_Init_FS>:
 800b288:	b510      	push	{r4, lr}
 800b28a:	4c06      	ldr	r4, [pc, #24]	; (800b2a4 <CDC_Init_FS+0x1c>)
 800b28c:	2200      	movs	r2, #0
 800b28e:	4906      	ldr	r1, [pc, #24]	; (800b2a8 <CDC_Init_FS+0x20>)
 800b290:	4620      	mov	r0, r4
 800b292:	f7f8 fa00 	bl	8003696 <USBD_CDC_SetTxBuffer>
 800b296:	4905      	ldr	r1, [pc, #20]	; (800b2ac <CDC_Init_FS+0x24>)
 800b298:	4620      	mov	r0, r4
 800b29a:	f7f8 fa04 	bl	80036a6 <USBD_CDC_SetRxBuffer>
 800b29e:	2000      	movs	r0, #0
 800b2a0:	bd10      	pop	{r4, pc}
 800b2a2:	bf00      	nop
 800b2a4:	2000a9fc 	.word	0x2000a9fc
 800b2a8:	2000b498 	.word	0x2000b498
 800b2ac:	2000ac98 	.word	0x2000ac98

0800b2b0 <CDC_Transmit_FS>:
 800b2b0:	b510      	push	{r4, lr}
 800b2b2:	4c09      	ldr	r4, [pc, #36]	; (800b2d8 <CDC_Transmit_FS+0x28>)
 800b2b4:	460a      	mov	r2, r1
 800b2b6:	f8d4 3290 	ldr.w	r3, [r4, #656]	; 0x290
 800b2ba:	f8d3 3214 	ldr.w	r3, [r3, #532]	; 0x214
 800b2be:	b943      	cbnz	r3, 800b2d2 <CDC_Transmit_FS+0x22>
 800b2c0:	4601      	mov	r1, r0
 800b2c2:	4620      	mov	r0, r4
 800b2c4:	f7f8 f9e7 	bl	8003696 <USBD_CDC_SetTxBuffer>
 800b2c8:	4620      	mov	r0, r4
 800b2ca:	e8bd 4010 	ldmia.w	sp!, {r4, lr}
 800b2ce:	f7f8 b9f0 	b.w	80036b2 <USBD_CDC_TransmitPacket>
 800b2d2:	2001      	movs	r0, #1
 800b2d4:	bd10      	pop	{r4, pc}
 800b2d6:	bf00      	nop
 800b2d8:	2000a9fc 	.word	0x2000a9fc

0800b2dc <CDC_Receive_FS>:
 800b2dc:	b570      	push	{r4, r5, r6, lr}
 800b2de:	4c08      	ldr	r4, [pc, #32]	; (800b300 <CDC_Receive_FS+0x24>)
 800b2e0:	4605      	mov	r5, r0
 800b2e2:	460e      	mov	r6, r1
 800b2e4:	4601      	mov	r1, r0
 800b2e6:	4620      	mov	r0, r4
 800b2e8:	f7f8 f9dd 	bl	80036a6 <USBD_CDC_SetRxBuffer>
 800b2ec:	8831      	ldrh	r1, [r6, #0]
 800b2ee:	4628      	mov	r0, r5
 800b2f0:	f7ff ffde 	bl	800b2b0 <CDC_Transmit_FS>
 800b2f4:	4620      	mov	r0, r4
 800b2f6:	f7f8 f9f5 	bl	80036e4 <USBD_CDC_ReceivePacket>
 800b2fa:	2000      	movs	r0, #0
 800b2fc:	bd70      	pop	{r4, r5, r6, pc}
 800b2fe:	bf00      	nop
 800b300:	2000a9fc 	.word	0x2000a9fc

0800b304 <HAL_PCD_MspInit>:
 800b304:	6803      	ldr	r3, [r0, #0]
 800b306:	f1b3 4fa0 	cmp.w	r3, #1342177280	; 0x50000000
 800b30a:	b510      	push	{r4, lr}
 800b30c:	b088      	sub	sp, #32
 800b30e:	d132      	bne.n	800b376 <HAL_PCD_MspInit+0x72>
 800b310:	f44f 53e8 	mov.w	r3, #7424	; 0x1d00
 800b314:	2400      	movs	r4, #0
 800b316:	a903      	add	r1, sp, #12
 800b318:	4818      	ldr	r0, [pc, #96]	; (800b37c <HAL_PCD_MspInit+0x78>)
 800b31a:	9303      	str	r3, [sp, #12]
 800b31c:	2302      	movs	r3, #2
 800b31e:	9405      	str	r4, [sp, #20]
 800b320:	9304      	str	r3, [sp, #16]
 800b322:	2303      	movs	r3, #3
 800b324:	9306      	str	r3, [sp, #24]
 800b326:	230a      	movs	r3, #10
 800b328:	9307      	str	r3, [sp, #28]
 800b32a:	f7f5 fd97 	bl	8000e5c <HAL_GPIO_Init>
 800b32e:	f44f 7300 	mov.w	r3, #512	; 0x200
 800b332:	a903      	add	r1, sp, #12
 800b334:	4811      	ldr	r0, [pc, #68]	; (800b37c <HAL_PCD_MspInit+0x78>)
 800b336:	9303      	str	r3, [sp, #12]
 800b338:	9404      	str	r4, [sp, #16]
 800b33a:	9405      	str	r4, [sp, #20]
 800b33c:	f7f5 fd8e 	bl	8000e5c <HAL_GPIO_Init>
 800b340:	4b0f      	ldr	r3, [pc, #60]	; (800b380 <HAL_PCD_MspInit+0x7c>)
 800b342:	2043      	movs	r0, #67	; 0x43
 800b344:	2105      	movs	r1, #5
 800b346:	6b5a      	ldr	r2, [r3, #52]	; 0x34
 800b348:	f042 0280 	orr.w	r2, r2, #128	; 0x80
 800b34c:	635a      	str	r2, [r3, #52]	; 0x34
 800b34e:	6b5a      	ldr	r2, [r3, #52]	; 0x34
 800b350:	f002 0280 	and.w	r2, r2, #128	; 0x80
 800b354:	9201      	str	r2, [sp, #4]
 800b356:	9a01      	ldr	r2, [sp, #4]
 800b358:	6c5a      	ldr	r2, [r3, #68]	; 0x44
 800b35a:	f442 4280 	orr.w	r2, r2, #16384	; 0x4000
 800b35e:	645a      	str	r2, [r3, #68]	; 0x44
 800b360:	4622      	mov	r2, r4
 800b362:	6c5b      	ldr	r3, [r3, #68]	; 0x44
 800b364:	f403 4380 	and.w	r3, r3, #16384	; 0x4000
 800b368:	9302      	str	r3, [sp, #8]
 800b36a:	9b02      	ldr	r3, [sp, #8]
 800b36c:	f7f5 f96a 	bl	8000644 <HAL_NVIC_SetPriority>
 800b370:	2043      	movs	r0, #67	; 0x43
 800b372:	f7f5 f99f 	bl	80006b4 <HAL_NVIC_EnableIRQ>
 800b376:	b008      	add	sp, #32
 800b378:	bd10      	pop	{r4, pc}
 800b37a:	bf00      	nop
 800b37c:	40020000 	.word	0x40020000
 800b380:	40023800 	.word	0x40023800

0800b384 <HAL_PCD_SetupStageCallback>:
 800b384:	f500 7170 	add.w	r1, r0, #960	; 0x3c0
 800b388:	f8d0 03fc 	ldr.w	r0, [r0, #1020]	; 0x3fc
 800b38c:	f7f8 b9f0 	b.w	8003770 <USBD_LL_SetupStage>

0800b390 <HAL_PCD_DataOutStageCallback>:
 800b390:	231c      	movs	r3, #28
 800b392:	fb03 0301 	mla	r3, r3, r1, r0
 800b396:	f8d0 03fc 	ldr.w	r0, [r0, #1020]	; 0x3fc
 800b39a:	f8d3 2208 	ldr.w	r2, [r3, #520]	; 0x208
 800b39e:	f7f8 ba14 	b.w	80037ca <USBD_LL_DataOutStage>

0800b3a2 <HAL_PCD_DataInStageCallback>:
 800b3a2:	231c      	movs	r3, #28
 800b3a4:	fb03 0301 	mla	r3, r3, r1, r0
 800b3a8:	f8d0 03fc 	ldr.w	r0, [r0, #1020]	; 0x3fc
 800b3ac:	6c9a      	ldr	r2, [r3, #72]	; 0x48
 800b3ae:	f7f8 ba44 	b.w	800383a <USBD_LL_DataInStage>

0800b3b2 <HAL_PCD_SOFCallback>:
 800b3b2:	f8d0 03fc 	ldr.w	r0, [r0, #1020]	; 0x3fc
 800b3b6:	f7f8 bad4 	b.w	8003962 <USBD_LL_SOF>

0800b3ba <HAL_PCD_ResetCallback>:
 800b3ba:	68c1      	ldr	r1, [r0, #12]
 800b3bc:	3100      	adds	r1, #0
 800b3be:	b510      	push	{r4, lr}
 800b3c0:	4604      	mov	r4, r0
 800b3c2:	bf18      	it	ne
 800b3c4:	2101      	movne	r1, #1
 800b3c6:	f8d0 03fc 	ldr.w	r0, [r0, #1020]	; 0x3fc
 800b3ca:	f7f8 fab8 	bl	800393e <USBD_LL_SetSpeed>
 800b3ce:	f8d4 03fc 	ldr.w	r0, [r4, #1020]	; 0x3fc
 800b3d2:	e8bd 4010 	ldmia.w	sp!, {r4, lr}
 800b3d6:	f7f8 ba8b 	b.w	80038f0 <USBD_LL_Reset>
	...

0800b3dc <HAL_PCD_SuspendCallback>:
 800b3dc:	b510      	push	{r4, lr}
 800b3de:	4604      	mov	r4, r0
 800b3e0:	f8d0 03fc 	ldr.w	r0, [r0, #1020]	; 0x3fc
 800b3e4:	f7f8 faae 	bl	8003944 <USBD_LL_Suspend>
 800b3e8:	6822      	ldr	r2, [r4, #0]
 800b3ea:	f8d2 3e00 	ldr.w	r3, [r2, #3584]	; 0xe00
 800b3ee:	f043 0301 	orr.w	r3, r3, #1
 800b3f2:	f8c2 3e00 	str.w	r3, [r2, #3584]	; 0xe00
 800b3f6:	6a23      	ldr	r3, [r4, #32]
 800b3f8:	b123      	cbz	r3, 800b404 <HAL_PCD_SuspendCallback+0x28>
 800b3fa:	4a03      	ldr	r2, [pc, #12]	; (800b408 <HAL_PCD_SuspendCallback+0x2c>)
 800b3fc:	6913      	ldr	r3, [r2, #16]
 800b3fe:	f043 0306 	orr.w	r3, r3, #6
 800b402:	6113      	str	r3, [r2, #16]
 800b404:	bd10      	pop	{r4, pc}
 800b406:	bf00      	nop
 800b408:	e000ed00 	.word	0xe000ed00

0800b40c <HAL_PCD_ResumeCallback>:
 800b40c:	f8d0 03fc 	ldr.w	r0, [r0, #1020]	; 0x3fc
 800b410:	f7f8 baa1 	b.w	8003956 <USBD_LL_Resume>

0800b414 <HAL_PCD_ISOOUTIncompleteCallback>:
 800b414:	f8d0 03fc 	ldr.w	r0, [r0, #1020]	; 0x3fc
 800b418:	f7f8 bab1 	b.w	800397e <USBD_LL_IsoOUTIncomplete>

0800b41c <HAL_PCD_ISOINIncompleteCallback>:
 800b41c:	f8d0 03fc 	ldr.w	r0, [r0, #1020]	; 0x3fc
 800b420:	f7f8 baab 	b.w	800397a <USBD_LL_IsoINIncomplete>

0800b424 <HAL_PCD_ConnectCallback>:
 800b424:	f8d0 03fc 	ldr.w	r0, [r0, #1020]	; 0x3fc
 800b428:	f7f8 baab 	b.w	8003982 <USBD_LL_DevConnected>

0800b42c <HAL_PCD_DisconnectCallback>:
 800b42c:	f8d0 03fc 	ldr.w	r0, [r0, #1020]	; 0x3fc
 800b430:	f7f8 baa9 	b.w	8003986 <USBD_LL_DevDisconnected>

0800b434 <USBD_LL_Init>:
 800b434:	b508      	push	{r3, lr}
 800b436:	7802      	ldrb	r2, [r0, #0]
 800b438:	bb52      	cbnz	r2, 800b490 <USBD_LL_Init+0x5c>
 800b43a:	4b16      	ldr	r3, [pc, #88]	; (800b494 <USBD_LL_Init+0x60>)
 800b43c:	2106      	movs	r1, #6
 800b43e:	f8c3 03fc 	str.w	r0, [r3, #1020]	; 0x3fc
 800b442:	f8c0 3298 	str.w	r3, [r0, #664]	; 0x298
 800b446:	f04f 40a0 	mov.w	r0, #1342177280	; 0x50000000
 800b44a:	611a      	str	r2, [r3, #16]
 800b44c:	615a      	str	r2, [r3, #20]
 800b44e:	61da      	str	r2, [r3, #28]
 800b450:	621a      	str	r2, [r3, #32]
 800b452:	625a      	str	r2, [r3, #36]	; 0x24
 800b454:	62da      	str	r2, [r3, #44]	; 0x2c
 800b456:	631a      	str	r2, [r3, #48]	; 0x30
 800b458:	e883 0003 	stmia.w	r3, {r0, r1}
 800b45c:	2102      	movs	r1, #2
 800b45e:	4618      	mov	r0, r3
 800b460:	60d9      	str	r1, [r3, #12]
 800b462:	6199      	str	r1, [r3, #24]
 800b464:	f7f5 fde9 	bl	800103a <HAL_PCD_Init>
 800b468:	b120      	cbz	r0, 800b474 <USBD_LL_Init+0x40>
 800b46a:	f44f 71ab 	mov.w	r1, #342	; 0x156
 800b46e:	480a      	ldr	r0, [pc, #40]	; (800b498 <USBD_LL_Init+0x64>)
 800b470:	f7ff fdbe 	bl	800aff0 <_Error_Handler>
 800b474:	2180      	movs	r1, #128	; 0x80
 800b476:	4807      	ldr	r0, [pc, #28]	; (800b494 <USBD_LL_Init+0x60>)
 800b478:	f7f6 fae5 	bl	8001a46 <HAL_PCDEx_SetRxFiFo>
 800b47c:	2240      	movs	r2, #64	; 0x40
 800b47e:	2100      	movs	r1, #0
 800b480:	4804      	ldr	r0, [pc, #16]	; (800b494 <USBD_LL_Init+0x60>)
 800b482:	f7f6 fabf 	bl	8001a04 <HAL_PCDEx_SetTxFiFo>
 800b486:	2280      	movs	r2, #128	; 0x80
 800b488:	2101      	movs	r1, #1
 800b48a:	4802      	ldr	r0, [pc, #8]	; (800b494 <USBD_LL_Init+0x60>)
 800b48c:	f7f6 faba 	bl	8001a04 <HAL_PCDEx_SetTxFiFo>
 800b490:	2000      	movs	r0, #0
 800b492:	bd08      	pop	{r3, pc}
 800b494:	2000bc98 	.word	0x2000bc98
 800b498:	0800db8a 	.word	0x0800db8a

0800b49c <USBD_LL_Start>:
 800b49c:	b508      	push	{r3, lr}
 800b49e:	f8d0 0298 	ldr.w	r0, [r0, #664]	; 0x298
 800b4a2:	f7f5 fe3e 	bl	8001122 <HAL_PCD_Start>
 800b4a6:	2803      	cmp	r0, #3
 800b4a8:	bf9a      	itte	ls
 800b4aa:	4b02      	ldrls	r3, [pc, #8]	; (800b4b4 <USBD_LL_Start+0x18>)
 800b4ac:	5c18      	ldrbls	r0, [r3, r0]
 800b4ae:	2002      	movhi	r0, #2
 800b4b0:	bd08      	pop	{r3, pc}
 800b4b2:	bf00      	nop
 800b4b4:	0800db86 	.word	0x0800db86

0800b4b8 <USBD_LL_OpenEP>:
 800b4b8:	b510      	push	{r4, lr}
 800b4ba:	461c      	mov	r4, r3
 800b4bc:	f8d0 0298 	ldr.w	r0, [r0, #664]	; 0x298
 800b4c0:	4613      	mov	r3, r2
 800b4c2:	4622      	mov	r2, r4
 800b4c4:	f7f6 f988 	bl	80017d8 <HAL_PCD_EP_Open>
 800b4c8:	2803      	cmp	r0, #3
 800b4ca:	bf9a      	itte	ls
 800b4cc:	4b01      	ldrls	r3, [pc, #4]	; (800b4d4 <USBD_LL_OpenEP+0x1c>)
 800b4ce:	5c18      	ldrbls	r0, [r3, r0]
 800b4d0:	2002      	movhi	r0, #2
 800b4d2:	bd10      	pop	{r4, pc}
 800b4d4:	0800db86 	.word	0x0800db86

0800b4d8 <USBD_LL_CloseEP>:
 800b4d8:	b508      	push	{r3, lr}
 800b4da:	f8d0 0298 	ldr.w	r0, [r0, #664]	; 0x298
 800b4de:	f7f6 f9af 	bl	8001840 <HAL_PCD_EP_Close>
 800b4e2:	2803      	cmp	r0, #3
 800b4e4:	bf9a      	itte	ls
 800b4e6:	4b02      	ldrls	r3, [pc, #8]	; (800b4f0 <USBD_LL_CloseEP+0x18>)
 800b4e8:	5c18      	ldrbls	r0, [r3, r0]
 800b4ea:	2002      	movhi	r0, #2
 800b4ec:	bd08      	pop	{r3, pc}
 800b4ee:	bf00      	nop
 800b4f0:	0800db86 	.word	0x0800db86

0800b4f4 <USBD_LL_StallEP>:
 800b4f4:	b508      	push	{r3, lr}
 800b4f6:	f8d0 0298 	ldr.w	r0, [r0, #664]	; 0x298
 800b4fa:	f7f6 fa18 	bl	800192e <HAL_PCD_EP_SetStall>
 800b4fe:	2803      	cmp	r0, #3
 800b500:	bf9a      	itte	ls
 800b502:	4b02      	ldrls	r3, [pc, #8]	; (800b50c <USBD_LL_StallEP+0x18>)
 800b504:	5c18      	ldrbls	r0, [r3, r0]
 800b506:	2002      	movhi	r0, #2
 800b508:	bd08      	pop	{r3, pc}
 800b50a:	bf00      	nop
 800b50c:	0800db86 	.word	0x0800db86

0800b510 <USBD_LL_ClearStallEP>:
 800b510:	b508      	push	{r3, lr}
 800b512:	f8d0 0298 	ldr.w	r0, [r0, #664]	; 0x298
 800b516:	f7f6 fa44 	bl	80019a2 <HAL_PCD_EP_ClrStall>
 800b51a:	2803      	cmp	r0, #3
 800b51c:	bf9a      	itte	ls
 800b51e:	4b02      	ldrls	r3, [pc, #8]	; (800b528 <USBD_LL_ClearStallEP+0x18>)
 800b520:	5c18      	ldrbls	r0, [r3, r0]
 800b522:	2002      	movhi	r0, #2
 800b524:	bd08      	pop	{r3, pc}
 800b526:	bf00      	nop
 800b528:	0800db86 	.word	0x0800db86

0800b52c <USBD_LL_IsStallEP>:
 800b52c:	f011 0f80 	tst.w	r1, #128	; 0x80
 800b530:	f8d0 3298 	ldr.w	r3, [r0, #664]	; 0x298
 800b534:	f04f 021c 	mov.w	r2, #28
 800b538:	bf17      	itett	ne
 800b53a:	f001 017f 	andne.w	r1, r1, #127	; 0x7f
 800b53e:	fb02 3101 	mlaeq	r1, r2, r1, r3
 800b542:	fb02 3101 	mlane	r1, r2, r1, r3
 800b546:	f891 003e 	ldrbne.w	r0, [r1, #62]	; 0x3e
 800b54a:	bf08      	it	eq
 800b54c:	f891 01fe 	ldrbeq.w	r0, [r1, #510]	; 0x1fe
 800b550:	4770      	bx	lr
	...

0800b554 <USBD_LL_SetUSBAddress>:
 800b554:	b508      	push	{r3, lr}
 800b556:	f8d0 0298 	ldr.w	r0, [r0, #664]	; 0x298
 800b55a:	f7f6 f929 	bl	80017b0 <HAL_PCD_SetAddress>
 800b55e:	2803      	cmp	r0, #3
 800b560:	bf9a      	itte	ls
 800b562:	4b02      	ldrls	r3, [pc, #8]	; (800b56c <USBD_LL_SetUSBAddress+0x18>)
 800b564:	5c18      	ldrbls	r0, [r3, r0]
 800b566:	2002      	movhi	r0, #2
 800b568:	bd08      	pop	{r3, pc}
 800b56a:	bf00      	nop
 800b56c:	0800db86 	.word	0x0800db86

0800b570 <USBD_LL_Transmit>:
 800b570:	b508      	push	{r3, lr}
 800b572:	f8d0 0298 	ldr.w	r0, [r0, #664]	; 0x298
 800b576:	f7f6 f9ba 	bl	80018ee <HAL_PCD_EP_Transmit>
 800b57a:	2803      	cmp	r0, #3
 800b57c:	bf9a      	itte	ls
 800b57e:	4b02      	ldrls	r3, [pc, #8]	; (800b588 <USBD_LL_Transmit+0x18>)
 800b580:	5c18      	ldrbls	r0, [r3, r0]
 800b582:	2002      	movhi	r0, #2
 800b584:	bd08      	pop	{r3, pc}
 800b586:	bf00      	nop
 800b588:	0800db86 	.word	0x0800db86

0800b58c <USBD_LL_PrepareReceive>:
 800b58c:	b508      	push	{r3, lr}
 800b58e:	f8d0 0298 	ldr.w	r0, [r0, #664]	; 0x298
 800b592:	f7f6 f980 	bl	8001896 <HAL_PCD_EP_Receive>
 800b596:	2803      	cmp	r0, #3
 800b598:	bf9a      	itte	ls
 800b59a:	4b02      	ldrls	r3, [pc, #8]	; (800b5a4 <USBD_LL_PrepareReceive+0x18>)
 800b59c:	5c18      	ldrbls	r0, [r3, r0]
 800b59e:	2002      	movhi	r0, #2
 800b5a0:	bd08      	pop	{r3, pc}
 800b5a2:	bf00      	nop
 800b5a4:	0800db86 	.word	0x0800db86

0800b5a8 <USBD_LL_GetRxDataSize>:
 800b5a8:	b508      	push	{r3, lr}
 800b5aa:	f8d0 0298 	ldr.w	r0, [r0, #664]	; 0x298
 800b5ae:	f7f6 f996 	bl	80018de <HAL_PCD_EP_GetRxCount>
 800b5b2:	bd08      	pop	{r3, pc}

0800b5b4 <HAL_PCDEx_LPM_Callback>:
 800b5b4:	b510      	push	{r4, lr}
 800b5b6:	4604      	mov	r4, r0
 800b5b8:	b111      	cbz	r1, 800b5c0 <HAL_PCDEx_LPM_Callback+0xc>
 800b5ba:	2901      	cmp	r1, #1
 800b5bc:	d016      	beq.n	800b5ec <HAL_PCDEx_LPM_Callback+0x38>
 800b5be:	bd10      	pop	{r4, pc}
 800b5c0:	6a03      	ldr	r3, [r0, #32]
 800b5c2:	b133      	cbz	r3, 800b5d2 <HAL_PCDEx_LPM_Callback+0x1e>
 800b5c4:	f7ff fc06 	bl	800add4 <SystemClock_Config>
 800b5c8:	4a12      	ldr	r2, [pc, #72]	; (800b614 <HAL_PCDEx_LPM_Callback+0x60>)
 800b5ca:	6913      	ldr	r3, [r2, #16]
 800b5cc:	f023 0306 	bic.w	r3, r3, #6
 800b5d0:	6113      	str	r3, [r2, #16]
 800b5d2:	6822      	ldr	r2, [r4, #0]
 800b5d4:	f8d4 03fc 	ldr.w	r0, [r4, #1020]	; 0x3fc
 800b5d8:	f8d2 3e00 	ldr.w	r3, [r2, #3584]	; 0xe00
 800b5dc:	f023 0301 	bic.w	r3, r3, #1
 800b5e0:	e8bd 4010 	ldmia.w	sp!, {r4, lr}
 800b5e4:	f8c2 3e00 	str.w	r3, [r2, #3584]	; 0xe00
 800b5e8:	f7f8 b9b5 	b.w	8003956 <USBD_LL_Resume>
 800b5ec:	6802      	ldr	r2, [r0, #0]
 800b5ee:	f8d0 03fc 	ldr.w	r0, [r0, #1020]	; 0x3fc
 800b5f2:	f8d2 3e00 	ldr.w	r3, [r2, #3584]	; 0xe00
 800b5f6:	f043 0301 	orr.w	r3, r3, #1
 800b5fa:	f8c2 3e00 	str.w	r3, [r2, #3584]	; 0xe00
 800b5fe:	f7f8 f9a1 	bl	8003944 <USBD_LL_Suspend>
 800b602:	6a23      	ldr	r3, [r4, #32]
 800b604:	b123      	cbz	r3, 800b610 <HAL_PCDEx_LPM_Callback+0x5c>
 800b606:	4a03      	ldr	r2, [pc, #12]	; (800b614 <HAL_PCDEx_LPM_Callback+0x60>)
 800b608:	6913      	ldr	r3, [r2, #16]
 800b60a:	f043 0306 	orr.w	r3, r3, #6
 800b60e:	6113      	str	r3, [r2, #16]
 800b610:	bd10      	pop	{r4, pc}
 800b612:	bf00      	nop
 800b614:	e000ed00 	.word	0xe000ed00

0800b618 <USBD_FS_DeviceDescriptor>:
 800b618:	2312      	movs	r3, #18
 800b61a:	4801      	ldr	r0, [pc, #4]	; (800b620 <USBD_FS_DeviceDescriptor+0x8>)
 800b61c:	800b      	strh	r3, [r1, #0]
 800b61e:	4770      	bx	lr
 800b620:	2000015c 	.word	0x2000015c

0800b624 <USBD_FS_LangIDStrDescriptor>:
 800b624:	2304      	movs	r3, #4
 800b626:	4801      	ldr	r0, [pc, #4]	; (800b62c <USBD_FS_LangIDStrDescriptor+0x8>)
 800b628:	800b      	strh	r3, [r1, #0]
 800b62a:	4770      	bx	lr
 800b62c:	20000170 	.word	0x20000170

0800b630 <USBD_FS_USR_BOSDescriptor>:
 800b630:	230c      	movs	r3, #12
 800b632:	4801      	ldr	r0, [pc, #4]	; (800b638 <USBD_FS_USR_BOSDescriptor+0x8>)
 800b634:	800b      	strh	r3, [r1, #0]
 800b636:	4770      	bx	lr
 800b638:	20000150 	.word	0x20000150

0800b63c <USBD_FS_ManufacturerStrDescriptor>:
 800b63c:	b510      	push	{r4, lr}
 800b63e:	4c04      	ldr	r4, [pc, #16]	; (800b650 <USBD_FS_ManufacturerStrDescriptor+0x14>)
 800b640:	460a      	mov	r2, r1
 800b642:	4804      	ldr	r0, [pc, #16]	; (800b654 <USBD_FS_ManufacturerStrDescriptor+0x18>)
 800b644:	4621      	mov	r1, r4
 800b646:	f7f8 fba5 	bl	8003d94 <USBD_GetString>
 800b64a:	4620      	mov	r0, r4
 800b64c:	bd10      	pop	{r4, pc}
 800b64e:	bf00      	nop
 800b650:	2000c098 	.word	0x2000c098
 800b654:	0800dbb6 	.word	0x0800dbb6

0800b658 <USBD_FS_ProductStrDescriptor>:
 800b658:	b510      	push	{r4, lr}
 800b65a:	4c04      	ldr	r4, [pc, #16]	; (800b66c <USBD_FS_ProductStrDescriptor+0x14>)
 800b65c:	460a      	mov	r2, r1
 800b65e:	4804      	ldr	r0, [pc, #16]	; (800b670 <USBD_FS_ProductStrDescriptor+0x18>)
 800b660:	4621      	mov	r1, r4
 800b662:	f7f8 fb97 	bl	8003d94 <USBD_GetString>
 800b666:	4620      	mov	r0, r4
 800b668:	bd10      	pop	{r4, pc}
 800b66a:	bf00      	nop
 800b66c:	2000c098 	.word	0x2000c098
 800b670:	0800dbc9 	.word	0x0800dbc9

0800b674 <USBD_FS_SerialStrDescriptor>:
 800b674:	b510      	push	{r4, lr}
 800b676:	4c04      	ldr	r4, [pc, #16]	; (800b688 <USBD_FS_SerialStrDescriptor+0x14>)
 800b678:	460a      	mov	r2, r1
 800b67a:	4804      	ldr	r0, [pc, #16]	; (800b68c <USBD_FS_SerialStrDescriptor+0x18>)
 800b67c:	4621      	mov	r1, r4
 800b67e:	f7f8 fb89 	bl	8003d94 <USBD_GetString>
 800b682:	4620      	mov	r0, r4
 800b684:	bd10      	pop	{r4, pc}
 800b686:	bf00      	nop
 800b688:	2000c098 	.word	0x2000c098
 800b68c:	0800dbdf 	.word	0x0800dbdf

0800b690 <USBD_FS_ConfigStrDescriptor>:
 800b690:	b510      	push	{r4, lr}
 800b692:	4c04      	ldr	r4, [pc, #16]	; (800b6a4 <USBD_FS_ConfigStrDescriptor+0x14>)
 800b694:	460a      	mov	r2, r1
 800b696:	4804      	ldr	r0, [pc, #16]	; (800b6a8 <USBD_FS_ConfigStrDescriptor+0x18>)
 800b698:	4621      	mov	r1, r4
 800b69a:	f7f8 fb7b 	bl	8003d94 <USBD_GetString>
 800b69e:	4620      	mov	r0, r4
 800b6a0:	bd10      	pop	{r4, pc}
 800b6a2:	bf00      	nop
 800b6a4:	2000c098 	.word	0x2000c098
 800b6a8:	0800db9d 	.word	0x0800db9d

0800b6ac <USBD_FS_InterfaceStrDescriptor>:
 800b6ac:	b510      	push	{r4, lr}
 800b6ae:	4c04      	ldr	r4, [pc, #16]	; (800b6c0 <USBD_FS_InterfaceStrDescriptor+0x14>)
 800b6b0:	460a      	mov	r2, r1
 800b6b2:	4804      	ldr	r0, [pc, #16]	; (800b6c4 <USBD_FS_InterfaceStrDescriptor+0x18>)
 800b6b4:	4621      	mov	r1, r4
 800b6b6:	f7f8 fb6d 	bl	8003d94 <USBD_GetString>
 800b6ba:	4620      	mov	r0, r4
 800b6bc:	bd10      	pop	{r4, pc}
 800b6be:	bf00      	nop
 800b6c0:	2000c098 	.word	0x2000c098
 800b6c4:	0800dba8 	.word	0x0800dba8

0800b6c8 <Reset_Handler>:
 800b6c8:	f8df d034 	ldr.w	sp, [pc, #52]	; 800b700 <LoopFillZerobss+0x14>
 800b6cc:	2100      	movs	r1, #0
 800b6ce:	e003      	b.n	800b6d8 <LoopCopyDataInit>

0800b6d0 <CopyDataInit>:
 800b6d0:	4b0c      	ldr	r3, [pc, #48]	; (800b704 <LoopFillZerobss+0x18>)
 800b6d2:	585b      	ldr	r3, [r3, r1]
 800b6d4:	5043      	str	r3, [r0, r1]
 800b6d6:	3104      	adds	r1, #4

0800b6d8 <LoopCopyDataInit>:
 800b6d8:	480b      	ldr	r0, [pc, #44]	; (800b708 <LoopFillZerobss+0x1c>)
 800b6da:	4b0c      	ldr	r3, [pc, #48]	; (800b70c <LoopFillZerobss+0x20>)
 800b6dc:	1842      	adds	r2, r0, r1
 800b6de:	429a      	cmp	r2, r3
 800b6e0:	d3f6      	bcc.n	800b6d0 <CopyDataInit>
 800b6e2:	4a0b      	ldr	r2, [pc, #44]	; (800b710 <LoopFillZerobss+0x24>)
 800b6e4:	e002      	b.n	800b6ec <LoopFillZerobss>

0800b6e6 <FillZerobss>:
 800b6e6:	2300      	movs	r3, #0
 800b6e8:	f842 3b04 	str.w	r3, [r2], #4

0800b6ec <LoopFillZerobss>:
 800b6ec:	4b09      	ldr	r3, [pc, #36]	; (800b714 <LoopFillZerobss+0x28>)
 800b6ee:	429a      	cmp	r2, r3
 800b6f0:	d3f9      	bcc.n	800b6e6 <FillZerobss>
 800b6f2:	f7ff fd83 	bl	800b1fc <SystemInit>
 800b6f6:	f000 f811 	bl	800b71c <__libc_init_array>
 800b6fa:	f7ff fbcb 	bl	800ae94 <main>
 800b6fe:	4770      	bx	lr
 800b700:	20050000 	.word	0x20050000
 800b704:	0800dc94 	.word	0x0800dc94
 800b708:	20000000 	.word	0x20000000
 800b70c:	200001d8 	.word	0x200001d8
 800b710:	200001d8 	.word	0x200001d8
 800b714:	2000c298 	.word	0x2000c298

0800b718 <ADC_IRQHandler>:
 800b718:	e7fe      	b.n	800b718 <ADC_IRQHandler>
	...

0800b71c <__libc_init_array>:
 800b71c:	b570      	push	{r4, r5, r6, lr}
 800b71e:	4e0d      	ldr	r6, [pc, #52]	; (800b754 <__libc_init_array+0x38>)
 800b720:	4c0d      	ldr	r4, [pc, #52]	; (800b758 <__libc_init_array+0x3c>)
 800b722:	1ba4      	subs	r4, r4, r6
 800b724:	10a4      	asrs	r4, r4, #2
 800b726:	2500      	movs	r5, #0
 800b728:	42a5      	cmp	r5, r4
 800b72a:	d109      	bne.n	800b740 <__libc_init_array+0x24>
 800b72c:	4e0b      	ldr	r6, [pc, #44]	; (800b75c <__libc_init_array+0x40>)
 800b72e:	4c0c      	ldr	r4, [pc, #48]	; (800b760 <__libc_init_array+0x44>)
 800b730:	f000 ff42 	bl	800c5b8 <_init>
 800b734:	1ba4      	subs	r4, r4, r6
 800b736:	10a4      	asrs	r4, r4, #2
 800b738:	2500      	movs	r5, #0
 800b73a:	42a5      	cmp	r5, r4
 800b73c:	d105      	bne.n	800b74a <__libc_init_array+0x2e>
 800b73e:	bd70      	pop	{r4, r5, r6, pc}
 800b740:	f856 3025 	ldr.w	r3, [r6, r5, lsl #2]
 800b744:	4798      	blx	r3
 800b746:	3501      	adds	r5, #1
 800b748:	e7ee      	b.n	800b728 <__libc_init_array+0xc>
 800b74a:	f856 3025 	ldr.w	r3, [r6, r5, lsl #2]
 800b74e:	4798      	blx	r3
 800b750:	3501      	adds	r5, #1
 800b752:	e7f2      	b.n	800b73a <__libc_init_array+0x1e>
 800b754:	0800dc8c 	.word	0x0800dc8c
 800b758:	0800dc8c 	.word	0x0800dc8c
 800b75c:	0800dc8c 	.word	0x0800dc8c
 800b760:	0800dc90 	.word	0x0800dc90

0800b764 <malloc>:
 800b764:	4b02      	ldr	r3, [pc, #8]	; (800b770 <malloc+0xc>)
 800b766:	4601      	mov	r1, r0
 800b768:	6818      	ldr	r0, [r3, #0]
 800b76a:	f000 b87b 	b.w	800b864 <_malloc_r>
 800b76e:	bf00      	nop
 800b770:	20000174 	.word	0x20000174

0800b774 <free>:
 800b774:	4b02      	ldr	r3, [pc, #8]	; (800b780 <free+0xc>)
 800b776:	4601      	mov	r1, r0
 800b778:	6818      	ldr	r0, [r3, #0]
 800b77a:	f000 b825 	b.w	800b7c8 <_free_r>
 800b77e:	bf00      	nop
 800b780:	20000174 	.word	0x20000174

0800b784 <memcmp>:
 800b784:	b510      	push	{r4, lr}
 800b786:	3901      	subs	r1, #1
 800b788:	4402      	add	r2, r0
 800b78a:	4290      	cmp	r0, r2
 800b78c:	d101      	bne.n	800b792 <memcmp+0xe>
 800b78e:	2000      	movs	r0, #0
 800b790:	bd10      	pop	{r4, pc}
 800b792:	f810 3b01 	ldrb.w	r3, [r0], #1
 800b796:	f811 4f01 	ldrb.w	r4, [r1, #1]!
 800b79a:	42a3      	cmp	r3, r4
 800b79c:	d0f5      	beq.n	800b78a <memcmp+0x6>
 800b79e:	1b18      	subs	r0, r3, r4
 800b7a0:	bd10      	pop	{r4, pc}

0800b7a2 <memcpy>:
 800b7a2:	b510      	push	{r4, lr}
 800b7a4:	1e43      	subs	r3, r0, #1
 800b7a6:	440a      	add	r2, r1
 800b7a8:	4291      	cmp	r1, r2
 800b7aa:	d100      	bne.n	800b7ae <memcpy+0xc>
 800b7ac:	bd10      	pop	{r4, pc}
 800b7ae:	f811 4b01 	ldrb.w	r4, [r1], #1
 800b7b2:	f803 4f01 	strb.w	r4, [r3, #1]!
 800b7b6:	e7f7      	b.n	800b7a8 <memcpy+0x6>

0800b7b8 <memset>:
 800b7b8:	4402      	add	r2, r0
 800b7ba:	4603      	mov	r3, r0
 800b7bc:	4293      	cmp	r3, r2
 800b7be:	d100      	bne.n	800b7c2 <memset+0xa>
 800b7c0:	4770      	bx	lr
 800b7c2:	f803 1b01 	strb.w	r1, [r3], #1
 800b7c6:	e7f9      	b.n	800b7bc <memset+0x4>

0800b7c8 <_free_r>:
 800b7c8:	b538      	push	{r3, r4, r5, lr}
 800b7ca:	4605      	mov	r5, r0
 800b7cc:	2900      	cmp	r1, #0
 800b7ce:	d045      	beq.n	800b85c <_free_r+0x94>
 800b7d0:	f851 3c04 	ldr.w	r3, [r1, #-4]
 800b7d4:	1f0c      	subs	r4, r1, #4
 800b7d6:	2b00      	cmp	r3, #0
 800b7d8:	bfb8      	it	lt
 800b7da:	18e4      	addlt	r4, r4, r3
 800b7dc:	f000 f992 	bl	800bb04 <__malloc_lock>
 800b7e0:	4a1f      	ldr	r2, [pc, #124]	; (800b860 <_free_r+0x98>)
 800b7e2:	6813      	ldr	r3, [r2, #0]
 800b7e4:	4610      	mov	r0, r2
 800b7e6:	b933      	cbnz	r3, 800b7f6 <_free_r+0x2e>
 800b7e8:	6063      	str	r3, [r4, #4]
 800b7ea:	6014      	str	r4, [r2, #0]
 800b7ec:	4628      	mov	r0, r5
 800b7ee:	e8bd 4038 	ldmia.w	sp!, {r3, r4, r5, lr}
 800b7f2:	f000 b988 	b.w	800bb06 <__malloc_unlock>
 800b7f6:	42a3      	cmp	r3, r4
 800b7f8:	d90c      	bls.n	800b814 <_free_r+0x4c>
 800b7fa:	6821      	ldr	r1, [r4, #0]
 800b7fc:	1862      	adds	r2, r4, r1
 800b7fe:	4293      	cmp	r3, r2
 800b800:	bf04      	itt	eq
 800b802:	681a      	ldreq	r2, [r3, #0]
 800b804:	685b      	ldreq	r3, [r3, #4]
 800b806:	6063      	str	r3, [r4, #4]
 800b808:	bf04      	itt	eq
 800b80a:	1852      	addeq	r2, r2, r1
 800b80c:	6022      	streq	r2, [r4, #0]
 800b80e:	6004      	str	r4, [r0, #0]
 800b810:	e7ec      	b.n	800b7ec <_free_r+0x24>
 800b812:	4613      	mov	r3, r2
 800b814:	685a      	ldr	r2, [r3, #4]
 800b816:	b10a      	cbz	r2, 800b81c <_free_r+0x54>
 800b818:	42a2      	cmp	r2, r4
 800b81a:	d9fa      	bls.n	800b812 <_free_r+0x4a>
 800b81c:	6819      	ldr	r1, [r3, #0]
 800b81e:	1858      	adds	r0, r3, r1
 800b820:	42a0      	cmp	r0, r4
 800b822:	d10b      	bne.n	800b83c <_free_r+0x74>
 800b824:	6820      	ldr	r0, [r4, #0]
 800b826:	4401      	add	r1, r0
 800b828:	1858      	adds	r0, r3, r1
 800b82a:	4282      	cmp	r2, r0
 800b82c:	6019      	str	r1, [r3, #0]
 800b82e:	d1dd      	bne.n	800b7ec <_free_r+0x24>
 800b830:	6810      	ldr	r0, [r2, #0]
 800b832:	6852      	ldr	r2, [r2, #4]
 800b834:	605a      	str	r2, [r3, #4]
 800b836:	4401      	add	r1, r0
 800b838:	6019      	str	r1, [r3, #0]
 800b83a:	e7d7      	b.n	800b7ec <_free_r+0x24>
 800b83c:	d902      	bls.n	800b844 <_free_r+0x7c>
 800b83e:	230c      	movs	r3, #12
 800b840:	602b      	str	r3, [r5, #0]
 800b842:	e7d3      	b.n	800b7ec <_free_r+0x24>
 800b844:	6820      	ldr	r0, [r4, #0]
 800b846:	1821      	adds	r1, r4, r0
 800b848:	428a      	cmp	r2, r1
 800b84a:	bf04      	itt	eq
 800b84c:	6811      	ldreq	r1, [r2, #0]
 800b84e:	6852      	ldreq	r2, [r2, #4]
 800b850:	6062      	str	r2, [r4, #4]
 800b852:	bf04      	itt	eq
 800b854:	1809      	addeq	r1, r1, r0
 800b856:	6021      	streq	r1, [r4, #0]
 800b858:	605c      	str	r4, [r3, #4]
 800b85a:	e7c7      	b.n	800b7ec <_free_r+0x24>
 800b85c:	bd38      	pop	{r3, r4, r5, pc}
 800b85e:	bf00      	nop
 800b860:	200040e0 	.word	0x200040e0

0800b864 <_malloc_r>:
 800b864:	b570      	push	{r4, r5, r6, lr}
 800b866:	1ccd      	adds	r5, r1, #3
 800b868:	f025 0503 	bic.w	r5, r5, #3
 800b86c:	3508      	adds	r5, #8
 800b86e:	2d0c      	cmp	r5, #12
 800b870:	bf38      	it	cc
 800b872:	250c      	movcc	r5, #12
 800b874:	2d00      	cmp	r5, #0
 800b876:	4606      	mov	r6, r0
 800b878:	db01      	blt.n	800b87e <_malloc_r+0x1a>
 800b87a:	42a9      	cmp	r1, r5
 800b87c:	d903      	bls.n	800b886 <_malloc_r+0x22>
 800b87e:	230c      	movs	r3, #12
 800b880:	6033      	str	r3, [r6, #0]
 800b882:	2000      	movs	r0, #0
 800b884:	bd70      	pop	{r4, r5, r6, pc}
 800b886:	f000 f93d 	bl	800bb04 <__malloc_lock>
 800b88a:	4a23      	ldr	r2, [pc, #140]	; (800b918 <_malloc_r+0xb4>)
 800b88c:	6814      	ldr	r4, [r2, #0]
 800b88e:	4621      	mov	r1, r4
 800b890:	b991      	cbnz	r1, 800b8b8 <_malloc_r+0x54>
 800b892:	4c22      	ldr	r4, [pc, #136]	; (800b91c <_malloc_r+0xb8>)
 800b894:	6823      	ldr	r3, [r4, #0]
 800b896:	b91b      	cbnz	r3, 800b8a0 <_malloc_r+0x3c>
 800b898:	4630      	mov	r0, r6
 800b89a:	f000 f859 	bl	800b950 <_sbrk_r>
 800b89e:	6020      	str	r0, [r4, #0]
 800b8a0:	4629      	mov	r1, r5
 800b8a2:	4630      	mov	r0, r6
 800b8a4:	f000 f854 	bl	800b950 <_sbrk_r>
 800b8a8:	1c43      	adds	r3, r0, #1
 800b8aa:	d126      	bne.n	800b8fa <_malloc_r+0x96>
 800b8ac:	230c      	movs	r3, #12
 800b8ae:	6033      	str	r3, [r6, #0]
 800b8b0:	4630      	mov	r0, r6
 800b8b2:	f000 f928 	bl	800bb06 <__malloc_unlock>
 800b8b6:	e7e4      	b.n	800b882 <_malloc_r+0x1e>
 800b8b8:	680b      	ldr	r3, [r1, #0]
 800b8ba:	1b5b      	subs	r3, r3, r5
 800b8bc:	d41a      	bmi.n	800b8f4 <_malloc_r+0x90>
 800b8be:	2b0b      	cmp	r3, #11
 800b8c0:	d90f      	bls.n	800b8e2 <_malloc_r+0x7e>
 800b8c2:	600b      	str	r3, [r1, #0]
 800b8c4:	50cd      	str	r5, [r1, r3]
 800b8c6:	18cc      	adds	r4, r1, r3
 800b8c8:	4630      	mov	r0, r6
 800b8ca:	f000 f91c 	bl	800bb06 <__malloc_unlock>
 800b8ce:	f104 000b 	add.w	r0, r4, #11
 800b8d2:	1d23      	adds	r3, r4, #4
 800b8d4:	f020 0007 	bic.w	r0, r0, #7
 800b8d8:	1ac3      	subs	r3, r0, r3
 800b8da:	d01b      	beq.n	800b914 <_malloc_r+0xb0>
 800b8dc:	425a      	negs	r2, r3
 800b8de:	50e2      	str	r2, [r4, r3]
 800b8e0:	bd70      	pop	{r4, r5, r6, pc}
 800b8e2:	428c      	cmp	r4, r1
 800b8e4:	bf0d      	iteet	eq
 800b8e6:	6863      	ldreq	r3, [r4, #4]
 800b8e8:	684b      	ldrne	r3, [r1, #4]
 800b8ea:	6063      	strne	r3, [r4, #4]
 800b8ec:	6013      	streq	r3, [r2, #0]
 800b8ee:	bf18      	it	ne
 800b8f0:	460c      	movne	r4, r1
 800b8f2:	e7e9      	b.n	800b8c8 <_malloc_r+0x64>
 800b8f4:	460c      	mov	r4, r1
 800b8f6:	6849      	ldr	r1, [r1, #4]
 800b8f8:	e7ca      	b.n	800b890 <_malloc_r+0x2c>
 800b8fa:	1cc4      	adds	r4, r0, #3
 800b8fc:	f024 0403 	bic.w	r4, r4, #3
 800b900:	42a0      	cmp	r0, r4
 800b902:	d005      	beq.n	800b910 <_malloc_r+0xac>
 800b904:	1a21      	subs	r1, r4, r0
 800b906:	4630      	mov	r0, r6
 800b908:	f000 f822 	bl	800b950 <_sbrk_r>
 800b90c:	3001      	adds	r0, #1
 800b90e:	d0cd      	beq.n	800b8ac <_malloc_r+0x48>
 800b910:	6025      	str	r5, [r4, #0]
 800b912:	e7d9      	b.n	800b8c8 <_malloc_r+0x64>
 800b914:	bd70      	pop	{r4, r5, r6, pc}
 800b916:	bf00      	nop
 800b918:	200040e0 	.word	0x200040e0
 800b91c:	200040e4 	.word	0x200040e4

0800b920 <iprintf>:
 800b920:	b40f      	push	{r0, r1, r2, r3}
 800b922:	4b0a      	ldr	r3, [pc, #40]	; (800b94c <iprintf+0x2c>)
 800b924:	b513      	push	{r0, r1, r4, lr}
 800b926:	681c      	ldr	r4, [r3, #0]
 800b928:	b124      	cbz	r4, 800b934 <iprintf+0x14>
 800b92a:	69a3      	ldr	r3, [r4, #24]
 800b92c:	b913      	cbnz	r3, 800b934 <iprintf+0x14>
 800b92e:	4620      	mov	r0, r4
 800b930:	f000 f85e 	bl	800b9f0 <__sinit>
 800b934:	ab05      	add	r3, sp, #20
 800b936:	9a04      	ldr	r2, [sp, #16]
 800b938:	68a1      	ldr	r1, [r4, #8]
 800b93a:	9301      	str	r3, [sp, #4]
 800b93c:	4620      	mov	r0, r4
 800b93e:	f000 f90d 	bl	800bb5c <_vfiprintf_r>
 800b942:	b002      	add	sp, #8
 800b944:	e8bd 4010 	ldmia.w	sp!, {r4, lr}
 800b948:	b004      	add	sp, #16
 800b94a:	4770      	bx	lr
 800b94c:	20000174 	.word	0x20000174

0800b950 <_sbrk_r>:
 800b950:	b538      	push	{r3, r4, r5, lr}
 800b952:	4c06      	ldr	r4, [pc, #24]	; (800b96c <_sbrk_r+0x1c>)
 800b954:	2300      	movs	r3, #0
 800b956:	4605      	mov	r5, r0
 800b958:	4608      	mov	r0, r1
 800b95a:	6023      	str	r3, [r4, #0]
 800b95c:	f7ff fc06 	bl	800b16c <_sbrk>
 800b960:	1c43      	adds	r3, r0, #1
 800b962:	d102      	bne.n	800b96a <_sbrk_r+0x1a>
 800b964:	6823      	ldr	r3, [r4, #0]
 800b966:	b103      	cbz	r3, 800b96a <_sbrk_r+0x1a>
 800b968:	602b      	str	r3, [r5, #0]
 800b96a:	bd38      	pop	{r3, r4, r5, pc}
 800b96c:	20007810 	.word	0x20007810

0800b970 <_cleanup_r>:
 800b970:	4901      	ldr	r1, [pc, #4]	; (800b978 <_cleanup_r+0x8>)
 800b972:	f000 b8a9 	b.w	800bac8 <_fwalk_reent>
 800b976:	bf00      	nop
 800b978:	0800c411 	.word	0x0800c411

0800b97c <std.isra.0>:
 800b97c:	2300      	movs	r3, #0
 800b97e:	b510      	push	{r4, lr}
 800b980:	4604      	mov	r4, r0
 800b982:	6003      	str	r3, [r0, #0]
 800b984:	6043      	str	r3, [r0, #4]
 800b986:	6083      	str	r3, [r0, #8]
 800b988:	8181      	strh	r1, [r0, #12]
 800b98a:	6643      	str	r3, [r0, #100]	; 0x64
 800b98c:	81c2      	strh	r2, [r0, #14]
 800b98e:	6103      	str	r3, [r0, #16]
 800b990:	6143      	str	r3, [r0, #20]
 800b992:	6183      	str	r3, [r0, #24]
 800b994:	4619      	mov	r1, r3
 800b996:	2208      	movs	r2, #8
 800b998:	305c      	adds	r0, #92	; 0x5c
 800b99a:	f7ff ff0d 	bl	800b7b8 <memset>
 800b99e:	4b05      	ldr	r3, [pc, #20]	; (800b9b4 <std.isra.0+0x38>)
 800b9a0:	6263      	str	r3, [r4, #36]	; 0x24
 800b9a2:	4b05      	ldr	r3, [pc, #20]	; (800b9b8 <std.isra.0+0x3c>)
 800b9a4:	62a3      	str	r3, [r4, #40]	; 0x28
 800b9a6:	4b05      	ldr	r3, [pc, #20]	; (800b9bc <std.isra.0+0x40>)
 800b9a8:	62e3      	str	r3, [r4, #44]	; 0x2c
 800b9aa:	4b05      	ldr	r3, [pc, #20]	; (800b9c0 <std.isra.0+0x44>)
 800b9ac:	6224      	str	r4, [r4, #32]
 800b9ae:	6323      	str	r3, [r4, #48]	; 0x30
 800b9b0:	bd10      	pop	{r4, pc}
 800b9b2:	bf00      	nop
 800b9b4:	0800c0b5 	.word	0x0800c0b5
 800b9b8:	0800c0d7 	.word	0x0800c0d7
 800b9bc:	0800c10f 	.word	0x0800c10f
 800b9c0:	0800c133 	.word	0x0800c133

0800b9c4 <__sfmoreglue>:
 800b9c4:	b570      	push	{r4, r5, r6, lr}
 800b9c6:	1e4a      	subs	r2, r1, #1
 800b9c8:	2568      	movs	r5, #104	; 0x68
 800b9ca:	4355      	muls	r5, r2
 800b9cc:	460e      	mov	r6, r1
 800b9ce:	f105 0174 	add.w	r1, r5, #116	; 0x74
 800b9d2:	f7ff ff47 	bl	800b864 <_malloc_r>
 800b9d6:	4604      	mov	r4, r0
 800b9d8:	b140      	cbz	r0, 800b9ec <__sfmoreglue+0x28>
 800b9da:	2100      	movs	r1, #0
 800b9dc:	e880 0042 	stmia.w	r0, {r1, r6}
 800b9e0:	300c      	adds	r0, #12
 800b9e2:	60a0      	str	r0, [r4, #8]
 800b9e4:	f105 0268 	add.w	r2, r5, #104	; 0x68
 800b9e8:	f7ff fee6 	bl	800b7b8 <memset>
 800b9ec:	4620      	mov	r0, r4
 800b9ee:	bd70      	pop	{r4, r5, r6, pc}

0800b9f0 <__sinit>:
 800b9f0:	6983      	ldr	r3, [r0, #24]
 800b9f2:	b510      	push	{r4, lr}
 800b9f4:	4604      	mov	r4, r0
 800b9f6:	bb33      	cbnz	r3, 800ba46 <__sinit+0x56>
 800b9f8:	6483      	str	r3, [r0, #72]	; 0x48
 800b9fa:	64c3      	str	r3, [r0, #76]	; 0x4c
 800b9fc:	6503      	str	r3, [r0, #80]	; 0x50
 800b9fe:	4b12      	ldr	r3, [pc, #72]	; (800ba48 <__sinit+0x58>)
 800ba00:	4a12      	ldr	r2, [pc, #72]	; (800ba4c <__sinit+0x5c>)
 800ba02:	681b      	ldr	r3, [r3, #0]
 800ba04:	6282      	str	r2, [r0, #40]	; 0x28
 800ba06:	4298      	cmp	r0, r3
 800ba08:	bf04      	itt	eq
 800ba0a:	2301      	moveq	r3, #1
 800ba0c:	6183      	streq	r3, [r0, #24]
 800ba0e:	f000 f81f 	bl	800ba50 <__sfp>
 800ba12:	6060      	str	r0, [r4, #4]
 800ba14:	4620      	mov	r0, r4
 800ba16:	f000 f81b 	bl	800ba50 <__sfp>
 800ba1a:	60a0      	str	r0, [r4, #8]
 800ba1c:	4620      	mov	r0, r4
 800ba1e:	f000 f817 	bl	800ba50 <__sfp>
 800ba22:	2200      	movs	r2, #0
 800ba24:	60e0      	str	r0, [r4, #12]
 800ba26:	2104      	movs	r1, #4
 800ba28:	6860      	ldr	r0, [r4, #4]
 800ba2a:	f7ff ffa7 	bl	800b97c <std.isra.0>
 800ba2e:	2201      	movs	r2, #1
 800ba30:	2109      	movs	r1, #9
 800ba32:	68a0      	ldr	r0, [r4, #8]
 800ba34:	f7ff ffa2 	bl	800b97c <std.isra.0>
 800ba38:	2202      	movs	r2, #2
 800ba3a:	2112      	movs	r1, #18
 800ba3c:	68e0      	ldr	r0, [r4, #12]
 800ba3e:	f7ff ff9d 	bl	800b97c <std.isra.0>
 800ba42:	2301      	movs	r3, #1
 800ba44:	61a3      	str	r3, [r4, #24]
 800ba46:	bd10      	pop	{r4, pc}
 800ba48:	0800dc4c 	.word	0x0800dc4c
 800ba4c:	0800b971 	.word	0x0800b971

0800ba50 <__sfp>:
 800ba50:	b5f8      	push	{r3, r4, r5, r6, r7, lr}
 800ba52:	4b1c      	ldr	r3, [pc, #112]	; (800bac4 <__sfp+0x74>)
 800ba54:	681e      	ldr	r6, [r3, #0]
 800ba56:	69b3      	ldr	r3, [r6, #24]
 800ba58:	4607      	mov	r7, r0
 800ba5a:	b913      	cbnz	r3, 800ba62 <__sfp+0x12>
 800ba5c:	4630      	mov	r0, r6
 800ba5e:	f7ff ffc7 	bl	800b9f0 <__sinit>
 800ba62:	3648      	adds	r6, #72	; 0x48
 800ba64:	68b4      	ldr	r4, [r6, #8]
 800ba66:	6873      	ldr	r3, [r6, #4]
 800ba68:	3b01      	subs	r3, #1
 800ba6a:	d503      	bpl.n	800ba74 <__sfp+0x24>
 800ba6c:	6833      	ldr	r3, [r6, #0]
 800ba6e:	b133      	cbz	r3, 800ba7e <__sfp+0x2e>
 800ba70:	6836      	ldr	r6, [r6, #0]
 800ba72:	e7f7      	b.n	800ba64 <__sfp+0x14>
 800ba74:	f9b4 500c 	ldrsh.w	r5, [r4, #12]
 800ba78:	b16d      	cbz	r5, 800ba96 <__sfp+0x46>
 800ba7a:	3468      	adds	r4, #104	; 0x68
 800ba7c:	e7f4      	b.n	800ba68 <__sfp+0x18>
 800ba7e:	2104      	movs	r1, #4
 800ba80:	4638      	mov	r0, r7
 800ba82:	f7ff ff9f 	bl	800b9c4 <__sfmoreglue>
 800ba86:	6030      	str	r0, [r6, #0]
 800ba88:	2800      	cmp	r0, #0
 800ba8a:	d1f1      	bne.n	800ba70 <__sfp+0x20>
 800ba8c:	230c      	movs	r3, #12
 800ba8e:	603b      	str	r3, [r7, #0]
 800ba90:	4604      	mov	r4, r0
 800ba92:	4620      	mov	r0, r4
 800ba94:	bdf8      	pop	{r3, r4, r5, r6, r7, pc}
 800ba96:	f64f 73ff 	movw	r3, #65535	; 0xffff
 800ba9a:	81e3      	strh	r3, [r4, #14]
 800ba9c:	2301      	movs	r3, #1
 800ba9e:	81a3      	strh	r3, [r4, #12]
 800baa0:	6665      	str	r5, [r4, #100]	; 0x64
 800baa2:	6025      	str	r5, [r4, #0]
 800baa4:	60a5      	str	r5, [r4, #8]
 800baa6:	6065      	str	r5, [r4, #4]
 800baa8:	6125      	str	r5, [r4, #16]
 800baaa:	6165      	str	r5, [r4, #20]
 800baac:	61a5      	str	r5, [r4, #24]
 800baae:	2208      	movs	r2, #8
 800bab0:	4629      	mov	r1, r5
 800bab2:	f104 005c 	add.w	r0, r4, #92	; 0x5c
 800bab6:	f7ff fe7f 	bl	800b7b8 <memset>
 800baba:	6365      	str	r5, [r4, #52]	; 0x34
 800babc:	63a5      	str	r5, [r4, #56]	; 0x38
 800babe:	64a5      	str	r5, [r4, #72]	; 0x48
 800bac0:	64e5      	str	r5, [r4, #76]	; 0x4c
 800bac2:	e7e6      	b.n	800ba92 <__sfp+0x42>
 800bac4:	0800dc4c 	.word	0x0800dc4c

0800bac8 <_fwalk_reent>:
 800bac8:	e92d 43f8 	stmdb	sp!, {r3, r4, r5, r6, r7, r8, r9, lr}
 800bacc:	4680      	mov	r8, r0
 800bace:	4689      	mov	r9, r1
 800bad0:	f100 0448 	add.w	r4, r0, #72	; 0x48
 800bad4:	2600      	movs	r6, #0
 800bad6:	b914      	cbnz	r4, 800bade <_fwalk_reent+0x16>
 800bad8:	4630      	mov	r0, r6
 800bada:	e8bd 83f8 	ldmia.w	sp!, {r3, r4, r5, r6, r7, r8, r9, pc}
 800bade:	68a5      	ldr	r5, [r4, #8]
 800bae0:	6867      	ldr	r7, [r4, #4]
 800bae2:	3f01      	subs	r7, #1
 800bae4:	d501      	bpl.n	800baea <_fwalk_reent+0x22>
 800bae6:	6824      	ldr	r4, [r4, #0]
 800bae8:	e7f5      	b.n	800bad6 <_fwalk_reent+0xe>
 800baea:	89ab      	ldrh	r3, [r5, #12]
 800baec:	2b01      	cmp	r3, #1
 800baee:	d907      	bls.n	800bb00 <_fwalk_reent+0x38>
 800baf0:	f9b5 300e 	ldrsh.w	r3, [r5, #14]
 800baf4:	3301      	adds	r3, #1
 800baf6:	d003      	beq.n	800bb00 <_fwalk_reent+0x38>
 800baf8:	4629      	mov	r1, r5
 800bafa:	4640      	mov	r0, r8
 800bafc:	47c8      	blx	r9
 800bafe:	4306      	orrs	r6, r0
 800bb00:	3568      	adds	r5, #104	; 0x68
 800bb02:	e7ee      	b.n	800bae2 <_fwalk_reent+0x1a>

0800bb04 <__malloc_lock>:
 800bb04:	4770      	bx	lr

0800bb06 <__malloc_unlock>:
 800bb06:	4770      	bx	lr

0800bb08 <__sfputc_r>:
 800bb08:	6893      	ldr	r3, [r2, #8]
 800bb0a:	3b01      	subs	r3, #1
 800bb0c:	2b00      	cmp	r3, #0
 800bb0e:	b410      	push	{r4}
 800bb10:	6093      	str	r3, [r2, #8]
 800bb12:	da09      	bge.n	800bb28 <__sfputc_r+0x20>
 800bb14:	6994      	ldr	r4, [r2, #24]
 800bb16:	42a3      	cmp	r3, r4
 800bb18:	db02      	blt.n	800bb20 <__sfputc_r+0x18>
 800bb1a:	b2cb      	uxtb	r3, r1
 800bb1c:	2b0a      	cmp	r3, #10
 800bb1e:	d103      	bne.n	800bb28 <__sfputc_r+0x20>
 800bb20:	f85d 4b04 	ldr.w	r4, [sp], #4
 800bb24:	f000 bb0a 	b.w	800c13c <__swbuf_r>
 800bb28:	6813      	ldr	r3, [r2, #0]
 800bb2a:	1c58      	adds	r0, r3, #1
 800bb2c:	6010      	str	r0, [r2, #0]
 800bb2e:	7019      	strb	r1, [r3, #0]
 800bb30:	b2c8      	uxtb	r0, r1
 800bb32:	f85d 4b04 	ldr.w	r4, [sp], #4
 800bb36:	4770      	bx	lr

0800bb38 <__sfputs_r>:
 800bb38:	b5f8      	push	{r3, r4, r5, r6, r7, lr}
 800bb3a:	4606      	mov	r6, r0
 800bb3c:	460f      	mov	r7, r1
 800bb3e:	4614      	mov	r4, r2
 800bb40:	18d5      	adds	r5, r2, r3
 800bb42:	42ac      	cmp	r4, r5
 800bb44:	d101      	bne.n	800bb4a <__sfputs_r+0x12>
 800bb46:	2000      	movs	r0, #0
 800bb48:	e007      	b.n	800bb5a <__sfputs_r+0x22>
 800bb4a:	463a      	mov	r2, r7
 800bb4c:	f814 1b01 	ldrb.w	r1, [r4], #1
 800bb50:	4630      	mov	r0, r6
 800bb52:	f7ff ffd9 	bl	800bb08 <__sfputc_r>
 800bb56:	1c43      	adds	r3, r0, #1
 800bb58:	d1f3      	bne.n	800bb42 <__sfputs_r+0xa>
 800bb5a:	bdf8      	pop	{r3, r4, r5, r6, r7, pc}

0800bb5c <_vfiprintf_r>:
 800bb5c:	e92d 4ff0 	stmdb	sp!, {r4, r5, r6, r7, r8, r9, sl, fp, lr}
 800bb60:	b09d      	sub	sp, #116	; 0x74
 800bb62:	460c      	mov	r4, r1
 800bb64:	4617      	mov	r7, r2
 800bb66:	9303      	str	r3, [sp, #12]
 800bb68:	4606      	mov	r6, r0
 800bb6a:	b118      	cbz	r0, 800bb74 <_vfiprintf_r+0x18>
 800bb6c:	6983      	ldr	r3, [r0, #24]
 800bb6e:	b90b      	cbnz	r3, 800bb74 <_vfiprintf_r+0x18>
 800bb70:	f7ff ff3e 	bl	800b9f0 <__sinit>
 800bb74:	4b7c      	ldr	r3, [pc, #496]	; (800bd68 <_vfiprintf_r+0x20c>)
 800bb76:	429c      	cmp	r4, r3
 800bb78:	d157      	bne.n	800bc2a <_vfiprintf_r+0xce>
 800bb7a:	6874      	ldr	r4, [r6, #4]
 800bb7c:	89a3      	ldrh	r3, [r4, #12]
 800bb7e:	0718      	lsls	r0, r3, #28
 800bb80:	d55d      	bpl.n	800bc3e <_vfiprintf_r+0xe2>
 800bb82:	6923      	ldr	r3, [r4, #16]
 800bb84:	2b00      	cmp	r3, #0
 800bb86:	d05a      	beq.n	800bc3e <_vfiprintf_r+0xe2>
 800bb88:	2300      	movs	r3, #0
 800bb8a:	9309      	str	r3, [sp, #36]	; 0x24
 800bb8c:	2320      	movs	r3, #32
 800bb8e:	f88d 3029 	strb.w	r3, [sp, #41]	; 0x29
 800bb92:	2330      	movs	r3, #48	; 0x30
 800bb94:	f88d 302a 	strb.w	r3, [sp, #42]	; 0x2a
 800bb98:	f04f 0b01 	mov.w	fp, #1
 800bb9c:	46b8      	mov	r8, r7
 800bb9e:	4645      	mov	r5, r8
 800bba0:	f815 3b01 	ldrb.w	r3, [r5], #1
 800bba4:	2b00      	cmp	r3, #0
 800bba6:	d155      	bne.n	800bc54 <_vfiprintf_r+0xf8>
 800bba8:	ebb8 0a07 	subs.w	sl, r8, r7
 800bbac:	d00b      	beq.n	800bbc6 <_vfiprintf_r+0x6a>
 800bbae:	4653      	mov	r3, sl
 800bbb0:	463a      	mov	r2, r7
 800bbb2:	4621      	mov	r1, r4
 800bbb4:	4630      	mov	r0, r6
 800bbb6:	f7ff ffbf 	bl	800bb38 <__sfputs_r>
 800bbba:	3001      	adds	r0, #1
 800bbbc:	f000 80c4 	beq.w	800bd48 <_vfiprintf_r+0x1ec>
 800bbc0:	9b09      	ldr	r3, [sp, #36]	; 0x24
 800bbc2:	4453      	add	r3, sl
 800bbc4:	9309      	str	r3, [sp, #36]	; 0x24
 800bbc6:	f898 3000 	ldrb.w	r3, [r8]
 800bbca:	2b00      	cmp	r3, #0
 800bbcc:	f000 80bc 	beq.w	800bd48 <_vfiprintf_r+0x1ec>
 800bbd0:	2300      	movs	r3, #0
 800bbd2:	f04f 32ff 	mov.w	r2, #4294967295
 800bbd6:	9304      	str	r3, [sp, #16]
 800bbd8:	9307      	str	r3, [sp, #28]
 800bbda:	9205      	str	r2, [sp, #20]
 800bbdc:	9306      	str	r3, [sp, #24]
 800bbde:	f88d 3053 	strb.w	r3, [sp, #83]	; 0x53
 800bbe2:	931a      	str	r3, [sp, #104]	; 0x68
 800bbe4:	2205      	movs	r2, #5
 800bbe6:	7829      	ldrb	r1, [r5, #0]
 800bbe8:	4860      	ldr	r0, [pc, #384]	; (800bd6c <_vfiprintf_r+0x210>)
 800bbea:	f7f4 fb11 	bl	8000210 <memchr>
 800bbee:	f105 0801 	add.w	r8, r5, #1
 800bbf2:	9b04      	ldr	r3, [sp, #16]
 800bbf4:	2800      	cmp	r0, #0
 800bbf6:	d131      	bne.n	800bc5c <_vfiprintf_r+0x100>
 800bbf8:	06d9      	lsls	r1, r3, #27
 800bbfa:	bf44      	itt	mi
 800bbfc:	2220      	movmi	r2, #32
 800bbfe:	f88d 2053 	strbmi.w	r2, [sp, #83]	; 0x53
 800bc02:	071a      	lsls	r2, r3, #28
 800bc04:	bf44      	itt	mi
 800bc06:	222b      	movmi	r2, #43	; 0x2b
 800bc08:	f88d 2053 	strbmi.w	r2, [sp, #83]	; 0x53
 800bc0c:	782a      	ldrb	r2, [r5, #0]
 800bc0e:	2a2a      	cmp	r2, #42	; 0x2a
 800bc10:	d02c      	beq.n	800bc6c <_vfiprintf_r+0x110>
 800bc12:	9a07      	ldr	r2, [sp, #28]
 800bc14:	2100      	movs	r1, #0
 800bc16:	200a      	movs	r0, #10
 800bc18:	46a8      	mov	r8, r5
 800bc1a:	3501      	adds	r5, #1
 800bc1c:	f898 3000 	ldrb.w	r3, [r8]
 800bc20:	3b30      	subs	r3, #48	; 0x30
 800bc22:	2b09      	cmp	r3, #9
 800bc24:	d96d      	bls.n	800bd02 <_vfiprintf_r+0x1a6>
 800bc26:	b371      	cbz	r1, 800bc86 <_vfiprintf_r+0x12a>
 800bc28:	e026      	b.n	800bc78 <_vfiprintf_r+0x11c>
 800bc2a:	4b51      	ldr	r3, [pc, #324]	; (800bd70 <_vfiprintf_r+0x214>)
 800bc2c:	429c      	cmp	r4, r3
 800bc2e:	d101      	bne.n	800bc34 <_vfiprintf_r+0xd8>
 800bc30:	68b4      	ldr	r4, [r6, #8]
 800bc32:	e7a3      	b.n	800bb7c <_vfiprintf_r+0x20>
 800bc34:	4b4f      	ldr	r3, [pc, #316]	; (800bd74 <_vfiprintf_r+0x218>)
 800bc36:	429c      	cmp	r4, r3
 800bc38:	bf08      	it	eq
 800bc3a:	68f4      	ldreq	r4, [r6, #12]
 800bc3c:	e79e      	b.n	800bb7c <_vfiprintf_r+0x20>
 800bc3e:	4621      	mov	r1, r4
 800bc40:	4630      	mov	r0, r6
 800bc42:	f000 fadf 	bl	800c204 <__swsetup_r>
 800bc46:	2800      	cmp	r0, #0
 800bc48:	d09e      	beq.n	800bb88 <_vfiprintf_r+0x2c>
 800bc4a:	f04f 30ff 	mov.w	r0, #4294967295
 800bc4e:	b01d      	add	sp, #116	; 0x74
 800bc50:	e8bd 8ff0 	ldmia.w	sp!, {r4, r5, r6, r7, r8, r9, sl, fp, pc}
 800bc54:	2b25      	cmp	r3, #37	; 0x25
 800bc56:	d0a7      	beq.n	800bba8 <_vfiprintf_r+0x4c>
 800bc58:	46a8      	mov	r8, r5
 800bc5a:	e7a0      	b.n	800bb9e <_vfiprintf_r+0x42>
 800bc5c:	4a43      	ldr	r2, [pc, #268]	; (800bd6c <_vfiprintf_r+0x210>)
 800bc5e:	1a80      	subs	r0, r0, r2
 800bc60:	fa0b f000 	lsl.w	r0, fp, r0
 800bc64:	4318      	orrs	r0, r3
 800bc66:	9004      	str	r0, [sp, #16]
 800bc68:	4645      	mov	r5, r8
 800bc6a:	e7bb      	b.n	800bbe4 <_vfiprintf_r+0x88>
 800bc6c:	9a03      	ldr	r2, [sp, #12]
 800bc6e:	1d11      	adds	r1, r2, #4
 800bc70:	6812      	ldr	r2, [r2, #0]
 800bc72:	9103      	str	r1, [sp, #12]
 800bc74:	2a00      	cmp	r2, #0
 800bc76:	db01      	blt.n	800bc7c <_vfiprintf_r+0x120>
 800bc78:	9207      	str	r2, [sp, #28]
 800bc7a:	e004      	b.n	800bc86 <_vfiprintf_r+0x12a>
 800bc7c:	4252      	negs	r2, r2
 800bc7e:	f043 0302 	orr.w	r3, r3, #2
 800bc82:	9207      	str	r2, [sp, #28]
 800bc84:	9304      	str	r3, [sp, #16]
 800bc86:	f898 3000 	ldrb.w	r3, [r8]
 800bc8a:	2b2e      	cmp	r3, #46	; 0x2e
 800bc8c:	d110      	bne.n	800bcb0 <_vfiprintf_r+0x154>
 800bc8e:	f898 3001 	ldrb.w	r3, [r8, #1]
 800bc92:	2b2a      	cmp	r3, #42	; 0x2a
 800bc94:	f108 0101 	add.w	r1, r8, #1
 800bc98:	d137      	bne.n	800bd0a <_vfiprintf_r+0x1ae>
 800bc9a:	9b03      	ldr	r3, [sp, #12]
 800bc9c:	1d1a      	adds	r2, r3, #4
 800bc9e:	681b      	ldr	r3, [r3, #0]
 800bca0:	9203      	str	r2, [sp, #12]
 800bca2:	2b00      	cmp	r3, #0
 800bca4:	bfb8      	it	lt
 800bca6:	f04f 33ff 	movlt.w	r3, #4294967295
 800bcaa:	f108 0802 	add.w	r8, r8, #2
 800bcae:	9305      	str	r3, [sp, #20]
 800bcb0:	4d31      	ldr	r5, [pc, #196]	; (800bd78 <_vfiprintf_r+0x21c>)
 800bcb2:	f898 1000 	ldrb.w	r1, [r8]
 800bcb6:	2203      	movs	r2, #3
 800bcb8:	4628      	mov	r0, r5
 800bcba:	f7f4 faa9 	bl	8000210 <memchr>
 800bcbe:	b140      	cbz	r0, 800bcd2 <_vfiprintf_r+0x176>
 800bcc0:	2340      	movs	r3, #64	; 0x40
 800bcc2:	1b40      	subs	r0, r0, r5
 800bcc4:	fa03 f000 	lsl.w	r0, r3, r0
 800bcc8:	9b04      	ldr	r3, [sp, #16]
 800bcca:	4303      	orrs	r3, r0
 800bccc:	9304      	str	r3, [sp, #16]
 800bcce:	f108 0801 	add.w	r8, r8, #1
 800bcd2:	f898 1000 	ldrb.w	r1, [r8]
 800bcd6:	4829      	ldr	r0, [pc, #164]	; (800bd7c <_vfiprintf_r+0x220>)
 800bcd8:	f88d 1028 	strb.w	r1, [sp, #40]	; 0x28
 800bcdc:	2206      	movs	r2, #6
 800bcde:	f108 0701 	add.w	r7, r8, #1
 800bce2:	f7f4 fa95 	bl	8000210 <memchr>
 800bce6:	2800      	cmp	r0, #0
 800bce8:	d034      	beq.n	800bd54 <_vfiprintf_r+0x1f8>
 800bcea:	4b25      	ldr	r3, [pc, #148]	; (800bd80 <_vfiprintf_r+0x224>)
 800bcec:	bb03      	cbnz	r3, 800bd30 <_vfiprintf_r+0x1d4>
 800bcee:	9b03      	ldr	r3, [sp, #12]
 800bcf0:	3307      	adds	r3, #7
 800bcf2:	f023 0307 	bic.w	r3, r3, #7
 800bcf6:	3308      	adds	r3, #8
 800bcf8:	9303      	str	r3, [sp, #12]
 800bcfa:	9b09      	ldr	r3, [sp, #36]	; 0x24
 800bcfc:	444b      	add	r3, r9
 800bcfe:	9309      	str	r3, [sp, #36]	; 0x24
 800bd00:	e74c      	b.n	800bb9c <_vfiprintf_r+0x40>
 800bd02:	fb00 3202 	mla	r2, r0, r2, r3
 800bd06:	2101      	movs	r1, #1
 800bd08:	e786      	b.n	800bc18 <_vfiprintf_r+0xbc>
 800bd0a:	2300      	movs	r3, #0
 800bd0c:	9305      	str	r3, [sp, #20]
 800bd0e:	4618      	mov	r0, r3
 800bd10:	250a      	movs	r5, #10
 800bd12:	4688      	mov	r8, r1
 800bd14:	3101      	adds	r1, #1
 800bd16:	f898 2000 	ldrb.w	r2, [r8]
 800bd1a:	3a30      	subs	r2, #48	; 0x30
 800bd1c:	2a09      	cmp	r2, #9
 800bd1e:	d903      	bls.n	800bd28 <_vfiprintf_r+0x1cc>
 800bd20:	2b00      	cmp	r3, #0
 800bd22:	d0c5      	beq.n	800bcb0 <_vfiprintf_r+0x154>
 800bd24:	9005      	str	r0, [sp, #20]
 800bd26:	e7c3      	b.n	800bcb0 <_vfiprintf_r+0x154>
 800bd28:	fb05 2000 	mla	r0, r5, r0, r2
 800bd2c:	2301      	movs	r3, #1
 800bd2e:	e7f0      	b.n	800bd12 <_vfiprintf_r+0x1b6>
 800bd30:	ab03      	add	r3, sp, #12
 800bd32:	9300      	str	r3, [sp, #0]
 800bd34:	4622      	mov	r2, r4
 800bd36:	4b13      	ldr	r3, [pc, #76]	; (800bd84 <_vfiprintf_r+0x228>)
 800bd38:	a904      	add	r1, sp, #16
 800bd3a:	4630      	mov	r0, r6
 800bd3c:	f3af 8000 	nop.w
 800bd40:	f1b0 3fff 	cmp.w	r0, #4294967295
 800bd44:	4681      	mov	r9, r0
 800bd46:	d1d8      	bne.n	800bcfa <_vfiprintf_r+0x19e>
 800bd48:	89a3      	ldrh	r3, [r4, #12]
 800bd4a:	065b      	lsls	r3, r3, #25
 800bd4c:	f53f af7d 	bmi.w	800bc4a <_vfiprintf_r+0xee>
 800bd50:	9809      	ldr	r0, [sp, #36]	; 0x24
 800bd52:	e77c      	b.n	800bc4e <_vfiprintf_r+0xf2>
 800bd54:	ab03      	add	r3, sp, #12
 800bd56:	9300      	str	r3, [sp, #0]
 800bd58:	4622      	mov	r2, r4
 800bd5a:	4b0a      	ldr	r3, [pc, #40]	; (800bd84 <_vfiprintf_r+0x228>)
 800bd5c:	a904      	add	r1, sp, #16
 800bd5e:	4630      	mov	r0, r6
 800bd60:	f000 f888 	bl	800be74 <_printf_i>
 800bd64:	e7ec      	b.n	800bd40 <_vfiprintf_r+0x1e4>
 800bd66:	bf00      	nop
 800bd68:	0800dc0c 	.word	0x0800dc0c
 800bd6c:	0800dc50 	.word	0x0800dc50
 800bd70:	0800dc2c 	.word	0x0800dc2c
 800bd74:	0800dbec 	.word	0x0800dbec
 800bd78:	0800dc56 	.word	0x0800dc56
 800bd7c:	0800dc5a 	.word	0x0800dc5a
 800bd80:	00000000 	.word	0x00000000
 800bd84:	0800bb39 	.word	0x0800bb39

0800bd88 <_printf_common>:
 800bd88:	e92d 47f0 	stmdb	sp!, {r4, r5, r6, r7, r8, r9, sl, lr}
 800bd8c:	4691      	mov	r9, r2
 800bd8e:	461f      	mov	r7, r3
 800bd90:	688a      	ldr	r2, [r1, #8]
 800bd92:	690b      	ldr	r3, [r1, #16]
 800bd94:	f8dd 8020 	ldr.w	r8, [sp, #32]
 800bd98:	4293      	cmp	r3, r2
 800bd9a:	bfb8      	it	lt
 800bd9c:	4613      	movlt	r3, r2
 800bd9e:	f8c9 3000 	str.w	r3, [r9]
 800bda2:	f891 2043 	ldrb.w	r2, [r1, #67]	; 0x43
 800bda6:	4606      	mov	r6, r0
 800bda8:	460c      	mov	r4, r1
 800bdaa:	b112      	cbz	r2, 800bdb2 <_printf_common+0x2a>
 800bdac:	3301      	adds	r3, #1
 800bdae:	f8c9 3000 	str.w	r3, [r9]
 800bdb2:	6823      	ldr	r3, [r4, #0]
 800bdb4:	0699      	lsls	r1, r3, #26
 800bdb6:	bf42      	ittt	mi
 800bdb8:	f8d9 3000 	ldrmi.w	r3, [r9]
 800bdbc:	3302      	addmi	r3, #2
 800bdbe:	f8c9 3000 	strmi.w	r3, [r9]
 800bdc2:	6825      	ldr	r5, [r4, #0]
 800bdc4:	f015 0506 	ands.w	r5, r5, #6
 800bdc8:	d107      	bne.n	800bdda <_printf_common+0x52>
 800bdca:	f104 0a19 	add.w	sl, r4, #25
 800bdce:	68e3      	ldr	r3, [r4, #12]
 800bdd0:	f8d9 2000 	ldr.w	r2, [r9]
 800bdd4:	1a9b      	subs	r3, r3, r2
 800bdd6:	429d      	cmp	r5, r3
 800bdd8:	db29      	blt.n	800be2e <_printf_common+0xa6>
 800bdda:	f894 3043 	ldrb.w	r3, [r4, #67]	; 0x43
 800bdde:	6822      	ldr	r2, [r4, #0]
 800bde0:	3300      	adds	r3, #0
 800bde2:	bf18      	it	ne
 800bde4:	2301      	movne	r3, #1
 800bde6:	0692      	lsls	r2, r2, #26
 800bde8:	d42e      	bmi.n	800be48 <_printf_common+0xc0>
 800bdea:	f104 0243 	add.w	r2, r4, #67	; 0x43
 800bdee:	4639      	mov	r1, r7
 800bdf0:	4630      	mov	r0, r6
 800bdf2:	47c0      	blx	r8
 800bdf4:	3001      	adds	r0, #1
 800bdf6:	d021      	beq.n	800be3c <_printf_common+0xb4>
 800bdf8:	6823      	ldr	r3, [r4, #0]
 800bdfa:	68e5      	ldr	r5, [r4, #12]
 800bdfc:	f8d9 2000 	ldr.w	r2, [r9]
 800be00:	f003 0306 	and.w	r3, r3, #6
 800be04:	2b04      	cmp	r3, #4
 800be06:	bf08      	it	eq
 800be08:	1aad      	subeq	r5, r5, r2
 800be0a:	68a3      	ldr	r3, [r4, #8]
 800be0c:	6922      	ldr	r2, [r4, #16]
 800be0e:	bf0c      	ite	eq
 800be10:	ea25 75e5 	biceq.w	r5, r5, r5, asr #31
 800be14:	2500      	movne	r5, #0
 800be16:	4293      	cmp	r3, r2
 800be18:	bfc4      	itt	gt
 800be1a:	1a9b      	subgt	r3, r3, r2
 800be1c:	18ed      	addgt	r5, r5, r3
 800be1e:	f04f 0900 	mov.w	r9, #0
 800be22:	341a      	adds	r4, #26
 800be24:	454d      	cmp	r5, r9
 800be26:	d11b      	bne.n	800be60 <_printf_common+0xd8>
 800be28:	2000      	movs	r0, #0
 800be2a:	e8bd 87f0 	ldmia.w	sp!, {r4, r5, r6, r7, r8, r9, sl, pc}
 800be2e:	2301      	movs	r3, #1
 800be30:	4652      	mov	r2, sl
 800be32:	4639      	mov	r1, r7
 800be34:	4630      	mov	r0, r6
 800be36:	47c0      	blx	r8
 800be38:	3001      	adds	r0, #1
 800be3a:	d103      	bne.n	800be44 <_printf_common+0xbc>
 800be3c:	f04f 30ff 	mov.w	r0, #4294967295
 800be40:	e8bd 87f0 	ldmia.w	sp!, {r4, r5, r6, r7, r8, r9, sl, pc}
 800be44:	3501      	adds	r5, #1
 800be46:	e7c2      	b.n	800bdce <_printf_common+0x46>
 800be48:	18e1      	adds	r1, r4, r3
 800be4a:	1c5a      	adds	r2, r3, #1
 800be4c:	2030      	movs	r0, #48	; 0x30
 800be4e:	f881 0043 	strb.w	r0, [r1, #67]	; 0x43
 800be52:	4422      	add	r2, r4
 800be54:	f894 1045 	ldrb.w	r1, [r4, #69]	; 0x45
 800be58:	f882 1043 	strb.w	r1, [r2, #67]	; 0x43
 800be5c:	3302      	adds	r3, #2
 800be5e:	e7c4      	b.n	800bdea <_printf_common+0x62>
 800be60:	2301      	movs	r3, #1
 800be62:	4622      	mov	r2, r4
 800be64:	4639      	mov	r1, r7
 800be66:	4630      	mov	r0, r6
 800be68:	47c0      	blx	r8
 800be6a:	3001      	adds	r0, #1
 800be6c:	d0e6      	beq.n	800be3c <_printf_common+0xb4>
 800be6e:	f109 0901 	add.w	r9, r9, #1
 800be72:	e7d7      	b.n	800be24 <_printf_common+0x9c>

0800be74 <_printf_i>:
 800be74:	e92d 43f0 	stmdb	sp!, {r4, r5, r6, r7, r8, r9, lr}
 800be78:	4617      	mov	r7, r2
 800be7a:	7e0a      	ldrb	r2, [r1, #24]
 800be7c:	b085      	sub	sp, #20
 800be7e:	2a6e      	cmp	r2, #110	; 0x6e
 800be80:	4698      	mov	r8, r3
 800be82:	4606      	mov	r6, r0
 800be84:	460c      	mov	r4, r1
 800be86:	9b0c      	ldr	r3, [sp, #48]	; 0x30
 800be88:	f101 0e43 	add.w	lr, r1, #67	; 0x43
 800be8c:	f000 80bc 	beq.w	800c008 <_printf_i+0x194>
 800be90:	d81a      	bhi.n	800bec8 <_printf_i+0x54>
 800be92:	2a63      	cmp	r2, #99	; 0x63
 800be94:	d02e      	beq.n	800bef4 <_printf_i+0x80>
 800be96:	d80a      	bhi.n	800beae <_printf_i+0x3a>
 800be98:	2a00      	cmp	r2, #0
 800be9a:	f000 80c8 	beq.w	800c02e <_printf_i+0x1ba>
 800be9e:	2a58      	cmp	r2, #88	; 0x58
 800bea0:	f000 808a 	beq.w	800bfb8 <_printf_i+0x144>
 800bea4:	f104 0542 	add.w	r5, r4, #66	; 0x42
 800bea8:	f884 2042 	strb.w	r2, [r4, #66]	; 0x42
 800beac:	e02a      	b.n	800bf04 <_printf_i+0x90>
 800beae:	2a64      	cmp	r2, #100	; 0x64
 800beb0:	d001      	beq.n	800beb6 <_printf_i+0x42>
 800beb2:	2a69      	cmp	r2, #105	; 0x69
 800beb4:	d1f6      	bne.n	800bea4 <_printf_i+0x30>
 800beb6:	6821      	ldr	r1, [r4, #0]
 800beb8:	681a      	ldr	r2, [r3, #0]
 800beba:	f011 0f80 	tst.w	r1, #128	; 0x80
 800bebe:	d023      	beq.n	800bf08 <_printf_i+0x94>
 800bec0:	1d11      	adds	r1, r2, #4
 800bec2:	6019      	str	r1, [r3, #0]
 800bec4:	6813      	ldr	r3, [r2, #0]
 800bec6:	e027      	b.n	800bf18 <_printf_i+0xa4>
 800bec8:	2a73      	cmp	r2, #115	; 0x73
 800beca:	f000 80b4 	beq.w	800c036 <_printf_i+0x1c2>
 800bece:	d808      	bhi.n	800bee2 <_printf_i+0x6e>
 800bed0:	2a6f      	cmp	r2, #111	; 0x6f
 800bed2:	d02a      	beq.n	800bf2a <_printf_i+0xb6>
 800bed4:	2a70      	cmp	r2, #112	; 0x70
 800bed6:	d1e5      	bne.n	800bea4 <_printf_i+0x30>
 800bed8:	680a      	ldr	r2, [r1, #0]
 800beda:	f042 0220 	orr.w	r2, r2, #32
 800bede:	600a      	str	r2, [r1, #0]
 800bee0:	e003      	b.n	800beea <_printf_i+0x76>
 800bee2:	2a75      	cmp	r2, #117	; 0x75
 800bee4:	d021      	beq.n	800bf2a <_printf_i+0xb6>
 800bee6:	2a78      	cmp	r2, #120	; 0x78
 800bee8:	d1dc      	bne.n	800bea4 <_printf_i+0x30>
 800beea:	2278      	movs	r2, #120	; 0x78
 800beec:	f884 2045 	strb.w	r2, [r4, #69]	; 0x45
 800bef0:	496e      	ldr	r1, [pc, #440]	; (800c0ac <_printf_i+0x238>)
 800bef2:	e064      	b.n	800bfbe <_printf_i+0x14a>
 800bef4:	681a      	ldr	r2, [r3, #0]
 800bef6:	f101 0542 	add.w	r5, r1, #66	; 0x42
 800befa:	1d11      	adds	r1, r2, #4
 800befc:	6019      	str	r1, [r3, #0]
 800befe:	6813      	ldr	r3, [r2, #0]
 800bf00:	f884 3042 	strb.w	r3, [r4, #66]	; 0x42
 800bf04:	2301      	movs	r3, #1
 800bf06:	e0a3      	b.n	800c050 <_printf_i+0x1dc>
 800bf08:	f011 0f40 	tst.w	r1, #64	; 0x40
 800bf0c:	f102 0104 	add.w	r1, r2, #4
 800bf10:	6019      	str	r1, [r3, #0]
 800bf12:	d0d7      	beq.n	800bec4 <_printf_i+0x50>
 800bf14:	f9b2 3000 	ldrsh.w	r3, [r2]
 800bf18:	2b00      	cmp	r3, #0
 800bf1a:	da03      	bge.n	800bf24 <_printf_i+0xb0>
 800bf1c:	222d      	movs	r2, #45	; 0x2d
 800bf1e:	425b      	negs	r3, r3
 800bf20:	f884 2043 	strb.w	r2, [r4, #67]	; 0x43
 800bf24:	4962      	ldr	r1, [pc, #392]	; (800c0b0 <_printf_i+0x23c>)
 800bf26:	220a      	movs	r2, #10
 800bf28:	e017      	b.n	800bf5a <_printf_i+0xe6>
 800bf2a:	6820      	ldr	r0, [r4, #0]
 800bf2c:	6819      	ldr	r1, [r3, #0]
 800bf2e:	f010 0f80 	tst.w	r0, #128	; 0x80
 800bf32:	d003      	beq.n	800bf3c <_printf_i+0xc8>
 800bf34:	1d08      	adds	r0, r1, #4
 800bf36:	6018      	str	r0, [r3, #0]
 800bf38:	680b      	ldr	r3, [r1, #0]
 800bf3a:	e006      	b.n	800bf4a <_printf_i+0xd6>
 800bf3c:	f010 0f40 	tst.w	r0, #64	; 0x40
 800bf40:	f101 0004 	add.w	r0, r1, #4
 800bf44:	6018      	str	r0, [r3, #0]
 800bf46:	d0f7      	beq.n	800bf38 <_printf_i+0xc4>
 800bf48:	880b      	ldrh	r3, [r1, #0]
 800bf4a:	4959      	ldr	r1, [pc, #356]	; (800c0b0 <_printf_i+0x23c>)
 800bf4c:	2a6f      	cmp	r2, #111	; 0x6f
 800bf4e:	bf14      	ite	ne
 800bf50:	220a      	movne	r2, #10
 800bf52:	2208      	moveq	r2, #8
 800bf54:	2000      	movs	r0, #0
 800bf56:	f884 0043 	strb.w	r0, [r4, #67]	; 0x43
 800bf5a:	6865      	ldr	r5, [r4, #4]
 800bf5c:	60a5      	str	r5, [r4, #8]
 800bf5e:	2d00      	cmp	r5, #0
 800bf60:	f2c0 809c 	blt.w	800c09c <_printf_i+0x228>
 800bf64:	6820      	ldr	r0, [r4, #0]
 800bf66:	f020 0004 	bic.w	r0, r0, #4
 800bf6a:	6020      	str	r0, [r4, #0]
 800bf6c:	2b00      	cmp	r3, #0
 800bf6e:	d13f      	bne.n	800bff0 <_printf_i+0x17c>
 800bf70:	2d00      	cmp	r5, #0
 800bf72:	f040 8095 	bne.w	800c0a0 <_printf_i+0x22c>
 800bf76:	4675      	mov	r5, lr
 800bf78:	2a08      	cmp	r2, #8
 800bf7a:	d10b      	bne.n	800bf94 <_printf_i+0x120>
 800bf7c:	6823      	ldr	r3, [r4, #0]
 800bf7e:	07da      	lsls	r2, r3, #31
 800bf80:	d508      	bpl.n	800bf94 <_printf_i+0x120>
 800bf82:	6923      	ldr	r3, [r4, #16]
 800bf84:	6862      	ldr	r2, [r4, #4]
 800bf86:	429a      	cmp	r2, r3
 800bf88:	bfde      	ittt	le
 800bf8a:	2330      	movle	r3, #48	; 0x30
 800bf8c:	f805 3c01 	strble.w	r3, [r5, #-1]
 800bf90:	f105 35ff 	addle.w	r5, r5, #4294967295
 800bf94:	ebae 0305 	sub.w	r3, lr, r5
 800bf98:	6123      	str	r3, [r4, #16]
 800bf9a:	f8cd 8000 	str.w	r8, [sp]
 800bf9e:	463b      	mov	r3, r7
 800bfa0:	aa03      	add	r2, sp, #12
 800bfa2:	4621      	mov	r1, r4
 800bfa4:	4630      	mov	r0, r6
 800bfa6:	f7ff feef 	bl	800bd88 <_printf_common>
 800bfaa:	3001      	adds	r0, #1
 800bfac:	d155      	bne.n	800c05a <_printf_i+0x1e6>
 800bfae:	f04f 30ff 	mov.w	r0, #4294967295
 800bfb2:	b005      	add	sp, #20
 800bfb4:	e8bd 83f0 	ldmia.w	sp!, {r4, r5, r6, r7, r8, r9, pc}
 800bfb8:	f881 2045 	strb.w	r2, [r1, #69]	; 0x45
 800bfbc:	493c      	ldr	r1, [pc, #240]	; (800c0b0 <_printf_i+0x23c>)
 800bfbe:	6822      	ldr	r2, [r4, #0]
 800bfc0:	6818      	ldr	r0, [r3, #0]
 800bfc2:	f012 0f80 	tst.w	r2, #128	; 0x80
 800bfc6:	f100 0504 	add.w	r5, r0, #4
 800bfca:	601d      	str	r5, [r3, #0]
 800bfcc:	d001      	beq.n	800bfd2 <_printf_i+0x15e>
 800bfce:	6803      	ldr	r3, [r0, #0]
 800bfd0:	e002      	b.n	800bfd8 <_printf_i+0x164>
 800bfd2:	0655      	lsls	r5, r2, #25
 800bfd4:	d5fb      	bpl.n	800bfce <_printf_i+0x15a>
 800bfd6:	8803      	ldrh	r3, [r0, #0]
 800bfd8:	07d0      	lsls	r0, r2, #31
 800bfda:	bf44      	itt	mi
 800bfdc:	f042 0220 	orrmi.w	r2, r2, #32
 800bfe0:	6022      	strmi	r2, [r4, #0]
 800bfe2:	b91b      	cbnz	r3, 800bfec <_printf_i+0x178>
 800bfe4:	6822      	ldr	r2, [r4, #0]
 800bfe6:	f022 0220 	bic.w	r2, r2, #32
 800bfea:	6022      	str	r2, [r4, #0]
 800bfec:	2210      	movs	r2, #16
 800bfee:	e7b1      	b.n	800bf54 <_printf_i+0xe0>
 800bff0:	4675      	mov	r5, lr
 800bff2:	fbb3 f0f2 	udiv	r0, r3, r2
 800bff6:	fb02 3310 	mls	r3, r2, r0, r3
 800bffa:	5ccb      	ldrb	r3, [r1, r3]
 800bffc:	f805 3d01 	strb.w	r3, [r5, #-1]!
 800c000:	4603      	mov	r3, r0
 800c002:	2800      	cmp	r0, #0
 800c004:	d1f5      	bne.n	800bff2 <_printf_i+0x17e>
 800c006:	e7b7      	b.n	800bf78 <_printf_i+0x104>
 800c008:	6808      	ldr	r0, [r1, #0]
 800c00a:	681a      	ldr	r2, [r3, #0]
 800c00c:	6949      	ldr	r1, [r1, #20]
 800c00e:	f010 0f80 	tst.w	r0, #128	; 0x80
 800c012:	d004      	beq.n	800c01e <_printf_i+0x1aa>
 800c014:	1d10      	adds	r0, r2, #4
 800c016:	6018      	str	r0, [r3, #0]
 800c018:	6813      	ldr	r3, [r2, #0]
 800c01a:	6019      	str	r1, [r3, #0]
 800c01c:	e007      	b.n	800c02e <_printf_i+0x1ba>
 800c01e:	f010 0f40 	tst.w	r0, #64	; 0x40
 800c022:	f102 0004 	add.w	r0, r2, #4
 800c026:	6018      	str	r0, [r3, #0]
 800c028:	6813      	ldr	r3, [r2, #0]
 800c02a:	d0f6      	beq.n	800c01a <_printf_i+0x1a6>
 800c02c:	8019      	strh	r1, [r3, #0]
 800c02e:	2300      	movs	r3, #0
 800c030:	6123      	str	r3, [r4, #16]
 800c032:	4675      	mov	r5, lr
 800c034:	e7b1      	b.n	800bf9a <_printf_i+0x126>
 800c036:	681a      	ldr	r2, [r3, #0]
 800c038:	1d11      	adds	r1, r2, #4
 800c03a:	6019      	str	r1, [r3, #0]
 800c03c:	6815      	ldr	r5, [r2, #0]
 800c03e:	6862      	ldr	r2, [r4, #4]
 800c040:	2100      	movs	r1, #0
 800c042:	4628      	mov	r0, r5
 800c044:	f7f4 f8e4 	bl	8000210 <memchr>
 800c048:	b108      	cbz	r0, 800c04e <_printf_i+0x1da>
 800c04a:	1b40      	subs	r0, r0, r5
 800c04c:	6060      	str	r0, [r4, #4]
 800c04e:	6863      	ldr	r3, [r4, #4]
 800c050:	6123      	str	r3, [r4, #16]
 800c052:	2300      	movs	r3, #0
 800c054:	f884 3043 	strb.w	r3, [r4, #67]	; 0x43
 800c058:	e79f      	b.n	800bf9a <_printf_i+0x126>
 800c05a:	6923      	ldr	r3, [r4, #16]
 800c05c:	462a      	mov	r2, r5
 800c05e:	4639      	mov	r1, r7
 800c060:	4630      	mov	r0, r6
 800c062:	47c0      	blx	r8
 800c064:	3001      	adds	r0, #1
 800c066:	d0a2      	beq.n	800bfae <_printf_i+0x13a>
 800c068:	6823      	ldr	r3, [r4, #0]
 800c06a:	079b      	lsls	r3, r3, #30
 800c06c:	d507      	bpl.n	800c07e <_printf_i+0x20a>
 800c06e:	2500      	movs	r5, #0
 800c070:	f104 0919 	add.w	r9, r4, #25
 800c074:	68e3      	ldr	r3, [r4, #12]
 800c076:	9a03      	ldr	r2, [sp, #12]
 800c078:	1a9b      	subs	r3, r3, r2
 800c07a:	429d      	cmp	r5, r3
 800c07c:	db05      	blt.n	800c08a <_printf_i+0x216>
 800c07e:	68e0      	ldr	r0, [r4, #12]
 800c080:	9b03      	ldr	r3, [sp, #12]
 800c082:	4298      	cmp	r0, r3
 800c084:	bfb8      	it	lt
 800c086:	4618      	movlt	r0, r3
 800c088:	e793      	b.n	800bfb2 <_printf_i+0x13e>
 800c08a:	2301      	movs	r3, #1
 800c08c:	464a      	mov	r2, r9
 800c08e:	4639      	mov	r1, r7
 800c090:	4630      	mov	r0, r6
 800c092:	47c0      	blx	r8
 800c094:	3001      	adds	r0, #1
 800c096:	d08a      	beq.n	800bfae <_printf_i+0x13a>
 800c098:	3501      	adds	r5, #1
 800c09a:	e7eb      	b.n	800c074 <_printf_i+0x200>
 800c09c:	2b00      	cmp	r3, #0
 800c09e:	d1a7      	bne.n	800bff0 <_printf_i+0x17c>
 800c0a0:	780b      	ldrb	r3, [r1, #0]
 800c0a2:	f884 3042 	strb.w	r3, [r4, #66]	; 0x42
 800c0a6:	f104 0542 	add.w	r5, r4, #66	; 0x42
 800c0aa:	e765      	b.n	800bf78 <_printf_i+0x104>
 800c0ac:	0800dc72 	.word	0x0800dc72
 800c0b0:	0800dc61 	.word	0x0800dc61

0800c0b4 <__sread>:
 800c0b4:	b510      	push	{r4, lr}
 800c0b6:	460c      	mov	r4, r1
 800c0b8:	f9b1 100e 	ldrsh.w	r1, [r1, #14]
 800c0bc:	f000 fa48 	bl	800c550 <_read_r>
 800c0c0:	2800      	cmp	r0, #0
 800c0c2:	bfab      	itete	ge
 800c0c4:	6d63      	ldrge	r3, [r4, #84]	; 0x54
 800c0c6:	89a3      	ldrhlt	r3, [r4, #12]
 800c0c8:	181b      	addge	r3, r3, r0
 800c0ca:	f423 5380 	biclt.w	r3, r3, #4096	; 0x1000
 800c0ce:	bfac      	ite	ge
 800c0d0:	6563      	strge	r3, [r4, #84]	; 0x54
 800c0d2:	81a3      	strhlt	r3, [r4, #12]
 800c0d4:	bd10      	pop	{r4, pc}

0800c0d6 <__swrite>:
 800c0d6:	e92d 41f0 	stmdb	sp!, {r4, r5, r6, r7, r8, lr}
 800c0da:	461f      	mov	r7, r3
 800c0dc:	898b      	ldrh	r3, [r1, #12]
 800c0de:	05db      	lsls	r3, r3, #23
 800c0e0:	4605      	mov	r5, r0
 800c0e2:	460c      	mov	r4, r1
 800c0e4:	4616      	mov	r6, r2
 800c0e6:	d505      	bpl.n	800c0f4 <__swrite+0x1e>
 800c0e8:	2302      	movs	r3, #2
 800c0ea:	2200      	movs	r2, #0
 800c0ec:	f9b1 100e 	ldrsh.w	r1, [r1, #14]
 800c0f0:	f000 f9b8 	bl	800c464 <_lseek_r>
 800c0f4:	89a3      	ldrh	r3, [r4, #12]
 800c0f6:	f9b4 100e 	ldrsh.w	r1, [r4, #14]
 800c0fa:	f423 5380 	bic.w	r3, r3, #4096	; 0x1000
 800c0fe:	81a3      	strh	r3, [r4, #12]
 800c100:	4632      	mov	r2, r6
 800c102:	463b      	mov	r3, r7
 800c104:	4628      	mov	r0, r5
 800c106:	e8bd 41f0 	ldmia.w	sp!, {r4, r5, r6, r7, r8, lr}
 800c10a:	f000 b869 	b.w	800c1e0 <_write_r>

0800c10e <__sseek>:
 800c10e:	b510      	push	{r4, lr}
 800c110:	460c      	mov	r4, r1
 800c112:	f9b1 100e 	ldrsh.w	r1, [r1, #14]
 800c116:	f000 f9a5 	bl	800c464 <_lseek_r>
 800c11a:	1c43      	adds	r3, r0, #1
 800c11c:	89a3      	ldrh	r3, [r4, #12]
 800c11e:	bf15      	itete	ne
 800c120:	6560      	strne	r0, [r4, #84]	; 0x54
 800c122:	f423 5380 	biceq.w	r3, r3, #4096	; 0x1000
 800c126:	f443 5380 	orrne.w	r3, r3, #4096	; 0x1000
 800c12a:	81a3      	strheq	r3, [r4, #12]
 800c12c:	bf18      	it	ne
 800c12e:	81a3      	strhne	r3, [r4, #12]
 800c130:	bd10      	pop	{r4, pc}

0800c132 <__sclose>:
 800c132:	f9b1 100e 	ldrsh.w	r1, [r1, #14]
 800c136:	f000 b8d3 	b.w	800c2e0 <_close_r>
	...

0800c13c <__swbuf_r>:
 800c13c:	b5f8      	push	{r3, r4, r5, r6, r7, lr}
 800c13e:	460e      	mov	r6, r1
 800c140:	4614      	mov	r4, r2
 800c142:	4605      	mov	r5, r0
 800c144:	b118      	cbz	r0, 800c14e <__swbuf_r+0x12>
 800c146:	6983      	ldr	r3, [r0, #24]
 800c148:	b90b      	cbnz	r3, 800c14e <__swbuf_r+0x12>
 800c14a:	f7ff fc51 	bl	800b9f0 <__sinit>
 800c14e:	4b21      	ldr	r3, [pc, #132]	; (800c1d4 <__swbuf_r+0x98>)
 800c150:	429c      	cmp	r4, r3
 800c152:	d12a      	bne.n	800c1aa <__swbuf_r+0x6e>
 800c154:	686c      	ldr	r4, [r5, #4]
 800c156:	69a3      	ldr	r3, [r4, #24]
 800c158:	60a3      	str	r3, [r4, #8]
 800c15a:	89a3      	ldrh	r3, [r4, #12]
 800c15c:	071a      	lsls	r2, r3, #28
 800c15e:	d52e      	bpl.n	800c1be <__swbuf_r+0x82>
 800c160:	6923      	ldr	r3, [r4, #16]
 800c162:	b363      	cbz	r3, 800c1be <__swbuf_r+0x82>
 800c164:	6923      	ldr	r3, [r4, #16]
 800c166:	6820      	ldr	r0, [r4, #0]
 800c168:	1ac0      	subs	r0, r0, r3
 800c16a:	6963      	ldr	r3, [r4, #20]
 800c16c:	b2f6      	uxtb	r6, r6
 800c16e:	4298      	cmp	r0, r3
 800c170:	4637      	mov	r7, r6
 800c172:	db04      	blt.n	800c17e <__swbuf_r+0x42>
 800c174:	4621      	mov	r1, r4
 800c176:	4628      	mov	r0, r5
 800c178:	f000 f94a 	bl	800c410 <_fflush_r>
 800c17c:	bb28      	cbnz	r0, 800c1ca <__swbuf_r+0x8e>
 800c17e:	68a3      	ldr	r3, [r4, #8]
 800c180:	3b01      	subs	r3, #1
 800c182:	60a3      	str	r3, [r4, #8]
 800c184:	6823      	ldr	r3, [r4, #0]
 800c186:	1c5a      	adds	r2, r3, #1
 800c188:	6022      	str	r2, [r4, #0]
 800c18a:	701e      	strb	r6, [r3, #0]
 800c18c:	6963      	ldr	r3, [r4, #20]
 800c18e:	3001      	adds	r0, #1
 800c190:	4298      	cmp	r0, r3
 800c192:	d004      	beq.n	800c19e <__swbuf_r+0x62>
 800c194:	89a3      	ldrh	r3, [r4, #12]
 800c196:	07db      	lsls	r3, r3, #31
 800c198:	d519      	bpl.n	800c1ce <__swbuf_r+0x92>
 800c19a:	2e0a      	cmp	r6, #10
 800c19c:	d117      	bne.n	800c1ce <__swbuf_r+0x92>
 800c19e:	4621      	mov	r1, r4
 800c1a0:	4628      	mov	r0, r5
 800c1a2:	f000 f935 	bl	800c410 <_fflush_r>
 800c1a6:	b190      	cbz	r0, 800c1ce <__swbuf_r+0x92>
 800c1a8:	e00f      	b.n	800c1ca <__swbuf_r+0x8e>
 800c1aa:	4b0b      	ldr	r3, [pc, #44]	; (800c1d8 <__swbuf_r+0x9c>)
 800c1ac:	429c      	cmp	r4, r3
 800c1ae:	d101      	bne.n	800c1b4 <__swbuf_r+0x78>
 800c1b0:	68ac      	ldr	r4, [r5, #8]
 800c1b2:	e7d0      	b.n	800c156 <__swbuf_r+0x1a>
 800c1b4:	4b09      	ldr	r3, [pc, #36]	; (800c1dc <__swbuf_r+0xa0>)
 800c1b6:	429c      	cmp	r4, r3
 800c1b8:	bf08      	it	eq
 800c1ba:	68ec      	ldreq	r4, [r5, #12]
 800c1bc:	e7cb      	b.n	800c156 <__swbuf_r+0x1a>
 800c1be:	4621      	mov	r1, r4
 800c1c0:	4628      	mov	r0, r5
 800c1c2:	f000 f81f 	bl	800c204 <__swsetup_r>
 800c1c6:	2800      	cmp	r0, #0
 800c1c8:	d0cc      	beq.n	800c164 <__swbuf_r+0x28>
 800c1ca:	f04f 37ff 	mov.w	r7, #4294967295
 800c1ce:	4638      	mov	r0, r7
 800c1d0:	bdf8      	pop	{r3, r4, r5, r6, r7, pc}
 800c1d2:	bf00      	nop
 800c1d4:	0800dc0c 	.word	0x0800dc0c
 800c1d8:	0800dc2c 	.word	0x0800dc2c
 800c1dc:	0800dbec 	.word	0x0800dbec

0800c1e0 <_write_r>:
 800c1e0:	b538      	push	{r3, r4, r5, lr}
 800c1e2:	4c07      	ldr	r4, [pc, #28]	; (800c200 <_write_r+0x20>)
 800c1e4:	4605      	mov	r5, r0
 800c1e6:	4608      	mov	r0, r1
 800c1e8:	4611      	mov	r1, r2
 800c1ea:	2200      	movs	r2, #0
 800c1ec:	6022      	str	r2, [r4, #0]
 800c1ee:	461a      	mov	r2, r3
 800c1f0:	f7fe ffdc 	bl	800b1ac <_write>
 800c1f4:	1c43      	adds	r3, r0, #1
 800c1f6:	d102      	bne.n	800c1fe <_write_r+0x1e>
 800c1f8:	6823      	ldr	r3, [r4, #0]
 800c1fa:	b103      	cbz	r3, 800c1fe <_write_r+0x1e>
 800c1fc:	602b      	str	r3, [r5, #0]
 800c1fe:	bd38      	pop	{r3, r4, r5, pc}
 800c200:	20007810 	.word	0x20007810

0800c204 <__swsetup_r>:
 800c204:	4b32      	ldr	r3, [pc, #200]	; (800c2d0 <__swsetup_r+0xcc>)
 800c206:	b570      	push	{r4, r5, r6, lr}
 800c208:	681d      	ldr	r5, [r3, #0]
 800c20a:	4606      	mov	r6, r0
 800c20c:	460c      	mov	r4, r1
 800c20e:	b125      	cbz	r5, 800c21a <__swsetup_r+0x16>
 800c210:	69ab      	ldr	r3, [r5, #24]
 800c212:	b913      	cbnz	r3, 800c21a <__swsetup_r+0x16>
 800c214:	4628      	mov	r0, r5
 800c216:	f7ff fbeb 	bl	800b9f0 <__sinit>
 800c21a:	4b2e      	ldr	r3, [pc, #184]	; (800c2d4 <__swsetup_r+0xd0>)
 800c21c:	429c      	cmp	r4, r3
 800c21e:	d10f      	bne.n	800c240 <__swsetup_r+0x3c>
 800c220:	686c      	ldr	r4, [r5, #4]
 800c222:	f9b4 300c 	ldrsh.w	r3, [r4, #12]
 800c226:	b29a      	uxth	r2, r3
 800c228:	0715      	lsls	r5, r2, #28
 800c22a:	d42c      	bmi.n	800c286 <__swsetup_r+0x82>
 800c22c:	06d0      	lsls	r0, r2, #27
 800c22e:	d411      	bmi.n	800c254 <__swsetup_r+0x50>
 800c230:	2209      	movs	r2, #9
 800c232:	6032      	str	r2, [r6, #0]
 800c234:	f043 0340 	orr.w	r3, r3, #64	; 0x40
 800c238:	81a3      	strh	r3, [r4, #12]
 800c23a:	f04f 30ff 	mov.w	r0, #4294967295
 800c23e:	bd70      	pop	{r4, r5, r6, pc}
 800c240:	4b25      	ldr	r3, [pc, #148]	; (800c2d8 <__swsetup_r+0xd4>)
 800c242:	429c      	cmp	r4, r3
 800c244:	d101      	bne.n	800c24a <__swsetup_r+0x46>
 800c246:	68ac      	ldr	r4, [r5, #8]
 800c248:	e7eb      	b.n	800c222 <__swsetup_r+0x1e>
 800c24a:	4b24      	ldr	r3, [pc, #144]	; (800c2dc <__swsetup_r+0xd8>)
 800c24c:	429c      	cmp	r4, r3
 800c24e:	bf08      	it	eq
 800c250:	68ec      	ldreq	r4, [r5, #12]
 800c252:	e7e6      	b.n	800c222 <__swsetup_r+0x1e>
 800c254:	0751      	lsls	r1, r2, #29
 800c256:	d512      	bpl.n	800c27e <__swsetup_r+0x7a>
 800c258:	6b61      	ldr	r1, [r4, #52]	; 0x34
 800c25a:	b141      	cbz	r1, 800c26e <__swsetup_r+0x6a>
 800c25c:	f104 0344 	add.w	r3, r4, #68	; 0x44
 800c260:	4299      	cmp	r1, r3
 800c262:	d002      	beq.n	800c26a <__swsetup_r+0x66>
 800c264:	4630      	mov	r0, r6
 800c266:	f7ff faaf 	bl	800b7c8 <_free_r>
 800c26a:	2300      	movs	r3, #0
 800c26c:	6363      	str	r3, [r4, #52]	; 0x34
 800c26e:	89a3      	ldrh	r3, [r4, #12]
 800c270:	f023 0324 	bic.w	r3, r3, #36	; 0x24
 800c274:	81a3      	strh	r3, [r4, #12]
 800c276:	2300      	movs	r3, #0
 800c278:	6063      	str	r3, [r4, #4]
 800c27a:	6923      	ldr	r3, [r4, #16]
 800c27c:	6023      	str	r3, [r4, #0]
 800c27e:	89a3      	ldrh	r3, [r4, #12]
 800c280:	f043 0308 	orr.w	r3, r3, #8
 800c284:	81a3      	strh	r3, [r4, #12]
 800c286:	6923      	ldr	r3, [r4, #16]
 800c288:	b94b      	cbnz	r3, 800c29e <__swsetup_r+0x9a>
 800c28a:	89a3      	ldrh	r3, [r4, #12]
 800c28c:	f403 7320 	and.w	r3, r3, #640	; 0x280
 800c290:	f5b3 7f00 	cmp.w	r3, #512	; 0x200
 800c294:	d003      	beq.n	800c29e <__swsetup_r+0x9a>
 800c296:	4621      	mov	r1, r4
 800c298:	4630      	mov	r0, r6
 800c29a:	f000 f919 	bl	800c4d0 <__smakebuf_r>
 800c29e:	89a2      	ldrh	r2, [r4, #12]
 800c2a0:	f012 0301 	ands.w	r3, r2, #1
 800c2a4:	d00c      	beq.n	800c2c0 <__swsetup_r+0xbc>
 800c2a6:	2300      	movs	r3, #0
 800c2a8:	60a3      	str	r3, [r4, #8]
 800c2aa:	6963      	ldr	r3, [r4, #20]
 800c2ac:	425b      	negs	r3, r3
 800c2ae:	61a3      	str	r3, [r4, #24]
 800c2b0:	6923      	ldr	r3, [r4, #16]
 800c2b2:	b953      	cbnz	r3, 800c2ca <__swsetup_r+0xc6>
 800c2b4:	f9b4 300c 	ldrsh.w	r3, [r4, #12]
 800c2b8:	f013 0080 	ands.w	r0, r3, #128	; 0x80
 800c2bc:	d1ba      	bne.n	800c234 <__swsetup_r+0x30>
 800c2be:	bd70      	pop	{r4, r5, r6, pc}
 800c2c0:	0792      	lsls	r2, r2, #30
 800c2c2:	bf58      	it	pl
 800c2c4:	6963      	ldrpl	r3, [r4, #20]
 800c2c6:	60a3      	str	r3, [r4, #8]
 800c2c8:	e7f2      	b.n	800c2b0 <__swsetup_r+0xac>
 800c2ca:	2000      	movs	r0, #0
 800c2cc:	e7f7      	b.n	800c2be <__swsetup_r+0xba>
 800c2ce:	bf00      	nop
 800c2d0:	20000174 	.word	0x20000174
 800c2d4:	0800dc0c 	.word	0x0800dc0c
 800c2d8:	0800dc2c 	.word	0x0800dc2c
 800c2dc:	0800dbec 	.word	0x0800dbec

0800c2e0 <_close_r>:
 800c2e0:	b538      	push	{r3, r4, r5, lr}
 800c2e2:	4c06      	ldr	r4, [pc, #24]	; (800c2fc <_close_r+0x1c>)
 800c2e4:	2300      	movs	r3, #0
 800c2e6:	4605      	mov	r5, r0
 800c2e8:	4608      	mov	r0, r1
 800c2ea:	6023      	str	r3, [r4, #0]
 800c2ec:	f7fe ff6c 	bl	800b1c8 <_close>
 800c2f0:	1c43      	adds	r3, r0, #1
 800c2f2:	d102      	bne.n	800c2fa <_close_r+0x1a>
 800c2f4:	6823      	ldr	r3, [r4, #0]
 800c2f6:	b103      	cbz	r3, 800c2fa <_close_r+0x1a>
 800c2f8:	602b      	str	r3, [r5, #0]
 800c2fa:	bd38      	pop	{r3, r4, r5, pc}
 800c2fc:	20007810 	.word	0x20007810

0800c300 <__sflush_r>:
 800c300:	898a      	ldrh	r2, [r1, #12]
 800c302:	e92d 41f0 	stmdb	sp!, {r4, r5, r6, r7, r8, lr}
 800c306:	4605      	mov	r5, r0
 800c308:	0710      	lsls	r0, r2, #28
 800c30a:	460c      	mov	r4, r1
 800c30c:	d45a      	bmi.n	800c3c4 <__sflush_r+0xc4>
 800c30e:	684b      	ldr	r3, [r1, #4]
 800c310:	2b00      	cmp	r3, #0
 800c312:	dc05      	bgt.n	800c320 <__sflush_r+0x20>
 800c314:	6c0b      	ldr	r3, [r1, #64]	; 0x40
 800c316:	2b00      	cmp	r3, #0
 800c318:	dc02      	bgt.n	800c320 <__sflush_r+0x20>
 800c31a:	2000      	movs	r0, #0
 800c31c:	e8bd 81f0 	ldmia.w	sp!, {r4, r5, r6, r7, r8, pc}
 800c320:	6ae6      	ldr	r6, [r4, #44]	; 0x2c
 800c322:	2e00      	cmp	r6, #0
 800c324:	d0f9      	beq.n	800c31a <__sflush_r+0x1a>
 800c326:	2300      	movs	r3, #0
 800c328:	f412 5280 	ands.w	r2, r2, #4096	; 0x1000
 800c32c:	682f      	ldr	r7, [r5, #0]
 800c32e:	602b      	str	r3, [r5, #0]
 800c330:	d033      	beq.n	800c39a <__sflush_r+0x9a>
 800c332:	6d60      	ldr	r0, [r4, #84]	; 0x54
 800c334:	89a3      	ldrh	r3, [r4, #12]
 800c336:	075a      	lsls	r2, r3, #29
 800c338:	d505      	bpl.n	800c346 <__sflush_r+0x46>
 800c33a:	6863      	ldr	r3, [r4, #4]
 800c33c:	1ac0      	subs	r0, r0, r3
 800c33e:	6b63      	ldr	r3, [r4, #52]	; 0x34
 800c340:	b10b      	cbz	r3, 800c346 <__sflush_r+0x46>
 800c342:	6c23      	ldr	r3, [r4, #64]	; 0x40
 800c344:	1ac0      	subs	r0, r0, r3
 800c346:	2300      	movs	r3, #0
 800c348:	4602      	mov	r2, r0
 800c34a:	6ae6      	ldr	r6, [r4, #44]	; 0x2c
 800c34c:	6a21      	ldr	r1, [r4, #32]
 800c34e:	4628      	mov	r0, r5
 800c350:	47b0      	blx	r6
 800c352:	1c43      	adds	r3, r0, #1
 800c354:	89a3      	ldrh	r3, [r4, #12]
 800c356:	d106      	bne.n	800c366 <__sflush_r+0x66>
 800c358:	6829      	ldr	r1, [r5, #0]
 800c35a:	291d      	cmp	r1, #29
 800c35c:	d84b      	bhi.n	800c3f6 <__sflush_r+0xf6>
 800c35e:	4a2b      	ldr	r2, [pc, #172]	; (800c40c <__sflush_r+0x10c>)
 800c360:	40ca      	lsrs	r2, r1
 800c362:	07d6      	lsls	r6, r2, #31
 800c364:	d547      	bpl.n	800c3f6 <__sflush_r+0xf6>
 800c366:	2200      	movs	r2, #0
 800c368:	6062      	str	r2, [r4, #4]
 800c36a:	04d9      	lsls	r1, r3, #19
 800c36c:	6922      	ldr	r2, [r4, #16]
 800c36e:	6022      	str	r2, [r4, #0]
 800c370:	d504      	bpl.n	800c37c <__sflush_r+0x7c>
 800c372:	1c42      	adds	r2, r0, #1
 800c374:	d101      	bne.n	800c37a <__sflush_r+0x7a>
 800c376:	682b      	ldr	r3, [r5, #0]
 800c378:	b903      	cbnz	r3, 800c37c <__sflush_r+0x7c>
 800c37a:	6560      	str	r0, [r4, #84]	; 0x54
 800c37c:	6b61      	ldr	r1, [r4, #52]	; 0x34
 800c37e:	602f      	str	r7, [r5, #0]
 800c380:	2900      	cmp	r1, #0
 800c382:	d0ca      	beq.n	800c31a <__sflush_r+0x1a>
 800c384:	f104 0344 	add.w	r3, r4, #68	; 0x44
 800c388:	4299      	cmp	r1, r3
 800c38a:	d002      	beq.n	800c392 <__sflush_r+0x92>
 800c38c:	4628      	mov	r0, r5
 800c38e:	f7ff fa1b 	bl	800b7c8 <_free_r>
 800c392:	2000      	movs	r0, #0
 800c394:	6360      	str	r0, [r4, #52]	; 0x34
 800c396:	e8bd 81f0 	ldmia.w	sp!, {r4, r5, r6, r7, r8, pc}
 800c39a:	6a21      	ldr	r1, [r4, #32]
 800c39c:	2301      	movs	r3, #1
 800c39e:	4628      	mov	r0, r5
 800c3a0:	47b0      	blx	r6
 800c3a2:	1c41      	adds	r1, r0, #1
 800c3a4:	d1c6      	bne.n	800c334 <__sflush_r+0x34>
 800c3a6:	682b      	ldr	r3, [r5, #0]
 800c3a8:	2b00      	cmp	r3, #0
 800c3aa:	d0c3      	beq.n	800c334 <__sflush_r+0x34>
 800c3ac:	2b1d      	cmp	r3, #29
 800c3ae:	d001      	beq.n	800c3b4 <__sflush_r+0xb4>
 800c3b0:	2b16      	cmp	r3, #22
 800c3b2:	d101      	bne.n	800c3b8 <__sflush_r+0xb8>
 800c3b4:	602f      	str	r7, [r5, #0]
 800c3b6:	e7b0      	b.n	800c31a <__sflush_r+0x1a>
 800c3b8:	89a3      	ldrh	r3, [r4, #12]
 800c3ba:	f043 0340 	orr.w	r3, r3, #64	; 0x40
 800c3be:	81a3      	strh	r3, [r4, #12]
 800c3c0:	e8bd 81f0 	ldmia.w	sp!, {r4, r5, r6, r7, r8, pc}
 800c3c4:	690f      	ldr	r7, [r1, #16]
 800c3c6:	2f00      	cmp	r7, #0
 800c3c8:	d0a7      	beq.n	800c31a <__sflush_r+0x1a>
 800c3ca:	0793      	lsls	r3, r2, #30
 800c3cc:	680e      	ldr	r6, [r1, #0]
 800c3ce:	bf08      	it	eq
 800c3d0:	694b      	ldreq	r3, [r1, #20]
 800c3d2:	600f      	str	r7, [r1, #0]
 800c3d4:	bf18      	it	ne
 800c3d6:	2300      	movne	r3, #0
 800c3d8:	eba6 0807 	sub.w	r8, r6, r7
 800c3dc:	608b      	str	r3, [r1, #8]
 800c3de:	f1b8 0f00 	cmp.w	r8, #0
 800c3e2:	dd9a      	ble.n	800c31a <__sflush_r+0x1a>
 800c3e4:	4643      	mov	r3, r8
 800c3e6:	463a      	mov	r2, r7
 800c3e8:	6a21      	ldr	r1, [r4, #32]
 800c3ea:	6aa6      	ldr	r6, [r4, #40]	; 0x28
 800c3ec:	4628      	mov	r0, r5
 800c3ee:	47b0      	blx	r6
 800c3f0:	2800      	cmp	r0, #0
 800c3f2:	dc07      	bgt.n	800c404 <__sflush_r+0x104>
 800c3f4:	89a3      	ldrh	r3, [r4, #12]
 800c3f6:	f043 0340 	orr.w	r3, r3, #64	; 0x40
 800c3fa:	81a3      	strh	r3, [r4, #12]
 800c3fc:	f04f 30ff 	mov.w	r0, #4294967295
 800c400:	e8bd 81f0 	ldmia.w	sp!, {r4, r5, r6, r7, r8, pc}
 800c404:	4407      	add	r7, r0
 800c406:	eba8 0800 	sub.w	r8, r8, r0
 800c40a:	e7e8      	b.n	800c3de <__sflush_r+0xde>
 800c40c:	20400001 	.word	0x20400001

0800c410 <_fflush_r>:
 800c410:	b538      	push	{r3, r4, r5, lr}
 800c412:	690b      	ldr	r3, [r1, #16]
 800c414:	4605      	mov	r5, r0
 800c416:	460c      	mov	r4, r1
 800c418:	b1db      	cbz	r3, 800c452 <_fflush_r+0x42>
 800c41a:	b118      	cbz	r0, 800c424 <_fflush_r+0x14>
 800c41c:	6983      	ldr	r3, [r0, #24]
 800c41e:	b90b      	cbnz	r3, 800c424 <_fflush_r+0x14>
 800c420:	f7ff fae6 	bl	800b9f0 <__sinit>
 800c424:	4b0c      	ldr	r3, [pc, #48]	; (800c458 <_fflush_r+0x48>)
 800c426:	429c      	cmp	r4, r3
 800c428:	d109      	bne.n	800c43e <_fflush_r+0x2e>
 800c42a:	686c      	ldr	r4, [r5, #4]
 800c42c:	f9b4 300c 	ldrsh.w	r3, [r4, #12]
 800c430:	b17b      	cbz	r3, 800c452 <_fflush_r+0x42>
 800c432:	4621      	mov	r1, r4
 800c434:	4628      	mov	r0, r5
 800c436:	e8bd 4038 	ldmia.w	sp!, {r3, r4, r5, lr}
 800c43a:	f7ff bf61 	b.w	800c300 <__sflush_r>
 800c43e:	4b07      	ldr	r3, [pc, #28]	; (800c45c <_fflush_r+0x4c>)
 800c440:	429c      	cmp	r4, r3
 800c442:	d101      	bne.n	800c448 <_fflush_r+0x38>
 800c444:	68ac      	ldr	r4, [r5, #8]
 800c446:	e7f1      	b.n	800c42c <_fflush_r+0x1c>
 800c448:	4b05      	ldr	r3, [pc, #20]	; (800c460 <_fflush_r+0x50>)
 800c44a:	429c      	cmp	r4, r3
 800c44c:	bf08      	it	eq
 800c44e:	68ec      	ldreq	r4, [r5, #12]
 800c450:	e7ec      	b.n	800c42c <_fflush_r+0x1c>
 800c452:	2000      	movs	r0, #0
 800c454:	bd38      	pop	{r3, r4, r5, pc}
 800c456:	bf00      	nop
 800c458:	0800dc0c 	.word	0x0800dc0c
 800c45c:	0800dc2c 	.word	0x0800dc2c
 800c460:	0800dbec 	.word	0x0800dbec

0800c464 <_lseek_r>:
 800c464:	b538      	push	{r3, r4, r5, lr}
 800c466:	4c07      	ldr	r4, [pc, #28]	; (800c484 <_lseek_r+0x20>)
 800c468:	4605      	mov	r5, r0
 800c46a:	4608      	mov	r0, r1
 800c46c:	4611      	mov	r1, r2
 800c46e:	2200      	movs	r2, #0
 800c470:	6022      	str	r2, [r4, #0]
 800c472:	461a      	mov	r2, r3
 800c474:	f7fe feb2 	bl	800b1dc <_lseek>
 800c478:	1c43      	adds	r3, r0, #1
 800c47a:	d102      	bne.n	800c482 <_lseek_r+0x1e>
 800c47c:	6823      	ldr	r3, [r4, #0]
 800c47e:	b103      	cbz	r3, 800c482 <_lseek_r+0x1e>
 800c480:	602b      	str	r3, [r5, #0]
 800c482:	bd38      	pop	{r3, r4, r5, pc}
 800c484:	20007810 	.word	0x20007810

0800c488 <__swhatbuf_r>:
 800c488:	b570      	push	{r4, r5, r6, lr}
 800c48a:	460e      	mov	r6, r1
 800c48c:	f9b1 100e 	ldrsh.w	r1, [r1, #14]
 800c490:	2900      	cmp	r1, #0
 800c492:	b090      	sub	sp, #64	; 0x40
 800c494:	4614      	mov	r4, r2
 800c496:	461d      	mov	r5, r3
 800c498:	da07      	bge.n	800c4aa <__swhatbuf_r+0x22>
 800c49a:	2300      	movs	r3, #0
 800c49c:	602b      	str	r3, [r5, #0]
 800c49e:	89b3      	ldrh	r3, [r6, #12]
 800c4a0:	061a      	lsls	r2, r3, #24
 800c4a2:	d410      	bmi.n	800c4c6 <__swhatbuf_r+0x3e>
 800c4a4:	f44f 6380 	mov.w	r3, #1024	; 0x400
 800c4a8:	e00e      	b.n	800c4c8 <__swhatbuf_r+0x40>
 800c4aa:	aa01      	add	r2, sp, #4
 800c4ac:	f000 f862 	bl	800c574 <_fstat_r>
 800c4b0:	2800      	cmp	r0, #0
 800c4b2:	dbf2      	blt.n	800c49a <__swhatbuf_r+0x12>
 800c4b4:	9a02      	ldr	r2, [sp, #8]
 800c4b6:	f402 4270 	and.w	r2, r2, #61440	; 0xf000
 800c4ba:	f5a2 5300 	sub.w	r3, r2, #8192	; 0x2000
 800c4be:	425a      	negs	r2, r3
 800c4c0:	415a      	adcs	r2, r3
 800c4c2:	602a      	str	r2, [r5, #0]
 800c4c4:	e7ee      	b.n	800c4a4 <__swhatbuf_r+0x1c>
 800c4c6:	2340      	movs	r3, #64	; 0x40
 800c4c8:	2000      	movs	r0, #0
 800c4ca:	6023      	str	r3, [r4, #0]
 800c4cc:	b010      	add	sp, #64	; 0x40
 800c4ce:	bd70      	pop	{r4, r5, r6, pc}

0800c4d0 <__smakebuf_r>:
 800c4d0:	898b      	ldrh	r3, [r1, #12]
 800c4d2:	b573      	push	{r0, r1, r4, r5, r6, lr}
 800c4d4:	079d      	lsls	r5, r3, #30
 800c4d6:	4606      	mov	r6, r0
 800c4d8:	460c      	mov	r4, r1
 800c4da:	d507      	bpl.n	800c4ec <__smakebuf_r+0x1c>
 800c4dc:	f104 0347 	add.w	r3, r4, #71	; 0x47
 800c4e0:	6023      	str	r3, [r4, #0]
 800c4e2:	6123      	str	r3, [r4, #16]
 800c4e4:	2301      	movs	r3, #1
 800c4e6:	6163      	str	r3, [r4, #20]
 800c4e8:	b002      	add	sp, #8
 800c4ea:	bd70      	pop	{r4, r5, r6, pc}
 800c4ec:	ab01      	add	r3, sp, #4
 800c4ee:	466a      	mov	r2, sp
 800c4f0:	f7ff ffca 	bl	800c488 <__swhatbuf_r>
 800c4f4:	9900      	ldr	r1, [sp, #0]
 800c4f6:	4605      	mov	r5, r0
 800c4f8:	4630      	mov	r0, r6
 800c4fa:	f7ff f9b3 	bl	800b864 <_malloc_r>
 800c4fe:	b948      	cbnz	r0, 800c514 <__smakebuf_r+0x44>
 800c500:	f9b4 300c 	ldrsh.w	r3, [r4, #12]
 800c504:	059a      	lsls	r2, r3, #22
 800c506:	d4ef      	bmi.n	800c4e8 <__smakebuf_r+0x18>
 800c508:	f023 0303 	bic.w	r3, r3, #3
 800c50c:	f043 0302 	orr.w	r3, r3, #2
 800c510:	81a3      	strh	r3, [r4, #12]
 800c512:	e7e3      	b.n	800c4dc <__smakebuf_r+0xc>
 800c514:	4b0d      	ldr	r3, [pc, #52]	; (800c54c <__smakebuf_r+0x7c>)
 800c516:	62b3      	str	r3, [r6, #40]	; 0x28
 800c518:	89a3      	ldrh	r3, [r4, #12]
 800c51a:	6020      	str	r0, [r4, #0]
 800c51c:	f043 0380 	orr.w	r3, r3, #128	; 0x80
 800c520:	81a3      	strh	r3, [r4, #12]
 800c522:	9b00      	ldr	r3, [sp, #0]
 800c524:	6163      	str	r3, [r4, #20]
 800c526:	9b01      	ldr	r3, [sp, #4]
 800c528:	6120      	str	r0, [r4, #16]
 800c52a:	b15b      	cbz	r3, 800c544 <__smakebuf_r+0x74>
 800c52c:	f9b4 100e 	ldrsh.w	r1, [r4, #14]
 800c530:	4630      	mov	r0, r6
 800c532:	f000 f831 	bl	800c598 <_isatty_r>
 800c536:	b128      	cbz	r0, 800c544 <__smakebuf_r+0x74>
 800c538:	89a3      	ldrh	r3, [r4, #12]
 800c53a:	f023 0303 	bic.w	r3, r3, #3
 800c53e:	f043 0301 	orr.w	r3, r3, #1
 800c542:	81a3      	strh	r3, [r4, #12]
 800c544:	89a3      	ldrh	r3, [r4, #12]
 800c546:	431d      	orrs	r5, r3
 800c548:	81a5      	strh	r5, [r4, #12]
 800c54a:	e7cd      	b.n	800c4e8 <__smakebuf_r+0x18>
 800c54c:	0800b971 	.word	0x0800b971

0800c550 <_read_r>:
 800c550:	b538      	push	{r3, r4, r5, lr}
 800c552:	4c07      	ldr	r4, [pc, #28]	; (800c570 <_read_r+0x20>)
 800c554:	4605      	mov	r5, r0
 800c556:	4608      	mov	r0, r1
 800c558:	4611      	mov	r1, r2
 800c55a:	2200      	movs	r2, #0
 800c55c:	6022      	str	r2, [r4, #0]
 800c55e:	461a      	mov	r2, r3
 800c560:	f7fe fe3e 	bl	800b1e0 <_read>
 800c564:	1c43      	adds	r3, r0, #1
 800c566:	d102      	bne.n	800c56e <_read_r+0x1e>
 800c568:	6823      	ldr	r3, [r4, #0]
 800c56a:	b103      	cbz	r3, 800c56e <_read_r+0x1e>
 800c56c:	602b      	str	r3, [r5, #0]
 800c56e:	bd38      	pop	{r3, r4, r5, pc}
 800c570:	20007810 	.word	0x20007810

0800c574 <_fstat_r>:
 800c574:	b538      	push	{r3, r4, r5, lr}
 800c576:	4c07      	ldr	r4, [pc, #28]	; (800c594 <_fstat_r+0x20>)
 800c578:	2300      	movs	r3, #0
 800c57a:	4605      	mov	r5, r0
 800c57c:	4608      	mov	r0, r1
 800c57e:	4611      	mov	r1, r2
 800c580:	6023      	str	r3, [r4, #0]
 800c582:	f7fe fe24 	bl	800b1ce <_fstat>
 800c586:	1c43      	adds	r3, r0, #1
 800c588:	d102      	bne.n	800c590 <_fstat_r+0x1c>
 800c58a:	6823      	ldr	r3, [r4, #0]
 800c58c:	b103      	cbz	r3, 800c590 <_fstat_r+0x1c>
 800c58e:	602b      	str	r3, [r5, #0]
 800c590:	bd38      	pop	{r3, r4, r5, pc}
 800c592:	bf00      	nop
 800c594:	20007810 	.word	0x20007810

0800c598 <_isatty_r>:
 800c598:	b538      	push	{r3, r4, r5, lr}
 800c59a:	4c06      	ldr	r4, [pc, #24]	; (800c5b4 <_isatty_r+0x1c>)
 800c59c:	2300      	movs	r3, #0
 800c59e:	4605      	mov	r5, r0
 800c5a0:	4608      	mov	r0, r1
 800c5a2:	6023      	str	r3, [r4, #0]
 800c5a4:	f7fe fe18 	bl	800b1d8 <_isatty>
 800c5a8:	1c43      	adds	r3, r0, #1
 800c5aa:	d102      	bne.n	800c5b2 <_isatty_r+0x1a>
 800c5ac:	6823      	ldr	r3, [r4, #0]
 800c5ae:	b103      	cbz	r3, 800c5b2 <_isatty_r+0x1a>
 800c5b0:	602b      	str	r3, [r5, #0]
 800c5b2:	bd38      	pop	{r3, r4, r5, pc}
 800c5b4:	20007810 	.word	0x20007810

0800c5b8 <_init>:
 800c5b8:	b5f8      	push	{r3, r4, r5, r6, r7, lr}
 800c5ba:	bf00      	nop
 800c5bc:	bcf8      	pop	{r3, r4, r5, r6, r7}
 800c5be:	bc08      	pop	{r3}
 800c5c0:	469e      	mov	lr, r3
 800c5c2:	4770      	bx	lr

0800c5c4 <_fini>:
 800c5c4:	b5f8      	push	{r3, r4, r5, r6, r7, lr}
 800c5c6:	bf00      	nop
 800c5c8:	bcf8      	pop	{r3, r4, r5, r6, r7}
 800c5ca:	bc08      	pop	{r3}
 800c5cc:	469e      	mov	lr, r3
 800c5ce:	4770      	bx	lr
